###############################################################################
#                                                                             #
# IAR C/C++ Compiler V8.10.1.10194/W32 for 8051         12/Dec/2016  16:48:58 #
# Copyright 2004-2011 IAR Systems AB.                                         #
#                                                                             #
#    Core               =  plain                                              #
#    Code model         =  banked                                             #
#    Data model         =  large                                              #
#    Calling convention =  xdata reentrant                                    #
#    Constant location  =  data_rom                                           #
#    Dptr setup         =  1,16                                               #
#    Source file        =  D:\work space\Smart Product\SmartLightSwitch\two   #
#                          key\v1.00.0\ZStack-CC2530-2.5.1a\ZStack-CC2530-2.5 #
#                          .1a\Projects\zstack\HomeAutomation\SmartSwitchLigh #
#                          t\Source\zcl_device_info.c                         #
#    Command line       =  -f "D:\work space\Smart Product\SmartLightSwitch\t #
#                          wo key\v1.00.0\ZStack-CC2530-2.5.1a\ZStack-CC2530- #
#                          2.5.1a\Projects\zstack\HomeAutomation\SmartSwitchL #
#                          ight\CC2530DB\..\Tools\CC2530DB\f8wRouter.cfg"     #
#                          (-DCPU32MHZ -DROOT=__near_func                     #
#                          -DMAC_CFG_APP_PENDING_QUEUE=TRUE                   #
#                          -DMAC_CFG_TX_DATA_MAX=5 -DMAC_CFG_TX_MAX=8         #
#                          -DMAC_CFG_RX_MAX=5 -DRTR_NWK -DNV_RESTORE          #
#                          -DNV_INIT -DHAL_KEY=FALSE -DHAL_LED=FALSE          #
#                          -DHAL_LCD=FALSE -DHAL_ADC=FALSE -DTC_LINKKEY_JOIN  #
#                          -DMAX_NEIGHBOR_ENTRIES=48 -DTVSA_DATA_CNF=1        #
#                          -DPACKET_FILTER_STATS -DNWK_LINK_STATUS_PERIOD=60) #
#                           -f "D:\work space\Smart                           #
#                          Product\SmartLightSwitch\two                       #
#                          key\v1.00.0\ZStack-CC2530-2.5.1a\ZStack-CC2530-2.5 #
#                          .1a\Projects\zstack\HomeAutomation\SmartSwitchLigh #
#                          t\CC2530DB\..\Tools\CC2530DB\f8wConfig.cfg"        #
#                          (-DZIGBEEPRO -DSECURE=1 -DZG_SECURE_DYNAMIC=0      #
#                          -DREFLECTOR -DDEFAULT_CHANLIST=0x00000800          #
#                          -DZDAPP_CONFIG_PAN_ID=0xFFFF                       #
#                          -DNWK_START_DELAY=100 -DEXTENDED_JOINING_RANDOM_MA #
#                          SK=0x007F -DBEACON_REQUEST_DELAY=5000              #
#                          -DBEACON_REQ_DELAY_MASK=0x00FF                     #
#                          -DLINK_STATUS_JITTER_MASK=0x007F                   #
#                          -DROUTE_EXPIRY_TIME=30 -DAPSC_ACK_WAIT_DURATION_PO #
#                          LLED=3000 -DNWK_INDIRECT_MSG_TIMEOUT=7             #
#                          -DMAX_RREQ_ENTRIES=8 -DAPSC_MAX_FRAME_RETRIES=3    #
#                          -DNWK_MAX_DATA_RETRIES=2                           #
#                          -DMAX_POLL_FAILURE_RETRIES=2 -DMAX_BCAST=9         #
#                          -DAPS_MAX_GROUPS=16 -DMAX_RTG_ENTRIES=40           #
#                          -DNWK_MAX_BINDING_ENTRIES=4                        #
#                          -DMAX_BINDING_CLUSTER_IDS=4                        #
#                          -DDEFAULT_KEY={0x79,0x69,0x20,0x68,0x75,0x69,0x20, #
#                          0x79,0x75,0x6E,0x20,0x73,0x6D,0x61,0x72,0x74}      #
#                          -DMAC_MAX_FRAME_SIZE=116                           #
#                          -DZDNWKMGR_MIN_TRANSMISSIONS=20 "-DCONST=const     #
#                          __code" -DGENERIC=__generic                        #
#                          -DRFD_RCVC_ALWAYS_ON=TRUE -DPOLL_RATE=0            #
#                          -DQUEUED_POLL_RATE=0 -DRESPONSE_POLL_RATE=0        #
#                          -DREJOIN_POLL_RATE=440) -f "D:\work space\Smart    #
#                          Product\SmartLightSwitch\two                       #
#                          key\v1.00.0\ZStack-CC2530-2.5.1a\ZStack-CC2530-2.5 #
#                          .1a\Projects\zstack\HomeAutomation\SmartSwitchLigh #
#                          t\CC2530DB\..\Tools\CC2530DB\f8wZCL.cfg"           #
#                          (-DZCL_READ -DZCL_WRITE -DZCL_REPORT -DZCL_BASIC   #
#                          -DZCL_IDENTIFY -DZCL_ON_OFF -DZCL_KEY_ESTABLISH    #
#                          -DZCL_KEY_ESTABLISHMENT_KEY_GENERATE_TIMEOUT=4     #
#                          -DZCL_KEY_ESTABLISHMENT_MAC_GENERATE_TIMEOUT=10    #
#                          -DZCL_KEY_ESTABLISHMENT_EKEY_GENERATE_TIMEOUT=10   #
#                          -DZCL_LOAD_CONTROL -DZCL_SIMPLE_METERING           #
#                          -DZCL_PRICING -DZCL_MESSAGE -DZCL_TUNNELING        #
#                          -DZCL_TOU) -DZCL_DEVICE_MGMT "D:\work space\Smart  #
#                          Product\SmartLightSwitch\two                       #
#                          key\v1.00.0\ZStack-CC2530-2.5.1a\ZStack-CC2530-2.5 #
#                          .1a\Projects\zstack\HomeAutomation\SmartSwitchLigh #
#                          t\Source\zcl_device_info.c" -lC "D:\work           #
#                          space\Smart Product\SmartLightSwitch\two           #
#                          key\v1.00.0\ZStack-CC2530-2.5.1a\ZStack-CC2530-2.5 #
#                          .1a\Projects\zstack\HomeAutomation\SmartSwitchLigh #
#                          t\CC2530DB\RouterDeviceEB\List\" -lA "D:\work      #
#                          space\Smart Product\SmartLightSwitch\two           #
#                          key\v1.00.0\ZStack-CC2530-2.5.1a\ZStack-CC2530-2.5 #
#                          .1a\Projects\zstack\HomeAutomation\SmartSwitchLigh #
#                          t\CC2530DB\RouterDeviceEB\List\" --diag_suppress   #
#                          Pe001,Pa010 -o "D:\work space\Smart                #
#                          Product\SmartLightSwitch\two                       #
#                          key\v1.00.0\ZStack-CC2530-2.5.1a\ZStack-CC2530-2.5 #
#                          .1a\Projects\zstack\HomeAutomation\SmartSwitchLigh #
#                          t\CC2530DB\RouterDeviceEB\Obj\" -e --debug         #
#                          --core=plain --dptr=16,1 --data_model=large        #
#                          --code_model=banked --calling_convention=xdata_ree #
#                          ntrant --place_constants=data_rom                  #
#                          --nr_virtual_regs 16 -I "D:\work space\Smart       #
#                          Product\SmartLightSwitch\two                       #
#                          key\v1.00.0\ZStack-CC2530-2.5.1a\ZStack-CC2530-2.5 #
#                          .1a\Projects\zstack\HomeAutomation\SmartSwitchLigh #
#                          t\CC2530DB\" -I "D:\work space\Smart               #
#                          Product\SmartLightSwitch\two                       #
#                          key\v1.00.0\ZStack-CC2530-2.5.1a\ZStack-CC2530-2.5 #
#                          .1a\Projects\zstack\HomeAutomation\SmartSwitchLigh #
#                          t\CC2530DB\..\Source\" -I "D:\work space\Smart     #
#                          Product\SmartLightSwitch\two                       #
#                          key\v1.00.0\ZStack-CC2530-2.5.1a\ZStack-CC2530-2.5 #
#                          .1a\Projects\zstack\HomeAutomation\SmartSwitchLigh #
#                          t\CC2530DB\..\..\Source\" -I "D:\work space\Smart  #
#                          Product\SmartLightSwitch\two                       #
#                          key\v1.00.0\ZStack-CC2530-2.5.1a\ZStack-CC2530-2.5 #
#                          .1a\Projects\zstack\HomeAutomation\SmartSwitchLigh #
#                          t\CC2530DB\..\..\..\ZMain\TI2530DB\" -I "D:\work   #
#                          space\Smart Product\SmartLightSwitch\two           #
#                          key\v1.00.0\ZStack-CC2530-2.5.1a\ZStack-CC2530-2.5 #
#                          .1a\Projects\zstack\HomeAutomation\SmartSwitchLigh #
#                          t\CC2530DB\..\..\..\..\..\Components\hal\include\" #
#                           -I "D:\work space\Smart                           #
#                          Product\SmartLightSwitch\two                       #
#                          key\v1.00.0\ZStack-CC2530-2.5.1a\ZStack-CC2530-2.5 #
#                          .1a\Projects\zstack\HomeAutomation\SmartSwitchLigh #
#                          t\CC2530DB\..\..\..\..\..\Components\hal\target\CC #
#                          2530EB\" -I "D:\work space\Smart                   #
#                          Product\SmartLightSwitch\two                       #
#                          key\v1.00.0\ZStack-CC2530-2.5.1a\ZStack-CC2530-2.5 #
#                          .1a\Projects\zstack\HomeAutomation\SmartSwitchLigh #
#                          t\CC2530DB\..\..\..\..\..\Components\mac\include\" #
#                           -I "D:\work space\Smart                           #
#                          Product\SmartLightSwitch\two                       #
#                          key\v1.00.0\ZStack-CC2530-2.5.1a\ZStack-CC2530-2.5 #
#                          .1a\Projects\zstack\HomeAutomation\SmartSwitchLigh #
#                          t\CC2530DB\..\..\..\..\..\Components\mac\high_leve #
#                          l\" -I "D:\work space\Smart                        #
#                          Product\SmartLightSwitch\two                       #
#                          key\v1.00.0\ZStack-CC2530-2.5.1a\ZStack-CC2530-2.5 #
#                          .1a\Projects\zstack\HomeAutomation\SmartSwitchLigh #
#                          t\CC2530DB\..\..\..\..\..\Components\mac\low_level #
#                          \srf04\" -I "D:\work space\Smart                   #
#                          Product\SmartLightSwitch\two                       #
#                          key\v1.00.0\ZStack-CC2530-2.5.1a\ZStack-CC2530-2.5 #
#                          .1a\Projects\zstack\HomeAutomation\SmartSwitchLigh #
#                          t\CC2530DB\..\..\..\..\..\Components\mac\low_level #
#                          \srf04\single_chip\" -I "D:\work space\Smart       #
#                          Product\SmartLightSwitch\two                       #
#                          key\v1.00.0\ZStack-CC2530-2.5.1a\ZStack-CC2530-2.5 #
#                          .1a\Projects\zstack\HomeAutomation\SmartSwitchLigh #
#                          t\CC2530DB\..\..\..\..\..\Components\mt\" -I       #
#                          "D:\work space\Smart Product\SmartLightSwitch\two  #
#                          key\v1.00.0\ZStack-CC2530-2.5.1a\ZStack-CC2530-2.5 #
#                          .1a\Projects\zstack\HomeAutomation\SmartSwitchLigh #
#                          t\CC2530DB\..\..\..\..\..\Components\osal\include\ #
#                          " -I "D:\work space\Smart                          #
#                          Product\SmartLightSwitch\two                       #
#                          key\v1.00.0\ZStack-CC2530-2.5.1a\ZStack-CC2530-2.5 #
#                          .1a\Projects\zstack\HomeAutomation\SmartSwitchLigh #
#                          t\CC2530DB\..\..\..\..\..\Components\services\sadd #
#                          r\" -I "D:\work space\Smart                        #
#                          Product\SmartLightSwitch\two                       #
#                          key\v1.00.0\ZStack-CC2530-2.5.1a\ZStack-CC2530-2.5 #
#                          .1a\Projects\zstack\HomeAutomation\SmartSwitchLigh #
#                          t\CC2530DB\..\..\..\..\..\Components\services\sdat #
#                          a\" -I "D:\work space\Smart                        #
#                          Product\SmartLightSwitch\two                       #
#                          key\v1.00.0\ZStack-CC2530-2.5.1a\ZStack-CC2530-2.5 #
#                          .1a\Projects\zstack\HomeAutomation\SmartSwitchLigh #
#                          t\CC2530DB\..\..\..\..\..\Components\stack\af\"    #
#                          -I "D:\work space\Smart Product\SmartLightSwitch\t #
#                          wo key\v1.00.0\ZStack-CC2530-2.5.1a\ZStack-CC2530- #
#                          2.5.1a\Projects\zstack\HomeAutomation\SmartSwitchL #
#                          ight\CC2530DB\..\..\..\..\..\Components\stack\nwk\ #
#                          " -I "D:\work space\Smart                          #
#                          Product\SmartLightSwitch\two                       #
#                          key\v1.00.0\ZStack-CC2530-2.5.1a\ZStack-CC2530-2.5 #
#                          .1a\Projects\zstack\HomeAutomation\SmartSwitchLigh #
#                          t\CC2530DB\..\..\..\..\..\Components\stack\sapi\"  #
#                          -I "D:\work space\Smart Product\SmartLightSwitch\t #
#                          wo key\v1.00.0\ZStack-CC2530-2.5.1a\ZStack-CC2530- #
#                          2.5.1a\Projects\zstack\HomeAutomation\SmartSwitchL #
#                          ight\CC2530DB\..\..\..\..\..\Components\stack\sec\ #
#                          " -I "D:\work space\Smart                          #
#                          Product\SmartLightSwitch\two                       #
#                          key\v1.00.0\ZStack-CC2530-2.5.1a\ZStack-CC2530-2.5 #
#                          .1a\Projects\zstack\HomeAutomation\SmartSwitchLigh #
#                          t\CC2530DB\..\..\..\..\..\Components\stack\sys\"   #
#                          -I "D:\work space\Smart Product\SmartLightSwitch\t #
#                          wo key\v1.00.0\ZStack-CC2530-2.5.1a\ZStack-CC2530- #
#                          2.5.1a\Projects\zstack\HomeAutomation\SmartSwitchL #
#                          ight\CC2530DB\..\..\..\..\..\Components\stack\zcl\ #
#                          " -I "D:\work space\Smart                          #
#                          Product\SmartLightSwitch\two                       #
#                          key\v1.00.0\ZStack-CC2530-2.5.1a\ZStack-CC2530-2.5 #
#                          .1a\Projects\zstack\HomeAutomation\SmartSwitchLigh #
#                          t\CC2530DB\..\..\..\..\..\Components\stack\zdo\"   #
#                          -I "D:\work space\Smart Product\SmartLightSwitch\t #
#                          wo key\v1.00.0\ZStack-CC2530-2.5.1a\ZStack-CC2530- #
#                          2.5.1a\Projects\zstack\HomeAutomation\SmartSwitchL #
#                          ight\CC2530DB\..\..\..\..\..\Components\zmac\" -I  #
#                          "D:\work space\Smart Product\SmartLightSwitch\two  #
#                          key\v1.00.0\ZStack-CC2530-2.5.1a\ZStack-CC2530-2.5 #
#                          .1a\Projects\zstack\HomeAutomation\SmartSwitchLigh #
#                          t\CC2530DB\..\..\..\..\..\Components\zmac\f8w\"    #
#                          -Oh --require_prototypes                           #
#    List file          =  D:\work space\Smart Product\SmartLightSwitch\two   #
#                          key\v1.00.0\ZStack-CC2530-2.5.1a\ZStack-CC2530-2.5 #
#                          .1a\Projects\zstack\HomeAutomation\SmartSwitchLigh #
#                          t\CC2530DB\RouterDeviceEB\List\zcl_device_info.lst #
#    Object file        =  D:\work space\Smart Product\SmartLightSwitch\two   #
#                          key\v1.00.0\ZStack-CC2530-2.5.1a\ZStack-CC2530-2.5 #
#                          .1a\Projects\zstack\HomeAutomation\SmartSwitchLigh #
#                          t\CC2530DB\RouterDeviceEB\Obj\zcl_device_info.r51  #
#                                                                             #
#                                                                             #
###############################################################################

D:\work space\Smart Product\SmartLightSwitch\two key\v1.00.0\ZStack-CC2530-2.5.1a\ZStack-CC2530-2.5.1a\Projects\zstack\HomeAutomation\SmartSwitchLight\Source\zcl_device_info.c
      1          #include "zcl.h"
      2          #include "ZDObject.h"
      3          #include "zcl_device_info.h"
      4          #include "zcl_onofflight.h"
      5          #include "zcl_light_control.h"

   \                                 In  segment SFR_AN, at 0x90
   \   union <unnamed> volatile __sfr _A_P1
   \                     _A_P1:
   \   000000                DS 1
      6          #include "OnBoard.h"
      7          #include "ZGlobals.h"
      8          #include "ZComDef.h"
      9          
     10          extern byte zclOnOffLight_TaskID;
     11          #define ZCL_TASK_ID zclOnOffLight_TaskID
     12          

   \                                 In  segment XDATA_Z, align 1, keep-with-next
     13          afAddrType_t zclIASZoneMotionIR_Coord_nwkAddr;
   \                     zclIASZoneMotionIR_Coord_nwkAddr:
   \   000000                DS 12
   \   00000C                REQUIRE __INIT_XDATA_Z

   \                                 In  segment XDATA_Z, align 1, keep-with-next
     14          static uint16 gDeviceInfoSendStatus = 0;
   \                     gDeviceInfoSendStatus:
   \   000000                DS 2
   \   000002                REQUIRE __INIT_XDATA_Z
     15          

   \                                 In  segment XDATA_I, align 1, keep-with-next
     16          uint8 softeVision[3] = {0x01,0x09,0x00};//软件版本号
   \                     softeVision:
   \   000000                DS 3
   \   000003                REQUIRE `?<Initializer for softeVision>`
   \   000003                REQUIRE __INIT_XDATA_I

   \                                 In  segment XDATA_Z, align 1, keep-with-next
     17          uint8 hardVision[2] = {0x00,0x00};//硬件北版本号
   \                     hardVision:
   \   000000                DS 2
   \   000002                REQUIRE __INIT_XDATA_Z

   \                                 In  segment XDATA_Z, align 1, keep-with-next
     18          uint8 g_u8HeartBeatCount = 0;//心跳包计数
   \                     g_u8HeartBeatCount:
   \   000000                DS 1
   \   000001                REQUIRE __INIT_XDATA_Z
     19          

   \                                 In  segment BANKED_CODE, align 1, keep-with-next
     20          void zclDeviceInfoInit(void)
   \                     zclDeviceInfoInit:
     21          {
   \   000000   C082         PUSH    DPL
   \   000002   C083         PUSH    DPH
   \   000004                ; Saved register size: 2
   \   000004                ; Auto size: 0
     22            gDeviceInfoSendStatus = 0;
   \   000004   90....       MOV     DPTR,#gDeviceInfoSendStatus
   \   000007   E4           CLR     A
   \   000008   F0           MOVX    @DPTR,A
   \   000009   A3           INC     DPTR
   \   00000A   F0           MOVX    @DPTR,A
     23            zclIASZoneMotionIR_Coord_nwkAddr.addrMode = afAddr16Bit;
   \   00000B   90....       MOV     DPTR,#zclIASZoneMotionIR_Coord_nwkAddr + 8
   \   00000E   7402         MOV     A,#0x2
   \   000010   F0           MOVX    @DPTR,A
     24            zclIASZoneMotionIR_Coord_nwkAddr.addr.shortAddr = 0x0000;
   \   000011   90....       MOV     DPTR,#zclIASZoneMotionIR_Coord_nwkAddr
   \   000014   E4           CLR     A
   \   000015   F0           MOVX    @DPTR,A
   \   000016   A3           INC     DPTR
   \   000017   F0           MOVX    @DPTR,A
     25            zclIASZoneMotionIR_Coord_nwkAddr.endPoint = 0xF0;
   \   000018   90....       MOV     DPTR,#zclIASZoneMotionIR_Coord_nwkAddr + 9
   \   00001B   74F0         MOV     A,#-0x10
   \   00001D   F0           MOVX    @DPTR,A
     26          }
   \   00001E   D083         POP     DPH
   \   000020   D082         POP     DPL
   \   000022   02....       LJMP    ?BRET
     27          

   \                                 In  segment BANKED_CODE, align 1, keep-with-next
     28          static void zclActiveEPRsp(void)
   \                     zclActiveEPRsp:
     29          {
   \   000000   74F6         MOV     A,#-0xa
   \   000002   12....       LCALL   ?BANKED_ENTER_XDATA
   \   000005                ; Saved register size: 10
   \   000005                ; Auto size: 73
   \   000005   74B7         MOV     A,#-0x49
   \   000007   12....       LCALL   ?ALLOC_XSTACK8
     30            uint8 pBuf[64];
     31            byte cnt = 0;
     32            zAddrType_t srcAddr;
     33            
     34            srcAddr.addrMode = afAddr16Bit;
   \   00000A   7408         MOV     A,#0x8
   \   00000C   12....       LCALL   ?XSTACK_DISP0_8
   \   00000F   7402         MOV     A,#0x2
   \   000011   F0           MOVX    @DPTR,A
     35            srcAddr.addr.shortAddr = 0x0000;
   \   000012   85..82       MOV     DPL,?XSP + 0
   \   000015   85..83       MOV     DPH,?XSP + 1
   \   000018   E4           CLR     A
   \   000019   F0           MOVX    @DPTR,A
   \   00001A   A3           INC     DPTR
   \   00001B   F0           MOVX    @DPTR,A
     36            
     37            cnt = afNumEndPoints() - 1;
   \   00001C                ; Setup parameters for call to function afNumEndPoints
   \   00001C   12....       LCALL   ??afNumEndPoints?relay
   \   00001F   E9           MOV     A,R1
   \   000020   FE           MOV     R6,A
     38            afEndPoints( (uint8 *)pBuf, true );
   \   000021                ; Setup parameters for call to function afEndPoints
   \   000021   7901         MOV     R1,#0x1
   \   000023   7409         MOV     A,#0x9
   \   000025   12....       LCALL   ?XSTACK_DISP0_8
   \   000028   AA82         MOV     R2,DPL
   \   00002A   AB83         MOV     R3,DPH
   \   00002C   12....       LCALL   ??afEndPoints?relay
     39            ZDP_ActiveEPRsp(0x0, &srcAddr, ZDP_SUCCESS,
     40                            NLME_GetShortAddr(), 
     41                            cnt, (uint8 *)pBuf, 0);
   \   00002F                ; Setup parameters for call to function ZDP_EPRsp
   \   00002F   75..00       MOV     ?V0 + 0,#0x0
   \   000032   78..         MOV     R0,#?V0 + 0
   \   000034   12....       LCALL   ?PUSH_XSTACK_I_ONE
   \   000037   740A         MOV     A,#0xa
   \   000039   12....       LCALL   ?XSTACK_DISP0_8
   \   00003C   8582..       MOV     ?V0 + 0,DPL
   \   00003F   8583..       MOV     ?V0 + 1,DPH
   \   000042   78..         MOV     R0,#?V0 + 0
   \   000044   12....       LCALL   ?PUSH_XSTACK_I_TWO
   \   000047   74FF         MOV     A,#-0x1
   \   000049   2E           ADD     A,R6
   \   00004A   F5..         MOV     ?V0 + 0,A
   \   00004C   78..         MOV     R0,#?V0 + 0
   \   00004E   12....       LCALL   ?PUSH_XSTACK_I_ONE
   \   000051                ; Setup parameters for call to function NLME_GetShortAddr
   \   000051   12....       LCALL   ??NLME_GetShortAddr?relay
   \   000054   8A..         MOV     ?V0 + 0,R2
   \   000056   8B..         MOV     ?V0 + 1,R3
   \   000058   78..         MOV     R0,#?V0 + 0
   \   00005A   12....       LCALL   ?PUSH_XSTACK_I_TWO
   \   00005D   75..00       MOV     ?V0 + 0,#0x0
   \   000060   78..         MOV     R0,#?V0 + 0
   \   000062   12....       LCALL   ?PUSH_XSTACK_I_ONE
   \   000065   7407         MOV     A,#0x7
   \   000067   12....       LCALL   ?XSTACK_DISP0_8
   \   00006A   AC82         MOV     R4,DPL
   \   00006C   AD83         MOV     R5,DPH
   \   00006E   7900         MOV     R1,#0x0
   \   000070   7A05         MOV     R2,#0x5
   \   000072   7B80         MOV     R3,#-0x80
   \   000074   12....       LCALL   ??ZDP_EPRsp?relay
   \   000077   7407         MOV     A,#0x7
   \   000079   12....       LCALL   ?DEALLOC_XSTACK8
     42            gDeviceInfoSendStatus++;
   \   00007C   12....       LCALL   ?Subroutine1 & 0xFFFF
     43            
     44            osal_start_timerEx(ZCL_TASK_ID, 
     45                               ZCL_DEVICE_INFO_SEND_EVENT,
     46                               ZCL_DEVICE_SEND_INFO_TIME_10S);
     47          }
   \                     ??CrossCallReturnLabel_0:
   \   00007F   7449         MOV     A,#0x49
   \   000081                REQUIRE ?Subroutine0
   \   000081                ; // Fall through to label ?Subroutine0

   \                                 In  segment BANKED_CODE, align 1, keep-with-next
   \                     ?Subroutine0:
   \   000000   12....       LCALL   ?DEALLOC_XSTACK8
   \   000003                REQUIRE ??Subroutine4_0
   \   000003                ; // Fall through to label ??Subroutine4_0

   \                                 In  segment BANKED_CODE, align 1, keep-with-next
   \                     ??Subroutine4_0:
   \   000000   7F02         MOV     R7,#0x2
   \   000002   02....       LJMP    ?BANKED_LEAVE_XDATA

   \                                 In  segment BANKED_CODE, align 1, keep-with-next
   \                     ?Subroutine1:
   \   000000   90....       MOV     DPTR,#gDeviceInfoSendStatus
   \   000003   E0           MOVX    A,@DPTR
   \   000004   2401         ADD     A,#0x1
   \   000006   F0           MOVX    @DPTR,A
   \   000007   A3           INC     DPTR
   \   000008   E0           MOVX    A,@DPTR
   \   000009   3400         ADDC    A,#0x0
   \   00000B   F0           MOVX    @DPTR,A
   \   00000C                ; Setup parameters for call to function osal_rand
   \   00000C                ; Setup parameters for call to function osal_rand
   \   00000C   12....       LCALL   ??osal_rand?relay
   \   00000F                ; Setup parameters for call to function osal_start_timerEx
   \   00000F                ; Setup parameters for call to function osal_start_timerEx
   \   00000F   EA           MOV     A,R2
   \   000010   75F014       MOV     B,#0x14
   \   000013   A4           MUL     AB
   \   000014   2410         ADD     A,#0x10
   \   000016   FC           MOV     R4,A
   \   000017   E5F0         MOV     A,B
   \   000019   3427         ADDC    A,#0x27
   \   00001B   FD           MOV     R5,A
   \   00001C   7A00         MOV     R2,#0x0
   \   00001E   7B01         MOV     R3,#0x1
   \   000020   90....       MOV     DPTR,#zclOnOffLight_TaskID
   \   000023   E0           MOVX    A,@DPTR
   \   000024   F9           MOV     R1,A
   \   000025   12....       LCALL   ??osal_start_timerEx?relay
   \   000028   22           RET
     48          

   \                                 In  segment BANKED_CODE, align 1, keep-with-next
     49          static void zclSimpleDescRsp(uint16 endpoint)
   \                     zclSimpleDescRsp:
     50          {
   \   000000   74F2         MOV     A,#-0xe
   \   000002   12....       LCALL   ?BANKED_ENTER_XDATA
   \   000005                ; Saved register size: 14
   \   000005                ; Auto size: 0
   \   000005   8A..         MOV     ?V0 + 2,R2
     51            zdoIncomingMsg_t *imMsg;
     52            uint16 nwkAddr = 0;
     53            
     54            nwkAddr = NLME_GetShortAddr();
   \   000007                ; Setup parameters for call to function NLME_GetShortAddr
   \   000007   12....       LCALL   ??NLME_GetShortAddr?relay
   \   00000A   8A..         MOV     ?V0 + 0,R2
   \   00000C   8B..         MOV     ?V0 + 1,R3
     55            
     56            imMsg = (zdoIncomingMsg_t *)osal_msg_allocate( sizeof( zdoIncomingMsg_t ) + 3 );
   \   00000E                ; Setup parameters for call to function osal_msg_allocate
   \   00000E   7A18         MOV     R2,#0x18
   \   000010   7B00         MOV     R3,#0x0
   \   000012   12....       LCALL   ??osal_msg_allocate?relay
   \   000015   8A..         MOV     ?V0 + 4,R2
   \   000017   8B..         MOV     ?V0 + 5,R3
   \   000019   AE..         MOV     R6,?V0 + 4
   \   00001B   AF..         MOV     R7,?V0 + 5
     57            imMsg->srcAddr.addrMode = afAddr16Bit;
   \   00001D   8E82         MOV     DPL,R6
   \   00001F   8F83         MOV     DPH,R7
   \   000021   A3           INC     DPTR
   \   000022   A3           INC     DPTR
   \   000023   A3           INC     DPTR
   \   000024   A3           INC     DPTR
   \   000025   A3           INC     DPTR
   \   000026   A3           INC     DPTR
   \   000027   A3           INC     DPTR
   \   000028   A3           INC     DPTR
   \   000029   A3           INC     DPTR
   \   00002A   A3           INC     DPTR
   \   00002B   7402         MOV     A,#0x2
   \   00002D   F0           MOVX    @DPTR,A
     58            imMsg->srcAddr.addr.shortAddr = 0x0000;
   \   00002E   8E82         MOV     DPL,R6
   \   000030   8F83         MOV     DPH,R7
   \   000032   A3           INC     DPTR
   \   000033   A3           INC     DPTR
   \   000034   E4           CLR     A
   \   000035   F0           MOVX    @DPTR,A
   \   000036   A3           INC     DPTR
   \   000037   F0           MOVX    @DPTR,A
     59            imMsg->TransSeq = (uint8)0x00;
   \   000038   EE           MOV     A,R6
   \   000039   240F         ADD     A,#0xf
   \   00003B   F582         MOV     DPL,A
   \   00003D   EF           MOV     A,R7
   \   00003E   3400         ADDC    A,#0x0
   \   000040   F583         MOV     DPH,A
   \   000042   E4           CLR     A
   \   000043   F0           MOVX    @DPTR,A
     60            imMsg->asdu = (byte*)(((byte*)imMsg) + sizeof( zdoIncomingMsg_t ));
   \   000044   EE           MOV     A,R6
   \   000045   2415         ADD     A,#0x15
   \   000047   F8           MOV     R0,A
   \   000048   EF           MOV     A,R7
   \   000049   3400         ADDC    A,#0x0
   \   00004B   F9           MOV     R1,A
   \   00004C   EE           MOV     A,R6
   \   00004D   2413         ADD     A,#0x13
   \   00004F   FA           MOV     R2,A
   \   000050   EF           MOV     A,R7
   \   000051   3400         ADDC    A,#0x0
   \   000053   FB           MOV     R3,A
   \   000054   8A82         MOV     DPL,R2
   \   000056   8B83         MOV     DPH,R3
   \   000058   E8           MOV     A,R0
   \   000059   F0           MOVX    @DPTR,A
   \   00005A   A3           INC     DPTR
   \   00005B   E9           MOV     A,R1
   \   00005C   F0           MOVX    @DPTR,A
     61            imMsg->asdu[0] = LO_UINT16( nwkAddr );
   \   00005D   8882         MOV     DPL,R0
   \   00005F   8983         MOV     DPH,R1
   \   000061   E5..         MOV     A,?V0 + 0
   \   000063   F0           MOVX    @DPTR,A
     62            imMsg->asdu[1] = HI_UINT16( nwkAddr );
   \   000064   E5..         MOV     A,?V0 + 1
   \   000066   F5..         MOV     ?V0 + 0,A
   \   000068   12....       LCALL   ?Subroutine3 & 0xFFFF
   \                     ??CrossCallReturnLabel_4:
   \   00006B   E5..         MOV     A,?V0 + 0
   \   00006D   F0           MOVX    @DPTR,A
     63            imMsg->asdu[2] = endpoint;
   \   00006E   12....       LCALL   ?Subroutine3 & 0xFFFF
   \                     ??CrossCallReturnLabel_5:
   \   000071   A3           INC     DPTR
   \   000072   E5..         MOV     A,?V0 + 2
   \   000074   F0           MOVX    @DPTR,A
     64              
     65            ZDO_ProcessSimpleDescReq(imMsg);
   \   000075                ; Setup parameters for call to function ZDO_ProcessSimpleDescReq
   \   000075   EE           MOV     A,R6
   \   000076   FA           MOV     R2,A
   \   000077   EF           MOV     A,R7
   \   000078   FB           MOV     R3,A
   \   000079   12....       LCALL   ??ZDO_ProcessSimpleDescReq?relay
     66            osal_msg_deallocate((uint8 *)imMsg);
   \   00007C                ; Setup parameters for call to function osal_msg_deallocate
   \   00007C   EE           MOV     A,R6
   \   00007D   FA           MOV     R2,A
   \   00007E   EF           MOV     A,R7
   \   00007F   FB           MOV     R3,A
   \   000080   12....       LCALL   ??osal_msg_deallocate?relay
     67            
     68            gDeviceInfoSendStatus++;
   \   000083   12....       LCALL   ?Subroutine1 & 0xFFFF
     69            osal_start_timerEx(ZCL_TASK_ID, 
     70                               ZCL_DEVICE_INFO_SEND_EVENT,
     71                               ZCL_DEVICE_SEND_INFO_TIME_10S);
     72          }
   \                     ??CrossCallReturnLabel_1:
   \   000086   7F06         MOV     R7,#0x6
   \   000088   02....       LJMP    ?BANKED_LEAVE_XDATA

   \                                 In  segment BANKED_CODE, align 1, keep-with-next
   \                     ?Subroutine3:
   \   000000   8A82         MOV     DPL,R2
   \   000002   8B83         MOV     DPH,R3
   \   000004   E0           MOVX    A,@DPTR
   \   000005   F8           MOV     R0,A
   \   000006   A3           INC     DPTR
   \   000007   E0           MOVX    A,@DPTR
   \   000008   F583         MOV     DPH,A
   \   00000A   8882         MOV     DPL,R0
   \   00000C   A3           INC     DPTR
   \   00000D   22           RET
     73          

   \                                 In  segment XDATA_I, align 1, keep-with-next
     74          static endPointDesc_t zclHeartbeatDesc = {
   \                     zclHeartbeatDesc:
   \   000000                DS 6
   \   000006                REQUIRE `?<Initializer for zclHeartbeatDesc>`
   \   000006                REQUIRE __INIT_XDATA_I
     75            ZCL_HEARTBEAT_ENDPOINT,
     76            &ZCL_TASK_ID,
     77            (SimpleDescriptionFormat_t *)&zclOnOffLight0_SimpleDesc,
     78            (afNetworkLatencyReq_t)0
     79          };
     80          

   \                                 In  segment XDATA_Z, align 1, keep-with-next
     81          static uint8 zclHeartbeatCounter = 0;
   \                     zclHeartbeatCounter:
   \   000000                DS 1
   \   000001                REQUIRE __INIT_XDATA_Z
     82          

   \                                 In  segment BANKED_CODE, align 1, keep-with-next
     83          afStatus_t zclSendHeartbeat(void)
   \                     zclSendHeartbeat:
     84          {
   \   000000   74F6         MOV     A,#-0xa
   \   000002   12....       LCALL   ?BANKED_ENTER_XDATA
   \   000005                ; Saved register size: 10
   \   000005                ; Auto size: 6
   \   000005   74FA         MOV     A,#-0x6
   \   000007   12....       LCALL   ?ALLOC_XSTACK8
     85            afStatus_t stat;
     86            uint8 SendDataBuf[6]={0,0,0,0,0,0};
   \   00000A   85..82       MOV     DPL,?XSP + 0
   \   00000D   85..83       MOV     DPH,?XSP + 1
   \   000010   AC82         MOV     R4,DPL
   \   000012   AD83         MOV     R5,DPH
   \   000014   7583..       MOV     DPH,#(`?<Constant {0, 0, 0, 0, 0, 0}>` >> 8) & 0xff
   \   000017   7582..       MOV     DPL,#`?<Constant {0, 0, 0, 0, 0, 0}>` & 0xff
   \   00001A   7406         MOV     A,#0x6
   \   00001C   12....       LCALL   ?MOVE_LONG8_XDATA_XDATA
     87            
     88            SendDataBuf[0] = 0xFF;
   \   00001F   85..82       MOV     DPL,?XSP + 0
   \   000022   85..83       MOV     DPH,?XSP + 1
   \   000025   74FF         MOV     A,#-0x1
   \   000027   F0           MOVX    @DPTR,A
     89            SendDataBuf[1] = softeVision[0];
   \   000028   90....       MOV     DPTR,#softeVision
   \   00002B   E0           MOVX    A,@DPTR
   \   00002C   C0E0         PUSH    A
   \   00002E   7401         MOV     A,#0x1
   \   000030   12....       LCALL   ?XSTACK_DISP0_8
   \   000033   D0E0         POP     A
   \   000035   F0           MOVX    @DPTR,A
     90            SendDataBuf[2] = softeVision[1];
   \   000036   90....       MOV     DPTR,#softeVision + 1
   \   000039   E0           MOVX    A,@DPTR
   \   00003A   C0E0         PUSH    A
   \   00003C   7402         MOV     A,#0x2
   \   00003E   12....       LCALL   ?XSTACK_DISP0_8
   \   000041   D0E0         POP     A
   \   000043   F0           MOVX    @DPTR,A
     91            SendDataBuf[3] = softeVision[2];
   \   000044   90....       MOV     DPTR,#softeVision + 2
   \   000047   E0           MOVX    A,@DPTR
   \   000048   C0E0         PUSH    A
   \   00004A   7403         MOV     A,#0x3
   \   00004C   12....       LCALL   ?XSTACK_DISP0_8
   \   00004F   D0E0         POP     A
   \   000051   F0           MOVX    @DPTR,A
     92            SendDataBuf[4] = hardVision[0];
   \   000052   90....       MOV     DPTR,#hardVision
   \   000055   E0           MOVX    A,@DPTR
   \   000056   C0E0         PUSH    A
   \   000058   7404         MOV     A,#0x4
   \   00005A   12....       LCALL   ?XSTACK_DISP0_8
   \   00005D   D0E0         POP     A
   \   00005F   F0           MOVX    @DPTR,A
     93            SendDataBuf[5] = hardVision[1];
   \   000060   90....       MOV     DPTR,#hardVision + 1
   \   000063   E0           MOVX    A,@DPTR
   \   000064   C0E0         PUSH    A
   \   000066   7405         MOV     A,#0x5
   \   000068   12....       LCALL   ?XSTACK_DISP0_8
   \   00006B   D0E0         POP     A
   \   00006D   F0           MOVX    @DPTR,A
     94            
     95            g_u8HeartBeatCount++;
   \   00006E   90....       MOV     DPTR,#g_u8HeartBeatCount
   \   000071   E0           MOVX    A,@DPTR
   \   000072   04           INC     A
   \   000073   F0           MOVX    @DPTR,A
     96            if(g_u8HeartBeatCount >= 2)
   \   000074   C3           CLR     C
   \   000075   9402         SUBB    A,#0x2
   \   000077   404F         JC      ??zclSendHeartbeat_0
     97            {
     98              g_u8HeartBeatCount= 0;
   \   000079   E4           CLR     A
   \   00007A   F0           MOVX    @DPTR,A
     99              stat = AF_DataRequest(&zclIASZoneMotionIR_Coord_nwkAddr, 
    100                                    &zclHeartbeatDesc,
    101                                    ZCL_HEARTBEAT_CLUSTERID,
    102                                    sizeof(SendDataBuf),
    103                                    SendDataBuf,
    104                                    (uint8 *)&zclHeartbeatCounter,
    105                                    0,
    106                                    AF_DEFAULT_RADIUS);
   \   00007B                ; Setup parameters for call to function AF_DataRequest
   \   00007B   75..1E       MOV     ?V0 + 0,#0x1e
   \   00007E   78..         MOV     R0,#?V0 + 0
   \   000080   12....       LCALL   ?PUSH_XSTACK_I_ONE
   \   000083   75....       MOV     ?V0 + 0,#zclHeartbeatCounter & 0xff
   \   000086   75....       MOV     ?V0 + 1,#(zclHeartbeatCounter >> 8) & 0xff
   \   000089   78..         MOV     R0,#?V0 + 0
   \   00008B   12....       LCALL   ?PUSH_XSTACK_I_TWO
   \   00008E   7403         MOV     A,#0x3
   \   000090   12....       LCALL   ?XSTACK_DISP0_8
   \   000093   8582..       MOV     ?V0 + 0,DPL
   \   000096   8583..       MOV     ?V0 + 1,DPH
   \   000099   78..         MOV     R0,#?V0 + 0
   \   00009B   12....       LCALL   ?PUSH_XSTACK_I_TWO
   \   00009E   75..06       MOV     ?V0 + 0,#0x6
   \   0000A1   75..00       MOV     ?V0 + 1,#0x0
   \   0000A4   78..         MOV     R0,#?V0 + 0
   \   0000A6   12....       LCALL   ?PUSH_XSTACK_I_TWO
   \   0000A9   75..00       MOV     ?V0 + 0,#0x0
   \   0000AC   75..FF       MOV     ?V0 + 1,#-0x1
   \   0000AF   78..         MOV     R0,#?V0 + 0
   \   0000B1   12....       LCALL   ?PUSH_XSTACK_I_TWO
   \   0000B4   7900         MOV     R1,#0x0
   \   0000B6   7C..         MOV     R4,#zclHeartbeatDesc & 0xff
   \   0000B8   7D..         MOV     R5,#(zclHeartbeatDesc >> 8) & 0xff
   \   0000BA   7A..         MOV     R2,#zclIASZoneMotionIR_Coord_nwkAddr & 0xff
   \   0000BC   7B..         MOV     R3,#(zclIASZoneMotionIR_Coord_nwkAddr >> 8) & 0xff
   \   0000BE   12....       LCALL   ??AF_DataRequest?relay
   \   0000C1   7409         MOV     A,#0x9
   \   0000C3   12....       LCALL   ?DEALLOC_XSTACK8
   \   0000C6   E9           MOV     A,R1
   \   0000C7   FE           MOV     R6,A
    107            }
    108            
    109            osal_start_timerEx(ZCL_TASK_ID, 
    110                               ZCL_DEVICE_HEARTBEAT_EVENT,
    111                               ZCL_HEARTBEAT_PERIOD);
   \                     ??zclSendHeartbeat_0:
   \   0000C8                ; Setup parameters for call to function osal_rand
   \   0000C8   12....       LCALL   ?Subroutine2 & 0xFFFF
    112            return stat;
   \                     ??CrossCallReturnLabel_2:
   \   0000CB   EE           MOV     A,R6
   \   0000CC   F9           MOV     R1,A
   \   0000CD   7406         MOV     A,#0x6
   \   0000CF   02....       LJMP    ?Subroutine0 & 0xFFFF
    113            
    114          }

   \                                 In  segment BANKED_CODE, align 1, keep-with-next
   \                     ?Subroutine2:
   \   000000   12....       LCALL   ??osal_rand?relay
   \   000003                ; Setup parameters for call to function osal_start_timerEx
   \   000003                ; Setup parameters for call to function osal_start_timerEx
   \   000003   EA           MOV     A,R2
   \   000004   75F0C8       MOV     B,#-0x38
   \   000007   A4           MUL     AB
   \   000008   2460         ADD     A,#0x60
   \   00000A   FC           MOV     R4,A
   \   00000B   E5F0         MOV     A,B
   \   00000D   34EA         ADDC    A,#-0x16
   \   00000F   FD           MOV     R5,A
   \   000010   7A00         MOV     R2,#0x0
   \   000012   7B02         MOV     R3,#0x2
   \   000014   90....       MOV     DPTR,#zclOnOffLight_TaskID
   \   000017   E0           MOVX    A,@DPTR
   \   000018   F9           MOV     R1,A
   \   000019   12....       LCALL   ??osal_start_timerEx?relay
   \   00001C   22           RET
    115          

   \                                 In  segment BANKED_CODE, align 1, keep-with-next
    116          void zclSendDeviceInfo(void)
   \                     zclSendDeviceInfo:
    117          {
   \   000000   74F6         MOV     A,#-0xa
   \   000002   12....       LCALL   ?BANKED_ENTER_XDATA
   \   000005                ; Saved register size: 10
   \   000005                ; Auto size: 0
    118            switch (gDeviceInfoSendStatus)
   \   000005   90....       MOV     DPTR,#gDeviceInfoSendStatus
   \   000008   E0           MOVX    A,@DPTR
   \   000009   F5..         MOV     ?V0 + 0,A
   \   00000B   A3           INC     DPTR
   \   00000C   E0           MOVX    A,@DPTR
   \   00000D   F5..         MOV     ?V0 + 1,A
   \   00000F   78..         MOV     R0,#?V0 + 0
   \   000011   12....       LCALL   ?US_SWITCH_DENSE
   \                     `?<Jumptable for zclSendDeviceInfo>_0`:
   \   000014   0000         DW        0
   \   000016   02           DB        2
   \   000017   ....         DW        ??zclSendDeviceInfo_0
   \   000019   ....         DW        ??zclSendDeviceInfo_1
   \   00001B   ....         DW        ??zclSendDeviceInfo_2
   \   00001D   ....         DW        ??zclSendDeviceInfo_3
    119            {
    120            case 0:
    121              zclActiveEPRsp();
   \                     ??zclSendDeviceInfo_1:
   \   00001F                ; Setup parameters for call to function zclActiveEPRsp
   \   00001F   12....       LCALL   ??zclActiveEPRsp?relay
    122              break;
   \   000022   8028         SJMP    ??CrossCallReturnLabel_3
    123            case 1:
    124              zclSimpleDescRsp(ONOFFLIGHT0_ENDPOINT);
   \                     ??zclSendDeviceInfo_2:
   \   000024                ; Setup parameters for call to function zclSimpleDescRsp
   \   000024   7A10         MOV     R2,#0x10
   \   000026   7B00         MOV     R3,#0x0
   \   000028   12....       LCALL   ??zclSimpleDescRsp?relay
    125              break;
   \   00002B   801F         SJMP    ??CrossCallReturnLabel_3
    126            case 2:
    127              zclSimpleDescRsp(ONOFFLIGHT1_ENDPOINT);
   \                     ??zclSendDeviceInfo_3:
   \   00002D                ; Setup parameters for call to function zclSimpleDescRsp
   \   00002D   7A11         MOV     R2,#0x11
   \   00002F   7B00         MOV     R3,#0x0
   \   000031   12....       LCALL   ??zclSimpleDescRsp?relay
    128              abno_led = 0;
   \   000034   90....       MOV     DPTR,#abno_led
   \   000037   E4           CLR     A
   \   000038   F0           MOVX    @DPTR,A
    129              LED_RED_OFF();
   \   000039   C297         CLR     0x90.7
    130              ledcontrol = 1;
   \   00003B   90....       MOV     DPTR,#ledcontrol
   \   00003E   04           INC     A
   \   00003F   F0           MOVX    @DPTR,A
    131              break;
   \   000040   800A         SJMP    ??CrossCallReturnLabel_3
    132            default:
    133              gDeviceInfoSendStatus = 0;
   \                     ??zclSendDeviceInfo_0:
   \   000042   90....       MOV     DPTR,#gDeviceInfoSendStatus
   \   000045   E4           CLR     A
   \   000046   F0           MOVX    @DPTR,A
   \   000047   A3           INC     DPTR
   \   000048   F0           MOVX    @DPTR,A
    134              osal_start_timerEx(ZCL_TASK_ID, 
    135                               ZCL_DEVICE_HEARTBEAT_EVENT,
    136                               ZCL_HEARTBEAT_PERIOD);
   \   000049                ; Setup parameters for call to function osal_rand
   \   000049   12....       LCALL   ?Subroutine2 & 0xFFFF
    137              break;
    138            }
    139          }
   \                     ??CrossCallReturnLabel_3:
   \   00004C   02....       LJMP    ??Subroutine4_0 & 0xFFFF
   \   00004F                REQUIRE _A_P1
    140          

   \                                 In  segment BANKED_CODE, align 1, keep-with-next
    141          void zclFactoryReset(uint8 DataCleanFlag)
   \                     zclFactoryReset:
    142          {
   \   000000   74F7         MOV     A,#-0x9
   \   000002   12....       LCALL   ?BANKED_ENTER_XDATA
   \   000005                ; Saved register size: 9
   \   000005                ; Auto size: 0
   \   000005   E9           MOV     A,R1
   \   000006   FE           MOV     R6,A
    143            static uint8 hasDoReset = 0;
    144            if (hasDoReset)
   \   000007   90....       MOV     DPTR,#??hasDoReset
   \   00000A   E0           MOVX    A,@DPTR
   \   00000B   7010         JNZ     ??zclFactoryReset_0
    145              return;
    146            
    147            hasDoReset = 1;
   \   00000D   7401         MOV     A,#0x1
   \   00000F   F0           MOVX    @DPTR,A
    148            if(DataCleanFlag)
   \   000010   EE           MOV     A,R6
   \   000011   6007         JZ      ??zclFactoryReset_1
    149            {
    150              zgWriteStartupOptions(ZG_STARTUP_SET, ZCD_STARTOPT_DEFAULT_NETWORK_STATE);
   \   000013                ; Setup parameters for call to function zgWriteStartupOptions
   \   000013   7A02         MOV     R2,#0x2
   \   000015   79FF         MOV     R1,#-0x1
   \   000017   12....       LCALL   ??zgWriteStartupOptions?relay
    151            }
    152            SystemResetSoft();
   \                     ??zclFactoryReset_1:
   \   00001A                ; Setup parameters for call to function Onboard_soft_reset
   \   00001A   12....       LCALL   Onboard_soft_reset & 0xFFFF
    153          }
   \                     ??zclFactoryReset_0:
   \   00001D   7F01         MOV     R7,#0x1
   \   00001F   02....       LJMP    ?BANKED_LEAVE_XDATA

   \                                 In  segment XDATA_Z, align 1, keep-with-next
   \                     ??hasDoReset:
   \   000000                DS 1
   \   000001                REQUIRE __INIT_XDATA_Z

   \                                 In  segment XDATA_ID, align 1, keep-with-next
   \                     `?<Initializer for softeVision>`:
   \   000000   01           DB 1
   \   000001   09           DB 9
   \   000002   00           DB 0

   \                                 In  segment XDATA_ID, align 1, keep-with-next
   \                     `?<Initializer for zclHeartbeatDesc>`:
   \   000000   EF           DB 239
   \   000001   ....         DW zclOnOffLight_TaskID
   \   000003   ....         DW zclOnOffLight0_SimpleDesc
   \   000005   00           DB 0

   \                                 In  segment BANK_RELAYS, align 1
   \                     ??zclDeviceInfoInit?relay:
   \   000000   12....       LCALL   ?BDISPATCH
   \   000003   ......       DC24    zclDeviceInfoInit

   \                                 In  segment BANK_RELAYS, align 1
   \                     ??zclActiveEPRsp?relay:
   \   000000   12....       LCALL   ?BDISPATCH
   \   000003   ......       DC24    zclActiveEPRsp

   \                                 In  segment BANK_RELAYS, align 1
   \                     ??zclSimpleDescRsp?relay:
   \   000000   12....       LCALL   ?BDISPATCH
   \   000003   ......       DC24    zclSimpleDescRsp

   \                                 In  segment BANK_RELAYS, align 1
   \                     ??zclSendHeartbeat?relay:
   \   000000   12....       LCALL   ?BDISPATCH
   \   000003   ......       DC24    zclSendHeartbeat

   \                                 In  segment BANK_RELAYS, align 1
   \                     ??zclSendDeviceInfo?relay:
   \   000000   12....       LCALL   ?BDISPATCH
   \   000003   ......       DC24    zclSendDeviceInfo

   \                                 In  segment BANK_RELAYS, align 1
   \                     ??zclFactoryReset?relay:
   \   000000   12....       LCALL   ?BDISPATCH
   \   000003   ......       DC24    zclFactoryReset

   \                                 In  segment XDATA_ROM_C, align 1
   \                     `?<Constant {0, 0, 0, 0, 0, 0}>`:
   \   000000   00           DB 0
   \   000001   00           DB 0
   \   000002   00           DB 0
   \   000003   00           DB 0
   \   000004   00           DB 0
   \   000005   00           DB 0

   Maximum stack usage in bytes:

     Function                      ISTACK PSTACK XSTACK
     --------                      ------ ------ ------
     zclActiveEPRsp                    0      0    100
       -> afNumEndPoints               0      0    166
       -> afEndPoints                  0      0    166
       -> NLME_GetShortAddr            0      0    174
       -> ZDP_EPRsp                    0      0    180
       -> osal_rand                    0      0    166
       -> osal_start_timerEx           0      0    166
     zclDeviceInfoInit                 2      0      0
     zclFactoryReset                   0      0      9
       -> zgWriteStartupOptions        0      0     18
       -> Onboard_soft_reset           0      0     18
     zclSendDeviceInfo                 0      0     10
       -> zclActiveEPRsp               0      0     20
       -> zclSimpleDescRsp             0      0     20
       -> zclSimpleDescRsp             0      0     20
       -> osal_rand                    0      0     20
       -> osal_start_timerEx           0      0     20
     zclSendHeartbeat                  2      0     25
       -> AF_DataRequest               0      0     50
       -> osal_rand                    0      0     32
       -> osal_start_timerEx           0      0     32
     zclSimpleDescRsp                  1      0     24
       -> NLME_GetShortAddr            0      0     28
       -> osal_msg_allocate            0      0     28
       -> ZDO_ProcessSimpleDescReq     0      0     28
       -> osal_msg_deallocate          0      0     28
       -> osal_rand                    0      0     28
       -> osal_start_timerEx           0      0     28


   Segment part sizes:

     Function/Label                      Bytes
     --------------                      -----
     _A_P1                                  1
     zclIASZoneMotionIR_Coord_nwkAddr
                                           12
     gDeviceInfoSendStatus                  2
     softeVision                            3
     hardVision                             2
     g_u8HeartBeatCount                     1
     zclDeviceInfoInit                     37
     zclActiveEPRsp                       129
     ?Subroutine0                           3
     ??Subroutine4_0                        5
     ?Subroutine1                          41
     zclSimpleDescRsp                     139
     ?Subroutine3                          14
     zclHeartbeatDesc                       6
     zclHeartbeatCounter                    1
     zclSendHeartbeat                     210
     ?Subroutine2                          29
     zclSendDeviceInfo                     79
     zclFactoryReset                       34
     hasDoReset                             1
     ?<Initializer for softeVision>         3
     ?<Initializer for zclHeartbeatDesc>    6
     ??zclDeviceInfoInit?relay              6
     ??zclActiveEPRsp?relay                 6
     ??zclSimpleDescRsp?relay               6
     ??zclSendHeartbeat?relay               6
     ??zclSendDeviceInfo?relay              6
     ??zclFactoryReset?relay                6
     ?<Constant {0, 0, 0, 0, 0, 0}>         6

 
 720 bytes in segment BANKED_CODE
  36 bytes in segment BANK_RELAYS
   1 byte  in segment SFR_AN
   9 bytes in segment XDATA_I
   9 bytes in segment XDATA_ID
   6 bytes in segment XDATA_ROM_C
  19 bytes in segment XDATA_Z
 
 765 bytes of CODE  memory
   6 bytes of CONST memory
   0 bytes of DATA  memory (+ 1 byte shared)
  28 bytes of XDATA memory

Errors: none
Warnings: none
