Archive member included because of file (symbol)

e:/NXP/bstudio_nxp/sdk/JN-SW-4170/Components/Library\libZPSMAC_Mini_JN516x.a(zps_mac_shim.o)
                              e:/NXP/Sensor/WL_DoorLock/Build/zcl_readAttributesRequestHandle.o (symbol from plugin) (ZPS_u16MacPibGetCoordShortAddress)
e:/NXP/bstudio_nxp/sdk/JN-SW-4170/Components/Library\libZPSMAC_Mini_JN516x.a(zps_miniMac.o)
                              zps_mac_shim.o (symbol from plugin) (ZPS_eMiniMacSetTxBuffers)
e:/NXP/bstudio_nxp/sdk/JN-SW-4170/Components/Library\libPWRM_JN516x.a(pwrm.o)
                              e:/NXP/Sensor/WL_DoorLock/Build/app_start_sensor.o (symbol from plugin) (PWRM_vInit)
e:/NXP/bstudio_nxp/sdk/JN-SW-4170/Components/Library\libPWRM_JN516x.a(pwrm_setjmp_JN516x.o)
                              pwrm.o (symbol from plugin) (setjmp)
e:/NXP/bstudio_nxp/sdk/JN-SW-4170/Components/Library\libPWRM_JN516x.a(pwrm_cold_start.o)
                              (AppColdStart)
e:/NXP/bstudio_nxp/sdk/JN-SW-4170/Components/Library\libPWRM_JN516x.a(pwrm_warm_start.o)
                              (AppWarmStart)
e:/NXP/bstudio_nxp/sdk/JN-SW-4170/Components/Library\libAES_SW_JN516x.a(aes_sw_mmo.o)
                              e:/NXP/Sensor/WL_DoorLock/Build/OTA.o (symbol from plugin) (AESSW_vMMOBlockUpdate)
e:/NXP/bstudio_nxp/sdk/JN-SW-4170/Components/Library\libPDUM_JN516x.a(pdum_nwk.o)
                              zps_miniMac.o (symbol from plugin) (PDUM_eNPduAllocate)
e:/NXP/bstudio_nxp/sdk/JN-SW-4170/Components/Library\libPDUM_JN516x.a(pdum_apl.o)
                              e:/NXP/Sensor/WL_DoorLock/Build/app_ota_client.o (symbol from plugin) (PDUM_u16APduInstanceReadNBO)
e:/NXP/bstudio_nxp/sdk/JN-SW-4170/Components/Library\libPDUM_JN516x.a(pdum.o)
                              pdum_nwk.o (symbol from plugin) (PDUM_u16SizeNBO)
e:/NXP/bstudio_nxp/sdk/JN-SW-4170/Components/Library\libZPSAPL_JN516x.a(zps_apl_version_lc.o)
                              e:/NXP/Sensor/WL_DoorLock/Build/zps_gen.o (ZPS_APL_Version_3v0)
e:/NXP/bstudio_nxp/sdk/JN-SW-4170/Components/Library\libZPSAPL_JN516x.a(zps_apl_af.o)
                              e:/NXP/Sensor/WL_DoorLock/Build/app_zlo_sensor_node.o (symbol from plugin) (ZPS_eAplAfInit)
e:/NXP/bstudio_nxp/sdk/JN-SW-4170/Components/Library\libZPSAPL_JN516x.a(zps_apl_af_apsde.o)
                              e:/NXP/Sensor/WL_DoorLock/Build/zps_gen.o (zps_vHandleApsdeDataFragIndNotSupported)
e:/NXP/bstudio_nxp/sdk/JN-SW-4170/Components/Library\libZPSAPL_JN516x.a(zps_apl_task.o)
                              zps_apl_af_apsde.o (symbol from plugin) (zps_vAplAfPostEvent)
e:/NXP/bstudio_nxp/sdk/JN-SW-4170/Components/Library\libZPSAPL_JN516x.a(zps_apl_apsde.o)
                              zps_apl_task.o (symbol from plugin) (ZPS_vAplRegisterApsdeDcfmIndCallbacks)
e:/NXP/bstudio_nxp/sdk/JN-SW-4170/Components/Library\libZPSAPL_JN516x.a(zps_apl_apsme.o)
                              zps_apl_task.o (symbol from plugin) (ZPS_vAplRegisterApsmeDcfmIndCallbacks)
e:/NXP/bstudio_nxp/sdk/JN-SW-4170/Components/Library\libZPSAPL_JN516x.a(zps_apl_aps_nlde.o)
                              zps_apl_task.o (symbol from plugin) (zps_vAplApsHandleNldeDcfmInd)
e:/NXP/bstudio_nxp/sdk/JN-SW-4170/Components/Library\libZPSAPL_JN516x.a(zps_apl_sec.o)
                              zps_apl_apsme.o (symbol from plugin) (zps_vGenerateHashForVerifiedKey)
e:/NXP/bstudio_nxp/sdk/JN-SW-4170/Components/Library\libZPSAPL_JN516x.a(zps_apl_aib.o)
                              e:/NXP/Sensor/WL_DoorLock/Build/app_zcl_sensor_task.o (symbol from plugin) (zps_psAplAibGetAib)
e:/NXP/bstudio_nxp/sdk/JN-SW-4170/Components/Library\libZPSAPL_JN516x.a(zps_apl_zdo_nwkmanager.o)
                              zps_apl_apsme.o (symbol from plugin) (zps_vAplSaveRecord)
e:/NXP/bstudio_nxp/sdk/JN-SW-4170/Components/Library\libZPSAPL_JN516x.a(zps_apl_zdo_handle_zdp_event.o)
                              zps_apl_task.o (symbol from plugin) (zps_bAplZdoHandleZdpEvent)
e:/NXP/bstudio_nxp/sdk/JN-SW-4170/Components/Library\libZPSAPL_JN516x.a(zps_apl_zdo_trust_center.o)
                              zps_apl_aps_nlde.o (symbol from plugin) (zps_eAplTrustCenterFindDevice)
e:/NXP/bstudio_nxp/sdk/JN-SW-4170/Components/Library\libZPSAPL_JN516x.a(zps_apl_zdo_common.o)
                              zps_apl_zdo_nwkmanager.o (symbol from plugin) (zps_eAplZdoNlmeleaveWrapper)
e:/NXP/bstudio_nxp/sdk/JN-SW-4170/Components/Library\libZPSAPL_JN516x.a(zps_apl_zdo_group.o)
                              e:/NXP/Sensor/WL_DoorLock/Build/GroupsTableManager.o (symbol from plugin) (zps_eAplZdoGroupEndpointAdd)
e:/NXP/bstudio_nxp/sdk/JN-SW-4170/Components/Library\libZPSAPL_JN516x.a(zps_apl_zdo_default_server.o)
                              e:/NXP/Sensor/WL_DoorLock/Build/zps_gen.o (zps_vAplZdoDefaultServerInit)
e:/NXP/bstudio_nxp/sdk/JN-SW-4170/Components/Library\libZPSAPL_JN516x.a(zps_apl_zdo_bind_manager.o)
                              e:/NXP/Sensor/WL_DoorLock/Build/bdb_fb_initiator.o (symbol from plugin) (zps_eAplZdoBind)
e:/NXP/bstudio_nxp/sdk/JN-SW-4170/Components/Library\libZPSAPL_JN516x.a(zps_apl_mac_isr.o)
                              zps_apl_zdo_nwkmanager.o (symbol from plugin) (zps_vAplAfIsrInit)
e:/NXP/bstudio_nxp/sdk/JN-SW-4170/Components/Library\libZPSAPL_JN516x.a(zps_apl_zdo_nwk_addr_server.o)
                              e:/NXP/Sensor/WL_DoorLock/Build/zps_gen.o (zps_vAplZdoNwkAddrServerInit)
e:/NXP/bstudio_nxp/sdk/JN-SW-4170/Components/Library\libZPSAPL_JN516x.a(zps_apl_zdo_ieee_addr_server.o)
                              e:/NXP/Sensor/WL_DoorLock/Build/zps_gen.o (zps_vAplZdoIeeeAddrServerInit)
e:/NXP/bstudio_nxp/sdk/JN-SW-4170/Components/Library\libZPSAPL_JN516x.a(zps_apl_zdo_match_desc_server.o)
                              e:/NXP/Sensor/WL_DoorLock/Build/zps_gen.o (zps_vAplZdoMatchDescServerInit)
e:/NXP/bstudio_nxp/sdk/JN-SW-4170/Components/Library\libZPSAPL_JN516x.a(zps_apl_zdo_node_desc_server.o)
                              e:/NXP/Sensor/WL_DoorLock/Build/zps_gen.o (zps_vAplZdoNodeDescServerInit)
e:/NXP/bstudio_nxp/sdk/JN-SW-4170/Components/Library\libZPSAPL_JN516x.a(zps_apl_zdo_simple_desc_server.o)
                              e:/NXP/Sensor/WL_DoorLock/Build/zps_gen.o (zps_vAplZdoSimpleDescServerInit)
e:/NXP/bstudio_nxp/sdk/JN-SW-4170/Components/Library\libZPSAPL_JN516x.a(zps_apl_zdo_power_desc_server.o)
                              e:/NXP/Sensor/WL_DoorLock/Build/zps_gen.o (zps_vAplZdoPowerDescServerInit)
e:/NXP/bstudio_nxp/sdk/JN-SW-4170/Components/Library\libZPSAPL_JN516x.a(zps_apl_zdo_active_ep_server.o)
                              e:/NXP/Sensor/WL_DoorLock/Build/zps_gen.o (zps_vAplZdoActiveEpServerInit)
e:/NXP/bstudio_nxp/sdk/JN-SW-4170/Components/Library\libZPSAPL_JN516x.a(zps_apl_zdo_device_annce_server.o)
                              e:/NXP/Sensor/WL_DoorLock/Build/zps_gen.o (zps_vAplZdoDeviceAnnceServerInit)
e:/NXP/bstudio_nxp/sdk/JN-SW-4170/Components/Library\libZPSAPL_JN516x.a(zps_apl_zdo_parent_annce_server.o)
                              zps_apl_zdo_nwkmanager.o (symbol from plugin) (ZPS_vSendParentAnnounce)
e:/NXP/bstudio_nxp/sdk/JN-SW-4170/Components/Library\libZPSAPL_JN516x.a(zps_apl_zdo_system_server_discovery_server.o)
                              e:/NXP/Sensor/WL_DoorLock/Build/zps_gen.o (zps_vAplZdoSystemServerDiscoveryServerInit)
e:/NXP/bstudio_nxp/sdk/JN-SW-4170/Components/Library\libZPSAPL_JN516x.a(zps_apl_zdo_mgmt_lqi_server.o)
                              e:/NXP/Sensor/WL_DoorLock/Build/zps_gen.o (zps_vAplZdoMgmtLqiServerInit)
e:/NXP/bstudio_nxp/sdk/JN-SW-4170/Components/Library\libZPSAPL_JN516x.a(zps_apl_zdo_mgmt_leave_server.o)
                              e:/NXP/Sensor/WL_DoorLock/Build/zps_gen.o (zps_vAplZdoMgmtLeaveServerInit)
e:/NXP/bstudio_nxp/sdk/JN-SW-4170/Components/Library\libZPSAPL_JN516x.a(zps_apl_zdo_mgmt_nwk_update_server.o)
                              e:/NXP/Sensor/WL_DoorLock/Build/zps_gen.o (zps_vAplZdoMgmtNWKUpdateServerInit)
e:/NXP/bstudio_nxp/sdk/JN-SW-4170/Components/Library\libZPSAPL_JN516x.a(zps_apl_zdo_bind_unbind_server.o)
                              e:/NXP/Sensor/WL_DoorLock/Build/zps_gen.o (zps_vAplZdoBindUnbindServerInit)
e:/NXP/bstudio_nxp/sdk/JN-SW-4170/Components/Library\libZPSAPL_JN516x.a(zps_apl_zdo_bound_data_request_manager.o)
                              e:/NXP/Sensor/WL_DoorLock/Build/zps_gen.o (zps_bAplZdoBindRequestServer)
e:/NXP/bstudio_nxp/sdk/JN-SW-4170/Components/Library\libZPSAPL_JN516x.a(zps_apl_zdo_nwkmanager_client.o)
                              zps_apl_zdo_bind_unbind_server.o (symbol from plugin) (zps_vAplZdoClientLookupNwkAddress)
e:/NXP/bstudio_nxp/sdk/JN-SW-4170/Components/Library\libZPSAPL_JN516x.a(zps_apl_zdo_mgmt_bind_server.o)
                              e:/NXP/Sensor/WL_DoorLock/Build/zps_gen.o (zps_vAplZdoMgmtBindServerInit)
e:/NXP/bstudio_nxp/sdk/JN-SW-4170/Components/Library\libZPSAPL_JN516x.a(zps_apl_zdp_apsde_req.o)
                              zps_apl_zdo_parent_annce_server.o (symbol from plugin) (zps_eAplZdpApsdeReqInternal)
e:/NXP/bstudio_nxp/sdk/JN-SW-4170/Components/Library\libZPSAPL_JN516x.a(zps_apl_zdp_device_annce.o)
                              zps_apl_zdo_nwkmanager.o (symbol from plugin) (zps_eAplZdpDeviceAnnceRequest)
e:/NXP/bstudio_nxp/sdk/JN-SW-4170/Components/Library\libZPSAPL_JN516x.a(zps_apl_zdp_ieee_addr_req.o)
                              e:/NXP/Sensor/WL_DoorLock/Build/app_ota_client.o (symbol from plugin) (zps_eAplZdpIeeeAddrRequest)
e:/NXP/bstudio_nxp/sdk/JN-SW-4170/Components/Library\libZPSAPL_JN516x.a(zps_apl_zdp_match_desc_req.o)
                              e:/NXP/Sensor/WL_DoorLock/Build/app_ota_client.o (symbol from plugin) (zps_eAplZdpMatchDescRequest)
e:/NXP/bstudio_nxp/sdk/JN-SW-4170/Components/Library\libZPSAPL_JN516x.a(zps_apl_zdp_mgmt_permit_joining_req.o)
                              e:/NXP/Sensor/WL_DoorLock/Build/bdb_ns.o (symbol from plugin) (zps_eAplZdpMgmtPermitJoiningRequest)
e:/NXP/bstudio_nxp/sdk/JN-SW-4170/Components/Library\libZPSAPL_JN516x.a(zps_apl_zdp_node_desc_req.o)
                              e:/NXP/Sensor/WL_DoorLock/Build/bdb_ns.o (symbol from plugin) (zps_eAplZdpNodeDescRequest)
e:/NXP/bstudio_nxp/sdk/JN-SW-4170/Components/Library\libZPSAPL_JN516x.a(zps_apl_zdp_simple_desc_req.o)
                              e:/NXP/Sensor/WL_DoorLock/Build/bdb_fb_initiator.o (symbol from plugin) (zps_eAplZdpSimpleDescRequest)
e:/NXP/bstudio_nxp/sdk/JN-SW-4170/Components/Library\libZPSAPL_JN516x.a(zps_apl_zdp_nwk_addr_rsp.o)
                              zps_apl_zdo_nwk_addr_server.o (symbol from plugin) (zps_eZdpNwkAddrResponse)
e:/NXP/bstudio_nxp/sdk/JN-SW-4170/Components/Library\libZPSAPL_JN516x.a(zps_apl_zdp_ieee_addr_rsp.o)
                              zps_apl_zdo_ieee_addr_server.o (symbol from plugin) (zps_eZdpIeeeAddrResponse)
e:/NXP/bstudio_nxp/sdk/JN-SW-4170/Components/Library\libZPSAPL_JN516x.a(zps_apl_zdp_node_desc_rsp.o)
                              zps_apl_zdo_node_desc_server.o (symbol from plugin) (zps_eZdpNodeDescResponse)
e:/NXP/bstudio_nxp/sdk/JN-SW-4170/Components/Library\libZPSAPL_JN516x.a(zps_apl_zdp_parent_annce_rsp.o)
                              zps_apl_zdo_parent_annce_server.o (symbol from plugin) (zps_eZdpParentAnnceResponse)
e:/NXP/bstudio_nxp/sdk/JN-SW-4170/Components/Library\libZPSAPL_JN516x.a(zps_apl_zdp_power_desc_rsp.o)
                              zps_apl_zdo_power_desc_server.o (symbol from plugin) (zps_eZdpPowerDescResponse)
e:/NXP/bstudio_nxp/sdk/JN-SW-4170/Components/Library\libZPSAPL_JN516x.a(zps_apl_zdp_simple_desc_rsp.o)
                              zps_apl_zdo_simple_desc_server.o (symbol from plugin) (zps_eZdpSimpleDescResponse)
e:/NXP/bstudio_nxp/sdk/JN-SW-4170/Components/Library\libZPSAPL_JN516x.a(zps_apl_zdp_active_ep_rsp.o)
                              zps_apl_zdo_active_ep_server.o (symbol from plugin) (zps_eZdpActiveEpResponse)
e:/NXP/bstudio_nxp/sdk/JN-SW-4170/Components/Library\libZPSAPL_JN516x.a(zps_apl_zdp_match_desc_rsp.o)
                              zps_apl_zdo_match_desc_server.o (symbol from plugin) (zps_eZdpMatchDescResponse)
e:/NXP/bstudio_nxp/sdk/JN-SW-4170/Components/Library\libZPSAPL_JN516x.a(zps_apl_zdp_system_server_discovery_rsp.o)
                              zps_apl_zdo_system_server_discovery_server.o (symbol from plugin) (zps_eZdpSystemServerDiscoveryResponse)
e:/NXP/bstudio_nxp/sdk/JN-SW-4170/Components/Library\libZPSAPL_JN516x.a(zps_apl_zdp_bind_rsp.o)
                              zps_apl_zdo_bind_unbind_server.o (symbol from plugin) (zps_eAplZdpBindResponse)
e:/NXP/bstudio_nxp/sdk/JN-SW-4170/Components/Library\libZPSAPL_JN516x.a(zps_apl_zdp_unbind_rsp.o)
                              zps_apl_zdo_bind_unbind_server.o (symbol from plugin) (zps_eZdpUnbindResponse)
e:/NXP/bstudio_nxp/sdk/JN-SW-4170/Components/Library\libZPSAPL_JN516x.a(zps_apl_zdp_mgmt_lqi_rsp.o)
                              zps_apl_zdo_mgmt_lqi_server.o (symbol from plugin) (zps_eAplZdpMgmtLqiResponse)
e:/NXP/bstudio_nxp/sdk/JN-SW-4170/Components/Library\libZPSAPL_JN516x.a(zps_apl_zdp_mgmt_leave_rsp.o)
                              zps_apl_zdo_mgmt_leave_server.o (symbol from plugin) (zps_eZdpMgmtLeaveResponse)
e:/NXP/bstudio_nxp/sdk/JN-SW-4170/Components/Library\libZPSAPL_JN516x.a(zps_apl_zdp_mgmt_nwk_update_notify_rsp.o)
                              zps_apl_zdo_mgmt_nwk_update_server.o (symbol from plugin) (zps_eZdpMgmtNwkUpdateNotifyResponse)
e:/NXP/bstudio_nxp/sdk/JN-SW-4170/Components/Library\libRandom_JN516x.a(rnd_main.o)
                              zps_apl_af.o (symbol from plugin) (RND_vInit)
e:/NXP/bstudio_nxp/sdk/JN-SW-4170/Components/Library\libPDM_EEPROM_NO_RTOS_JN516x.a(PDM_Bitmap.o)
                              zps_apl_zdo_nwkmanager.o (symbol from plugin) (PDM_eCreateBitmap)
e:/NXP/bstudio_nxp/sdk/JN-SW-4170/Components/Library\libPDM_EEPROM_NO_RTOS_JN516x.a(PDM_Create.o)
                              PDM_Bitmap.o (symbol from plugin) (psPDM_Common)
e:/NXP/bstudio_nxp/sdk/JN-SW-4170/Components/Library\libPDM_EEPROM_NO_RTOS_JN516x.a(PDM_EEPROMsegmentStatus.o)
                              PDM_Create.o (symbol from plugin) (bPDM_DoesEEPROMsegmentContainFileSystemHeader)
e:/NXP/bstudio_nxp/sdk/JN-SW-4170/Components/Library\libPDM_EEPROM_NO_RTOS_JN516x.a(PDM_FileSystem.o)
                              e:/NXP/Sensor/WL_DoorLock/Build/app_pdm.o (symbol from plugin) (u8PDM_CalculateFileSystemCapacity)
e:/NXP/bstudio_nxp/sdk/JN-SW-4170/Components/Library\libPDM_EEPROM_NO_RTOS_JN516x.a(PDM_FileSystemData.o)
                              e:/NXP/Sensor/WL_DoorLock/Build/app_reporting.o (symbol from plugin) (PDM_eReadDataFromRecord)
e:/NXP/bstudio_nxp/sdk/JN-SW-4170/Components/Library\libPDM_EEPROM_NO_RTOS_JN516x.a(PDM_FileSystemDelete.o)
                              PDM_Bitmap.o (symbol from plugin) (vPDM_DeleteSegmentsWithIdFromFileSystem)
e:/NXP/bstudio_nxp/sdk/JN-SW-4170/Components/Library\libPDM_EEPROM_NO_RTOS_JN516x.a(PDM_FileSystemGenerate.o)
                              PDM_Create.o (symbol from plugin) (vPDM_GenerateCleanFileSystem)
e:/NXP/bstudio_nxp/sdk/JN-SW-4170/Components/Library\libPDM_EEPROM_NO_RTOS_JN516x.a(PDM_FileSystemHeaderAccessFunctions.o)
                              PDM_FileSystemData.o (symbol from plugin) (ePDM_ReadFileSystemHeaderCopyIndex)
e:/NXP/bstudio_nxp/sdk/JN-SW-4170/Components/Library\libPDM_EEPROM_NO_RTOS_JN516x.a(PDM_FileSystemHeaderRepair.o)
                              PDM_FileSystemGenerate.o (symbol from plugin) (iPDM_RepairFileSystemRecord)
e:/NXP/bstudio_nxp/sdk/JN-SW-4170/Components/Library\libPDM_EEPROM_NO_RTOS_JN516x.a(PDM_FileSystemHeaderVerify.o)
                              PDM_Bitmap.o (symbol from plugin) (iPDM_ReCalculateWearCountAndChecksumAndWriteFileSystemHeader)
e:/NXP/bstudio_nxp/sdk/JN-SW-4170/Components/Library\libPDM_EEPROM_NO_RTOS_JN516x.a(PDM_FileSystemMove.o)
                              PDM_Bitmap.o (symbol from plugin) (vPDM_MoveAllDataFromListToList)
e:/NXP/bstudio_nxp/sdk/JN-SW-4170/Components/Library\libPDM_EEPROM_NO_RTOS_JN516x.a(PDM_FileSystemVerify.o)
                              PDM_FileSystemGenerate.o (symbol from plugin) (iPDM_VerifyDataSequenceWithBufferId)
e:/NXP/bstudio_nxp/sdk/JN-SW-4170/Components/Library\libPDM_EEPROM_NO_RTOS_JN516x.a(PDM_ImageBitmapReconstruct.o)
                              PDM_FileSystemGenerate.o (symbol from plugin) (iPDM_ReconstructValidImageBitmap)
e:/NXP/bstudio_nxp/sdk/JN-SW-4170/Components/Library\libPDM_EEPROM_NO_RTOS_JN516x.a(PDM_SearchAndListOrder.o)
                              PDM_FileSystem.o (symbol from plugin) (vPDM_AddFileSystemElementToListInAscendingWearCountOrder)
e:/NXP/bstudio_nxp/sdk/JN-SW-4170/Components/Library\libPDM_EEPROM_NO_RTOS_JN516x.a(PDM_Segment.o)
                              PDM_Bitmap.o (symbol from plugin) (iPDM_WriteSegmentHeaderAndData)
e:/NXP/bstudio_nxp/sdk/JN-SW-4170/Components/Library\libPDM_EEPROM_NO_RTOS_JN516x.a(PDM_SegmentData.o)
                              PDM_Bitmap.o (symbol from plugin) (iPDM_ReadUserDataFromFileSystemRecord)
e:/NXP/bstudio_nxp/sdk/JN-SW-4170/Components/Library\libPDM_EEPROM_NO_RTOS_JN516x.a(PDM_SegmentReplace.o)
                              PDM_FileSystemGenerate.o (symbol from plugin) (iPDM_ReconstructReplacedDataTable)
e:/NXP/bstudio_nxp/sdk/JN-SW-4170/Components/Library\libPDM_EEPROM_NO_RTOS_JN516x.a(PDM_SegmentSequenceExtendDelete.o)
                              PDM_FileSystemData.o (symbol from plugin) (bPDM_IsSequenceAppended)
e:/NXP/bstudio_nxp/sdk/JN-SW-4170/Components/Library\libPDM_EEPROM_NO_RTOS_JN516x.a(PDM_SegmentSequenceExtendReconstruct.o)
                              PDM_FileSystemGenerate.o (symbol from plugin) (iPDM_ReconstructExtendedSegmentSequence)
e:/NXP/bstudio_nxp/sdk/JN-SW-4170/Components/Library\libPDM_EEPROM_NO_RTOS_JN516x.a(PDM_SegmentSequenceSave.o)
                              e:/NXP/Sensor/WL_DoorLock/Build/app_reporting.o (symbol from plugin) (PDM_eSaveRecordData)
e:/NXP/bstudio_nxp/sdk/JN-SW-4170/Components/Library\libPDM_EEPROM_NO_RTOS_JN516x.a(PDM_slist.o)
                              PDM_Create.o (symbol from plugin) (vSLISTinitialise)
e:/NXP/bstudio_nxp/sdk/JN-SW-4170/Components/Library\libPDM_EEPROM_NO_RTOS_JN516x.a(PDM_WearLevelling.o)
                              PDM_FileSystem.o (symbol from plugin) (iPDM_GetWearLevelledBuffer)
e:/NXP/bstudio_nxp/sdk/JN-SW-4170/Components/Library\libPDM_EEPROM_NO_RTOS_JN516x.a(PdmNoRtosStub.o)
                              PDM_Bitmap.o (symbol from plugin) (PDM_vEnterCriticalSection)
e:/NXP/bstudio_nxp/sdk/JN-SW-4170/Components/Library\libPDM_EEPROM_NO_RTOS_JN516x.a(PDM_EEPROMheaderAccessFunctions.o)
                              PDM_FileSystemDelete.o (symbol from plugin) (vPDM_SetEEPROMandFileSystemValidState)
e:/NXP/bstudio_nxp/sdk/JN-SW-4170/Components/Library\libPDM_EEPROM_NO_RTOS_JN516x.a(PDM_EEPROMheaderReadAndWrite.o)
                              PDM_EEPROMsegmentStatus.o (symbol from plugin) (iPDM_ReadSegmentHeaderDataFromEEPROMsegment)
e:/NXP/bstudio_nxp/sdk/JN-SW-4170/Components/Library\libPDM_EEPROM_NO_RTOS_JN516x.a(PDM_EEPROMReadAndWrite.o)
                              PDM_FileSystemGenerate.o (symbol from plugin) (iPDM_ReadUserDataFromEEPROMsegment)
e:/NXP/bstudio_nxp/sdk/JN-SW-4170/Components/Library\libPDM_EEPROM_NO_RTOS_JN516x.a(PDM_FileSystemHeaderChecksum.o)
                              PDM_FileSystemHeaderVerify.o (symbol from plugin) (u16PDM_CalculateRecordChecksum)
e:/NXP/bstudio_nxp/sdk/JN-SW-4170/Components/Library\libPDM_EEPROM_NO_RTOS_JN516x.a(PDM_RAMBitmap.o)
                              PDM_SegmentSequenceSave.o (symbol from plugin) (bPDM_CreateRamBitmap)
e:/NXP/bstudio_nxp/sdk/JN-SW-4170/Components/Library\libPDM_EEPROM_NO_RTOS_JN516x.a(PDM_SegmentSequenceExtendFilter.o)
                              PDM_SegmentSequenceExtendReconstruct.o (symbol from plugin) (vPDM_FilterDuplicateAppendedSegmentsFromList)
e:/NXP/bstudio_nxp/sdk/JN-SW-4170/Components/Library\libPDM_EEPROM_NO_RTOS_JN516x.a(PDM_EEPROM.o)
                              PDM_EEPROMheaderReadAndWrite.o (symbol from plugin) (bPDM_InitialiseEEPROM)
e:/NXP/bstudio_nxp/sdk/JN-SW-4170/Components/Library\libDBG_JN516x.a(dbg.o)
                              e:/NXP/Sensor/WL_DoorLock/Build/app_ota_client.o (symbol from plugin) (dbg_vPrintfImplNoneVerbose)
e:/NXP/bstudio_nxp/sdk/JN-SW-4170/Components/Library\libDBG_JN516x.a(dbg_uart.o)
                              e:/NXP/Sensor/WL_DoorLock/Build/app_start_sensor.o (symbol from plugin) (DBG_vUartFlush)
e:/NXP/bstudio_nxp/sdk/JN-SW-4170/Components/Library\libDBG_JN516x.a(dbg_exceptions.o)
                              e:/NXP/Sensor/WL_DoorLock/Build/app_start_sensor.o (symbol from plugin) (DBG_vDumpStack)
e:/NXP/bstudio_nxp/sdk/JN-SW-4170/Components/Library\libZPSZLL_ZED_JN516x.a(zps_apl_zll.o)
                              e:/NXP/Sensor/WL_DoorLock/Build/zcl_transmit.o (symbol from plugin) (zps_eAplAfInterPanDataReq)
e:/NXP/bstudio_nxp/sdk/JN-SW-4170/Components/Library\libZPSZLL_ZED_JN516x.a(zps_apl_options.o)
                              zps_apl_zll.o (symbol from plugin) (ZPS_vRegisterInterPanHandlers)
e:/NXP/bstudio_nxp/sdk/JN-SW-4170/Components/Library\libZPSNWK_ZED_JN516x.a(zps_nwk_version_lc.o)
                              e:/NXP/Sensor/WL_DoorLock/Build/zps_gen.o (ZPS_NWK_Version_3v0)
e:/NXP/bstudio_nxp/sdk/JN-SW-4170/Components/Library\libZPSNWK_ZED_JN516x.a(zps_nwk_dcim.o)
                              zps_apl_task.o (symbol from plugin) (ZPS_vNwkRegisterNlmeDcfmIndCallbacks)
e:/NXP/bstudio_nxp/sdk/JN-SW-4170/Components/Library\libZPSNWK_ZED_JN516x.a(zps_nwk_lib.o)
                              e:/NXP/Sensor/WL_DoorLock/Build/appZpsBeaconHandler.o (symbol from plugin) (zps_u64NwkLibFromPayload)
e:/NXP/bstudio_nxp/sdk/JN-SW-4170/Components/Library\libZPSNWK_ZED_JN516x.a(zps_nwk_lkst.o)
                              zps_apl_mac_isr.o (symbol from plugin) (zps_u8CalcLinkCost)
e:/NXP/bstudio_nxp/sdk/JN-SW-4170/Components/Library\libZPSNWK_ZED_JN516x.a(zps_nwk_main.o)
                              zps_apl_zdo_nwkmanager.o (symbol from plugin) (ZPS_pvNwkCtor)
e:/NXP/bstudio_nxp/sdk/JN-SW-4170/Components/Library\libZPSNWK_ZED_JN516x.a(zps_nwk_maint.o)
                              zps_apl_zdo_nwkmanager.o (symbol from plugin) (zps_bNwkFindAddIeeeAddr)
e:/NXP/bstudio_nxp/sdk/JN-SW-4170/Components/Library\libZPSNWK_ZED_JN516x.a(zps_nwk_mcps.o)
                              zps_nwk_main.o (symbol from plugin) (zps_vNwkMcpsMgrInit)
e:/NXP/bstudio_nxp/sdk/JN-SW-4170/Components/Library\libZPSNWK_ZED_JN516x.a(zps_nwk_mlme.o)
                              zps_apl_task.o (symbol from plugin) (ZPS_vNwkHandleMlmeDcfmInd)
e:/NXP/bstudio_nxp/sdk/JN-SW-4170/Components/Library\libZPSNWK_ZED_JN516x.a(zps_nwk_nib.o)
                              zps_apl_zdo_nwkmanager.o (symbol from plugin) (zps_vNwkDefaultStateMachines)
e:/NXP/bstudio_nxp/sdk/JN-SW-4170/Components/Library\libZPSNWK_ZED_JN516x.a(zps_nwk_nlde.o)
                              zps_apl_af_apsde.o (symbol from plugin) (ZPS_vNwkHandleNldeReqRsp)
e:/NXP/bstudio_nxp/sdk/JN-SW-4170/Components/Library\libZPSNWK_ZED_JN516x.a(zps_nwk_nlme.o)
                              zps_apl_apsde.o (symbol from plugin) (ZPS_vNwkHandleNlmeReqRsp)
e:/NXP/bstudio_nxp/sdk/JN-SW-4170/Components/Library\libZPSNWK_ZED_JN516x.a(zps_nwk_rt.o)
                              zps_apl_zdo_device_annce_server.o (symbol from plugin) (zps_vRemoveRoute)
e:/NXP/bstudio_nxp/sdk/JN-SW-4170/Components/Library\libZPSNWK_ZED_JN516x.a(zps_nwk_sec.o)
                              zps_apl_sec.o (symbol from plugin) (ZPS_bSecEncrypt)
e:/NXP/bstudio_nxp/sdk/JN-SW-4170/Components/Library\libZPSNWK_ZED_JN516x.a(zps_nwk_slist.o)
                              zps_nwk_mcps.o (symbol from plugin) (zps_vNwkSlistInit)
e:/NXP/bstudio_nxp/sdk/JN-SW-4170/Components/Library\libZPSNWK_ZED_JN516x.a(zps_nwk_actv_st.o)
                              zps_nwk_main.o (symbol from plugin) (zps_eNwkActvStInit)
e:/NXP/bstudio_nxp/sdk/JN-SW-4170/Components/Library\libZPSNWK_ZED_JN516x.a(zps_nwk_btt.o)
                              zps_nwk_main.o (symbol from plugin) (zps_vNwkBttMgrInit)
e:/NXP/bstudio_nxp/sdk/JN-SW-4170/Components/Library\libZPSNWK_ZED_JN516x.a(zps_nwk_disc.o)
                              zps_nwk_actv_st.o (symbol from plugin) (zps_vNwkHandleCmeNwkDiscReq)
e:/NXP/bstudio_nxp/sdk/JN-SW-4170/Components/Library\libZPSNWK_ZED_JN516x.a(zps_nwk_disc_st.o)
                              zps_nwk_main.o (symbol from plugin) (zps_eNwkDiscStInit)
e:/NXP/bstudio_nxp/sdk/JN-SW-4170/Components/Library\libZPSNWK_ZED_JN516x.a(zps_nwk_frm.o)
                              zps_nwk_mcps.o (symbol from plugin) (zps_eDefaultDataDcfm)
e:/NXP/bstudio_nxp/sdk/JN-SW-4170/Components/Library\libZPSNWK_ZED_JN516x.a(zps_nwk_idle_st.o)
                              zps_nwk_nlme.o (symbol from plugin) (zps_vNwkIdleStHandleCme)
e:/NXP/bstudio_nxp/sdk/JN-SW-4170/Components/Library\libZPSNWK_ZED_JN516x.a(zps_nwk_join.o)
                              zps_nwk_actv_st.o (symbol from plugin) (zps_vNwkHandleCmeDirectJoinReq)
e:/NXP/bstudio_nxp/sdk/JN-SW-4170/Components/Library\libZPSNWK_ZED_JN516x.a(zps_nwk_join_st.o)
                              zps_nwk_join.o (symbol from plugin) (zps_vNwkJoinStStartResponseTimer)
e:/NXP/bstudio_nxp/sdk/JN-SW-4170/Components/Library\libZPSNWK_ZED_JN516x.a(zps_nwk_leave.o)
                              zps_nwk_actv_st.o (symbol from plugin) (zps_eNwkHandleSceLeave)
e:/NXP/bstudio_nxp/sdk/JN-SW-4170/Components/Library\libZPSNWK_ZED_JN516x.a(zps_nwk_mac.o)
                              zps_nwk_maint.o (symbol from plugin) (MAC_u64GetExtAddr)
e:/NXP/bstudio_nxp/sdk/JN-SW-4170/Components/Library\libZPSNWK_ZED_JN516x.a(zps_nwk_scan.o)
                              zps_nwk_disc.o (symbol from plugin) (zps_sNwkLibSubmitScan)
e:/NXP/bstudio_nxp/sdk/JN-SW-4170/Components/Library\libZPSNWK_ZED_JN516x.a(zps_nwk_sync.o)
                              zps_nwk_actv_st.o (symbol from plugin) (zps_vNwkHandleCmeSyncReq)
e:/NXP/bstudio_nxp/sdk/JN-SW-4170/Components/Library\libMiniMac_JN5169.a(Mini_Main.o)
                              zps_mac_shim.o (symbol from plugin) (vMiniMac_InterruptHandler)
e:/NXP/bstudio_nxp/sdk/JN-SW-4170/Components/Library\libMiniMac_JN5169.a(Mini_Association.o)
                              zps_miniMac.o (symbol from plugin) (eMiniMac_MLME_AssociateReq)
e:/NXP/bstudio_nxp/sdk/JN-SW-4170/Components/Library\libMiniMac_JN5169.a(Mini_Mcps.o)
                              zps_miniMac.o (symbol from plugin) (psGetTxFrameBuffer)
e:/NXP/bstudio_nxp/sdk/JN-SW-4170/Components/Library\libMiniMac_JN5169.a(Mini_Poll.o)
                              zps_miniMac.o (symbol from plugin) (eMiniMac_MLME_DataReq)
e:/NXP/bstudio_nxp/sdk/JN-SW-4170/Components/Library\libMiniMac_JN5169.a(Mini_Running.o)
                              Mini_Association.o (symbol from plugin) (vRunningRxCallback)
e:/NXP/bstudio_nxp/sdk/JN-SW-4170/Components/Library\libMiniMac_JN5169.a(Mini_Scan.o)
                              zps_miniMac.o (symbol from plugin) (eMiniMac_MLME_ScanReq)
e:/NXP/bstudio_nxp/sdk/JN-SW-4170/Components/Library\libMiniMac_JN5169.a(Mini_TimerServer.o)
                              Mini_Main.o (symbol from plugin) (vTimerInitialise)
e:/NXP/bstudio_nxp/sdk/JN-SW-4170/Components/Library\libMiniMac_JN5169.a(Mini_TxRx.o)
                              Mini_Mcps.o (symbol from plugin) (vAddToTxQueue)
e:/NXP/bstudio_nxp/sdk/JN-SW-4170/Components/Library\libMiniMac_JN5169.a(Endian.o)
                              Mini_Main.o (symbol from plugin) (vFromU16ToLe)
e:/NXP/bstudio_nxp/sdk/JN-SW-4170/Components/Library\libMiniMacShim_JN516x.a(Mini_Shim.o)
                              zps_miniMac.o (symbol from plugin) (pvAppApiDefGetMacHandle)
e:/NXP/bstudio_nxp/sdk/JN-SW-4170/Components/Library\libMMAC_JN5169.a(MMAC.o)
                              Mini_Main.o (symbol from plugin) (vMMAC_Enable)
e:/NXP/bstudio_nxp/sdk/JN-SW-4170/Components/Library\libMMAC_JN5169.a(MMAC_RadioInit_JN5169.o)
                              Mini_Main.o (symbol from plugin) (vMMAC_ConfigureRadio)
e:/NXP/bstudio_nxp/sdk/JN-SW-4170/Components/Library\libJPT_JN5169.a(JPT_RadioTxPowerTests.o)
                              MMAC.o (symbol from plugin) (vJPT_TxPowerAdjust)
e:/NXP/bstudio_nxp/sdk/JN-SW-4170/Components/Library\libJPT_JN5169.a(JPT_RadioSettings_JN5169.o)
                              MMAC_RadioInit_JN5169.o (symbol from plugin) (bJPT_InitRadio_JN5169)
e:/NXP/bstudio_nxp/sdk/JN-SW-4170/Components/Library\libAes_JN516x.a(AEScoprocessorAPI.o)
                              zps_nwk_sec.o (symbol from plugin) (bACI_WriteKey)
e:/NXP/bstudio_nxp/sdk/JN-SW-4170/Components/Library\libAes_JN516x.a(AEScoprocessorECB.o)
                              e:/NXP/Sensor/WL_DoorLock/Build/OTA.o (symbol from plugin) (bACI_ECBencodeStripe)
e:/NXP/bstudio_nxp/sdk/JN-SW-4170/Components/Library\libAes_JN516x.a(AES_CCM_Star.o)
                              zps_nwk_sec.o (symbol from plugin) (vACI_OptimisedCcmStar)
e:/NXP/bstudio_nxp/sdk/JN-SW-4170/Components/Library\libHardwareApi_JN5169.a(AHI_Analogue.o)
                              e:/NXP/Sensor/WL_DoorLock/Build/app_zlo_sensor_node.o (symbol from plugin) (bAHI_APRegulatorEnabled)
e:/NXP/bstudio_nxp/sdk/JN-SW-4170/Components/Library\libHardwareApi_JN5169.a(AHI_Dio.o)
                              e:/NXP/Sensor/WL_DoorLock/Build/app_start_sensor.o (symbol from plugin) (vAHI_DioSetDirection)
e:/NXP/bstudio_nxp/sdk/JN-SW-4170/Components/Library\libHardwareApi_JN5169.a(AHI_Reset.o)
                              e:/NXP/Sensor/WL_DoorLock/Build/app_start_sensor.o (symbol from plugin) (vAHI_SwReset)
e:/NXP/bstudio_nxp/sdk/JN-SW-4170/Components/Library\libHardwareApi_JN5169.a(AHI_System.o)
                              e:/NXP/Sensor/WL_DoorLock/Build/app_occupancy_buttons.o (symbol from plugin) (vAHI_ClearSystemEventStatus)
e:/NXP/bstudio_nxp/sdk/JN-SW-4170/Components/Library\libHardwareApi_JN5169.a(AHI_Timer.o)
                              e:/NXP/Sensor/WL_DoorLock/Build/app_occupancy_buttons.o (symbol from plugin) (vAHI_TimerEnable)
e:/NXP/bstudio_nxp/sdk/JN-SW-4170/Components/Library\libHardwareApi_JN5169.a(AHI_TimerInt.o)
                              e:/NXP/Sensor/WL_DoorLock/Build/app_occupancy_buttons.o (symbol from plugin) (vAHI_Timer0RegisterCallback)
e:/NXP/bstudio_nxp/sdk/JN-SW-4170/Components/Library\libHardwareApi_JN5169.a(AHI_Uart.o)
                              e:/NXP/Sensor/WL_DoorLock/Build/app_SampleDoorLock_Uart.o (symbol from plugin) (vAHI_UartSetBaudDivisor)
e:/NXP/bstudio_nxp/sdk/JN-SW-4170/Components/Library\libHardwareApi_JN5169.a(AHI_WakeTimer.o)
                              e:/NXP/Sensor/WL_DoorLock/Build/app_occupancy_sensor_state_machine.o (symbol from plugin) (vAHI_WakeTimerEnable)
e:/NXP/bstudio_nxp/sdk/JN-SW-4170/Components/Library\libHardwareApi_JN5169.a(AHI_Flash.o)
                              AHI_System.o (symbol from plugin) (vAHI_FlashAndEEPROMControllerIntHandler)
e:/NXP/bstudio_nxp/sdk/JN-SW-4170/Components/Library\libHardwareApi_JN5169.a(AHI_FlashPoll.o)
                              PdmNoRtosStub.o (symbol from plugin) (bAHI_FlashGetMutex)
e:/NXP/bstudio_nxp/sdk/JN-SW-4170/Components/Library\libHardwareApi_JN5169.a(AHI_Infrared.o)
                              AHI_TimerInt.o (symbol from plugin) (vAHI_IntHandlerInfrared)
e:/NXP/bstudio_nxp/sdk/JN-SW-4170/Components/Library\libHardwareApi_JN5169.a(InternalFlashApi.o)
                              AHI_Flash.o (symbol from plugin) (bFlashErase)
e:/NXP/bstudio_nxp/sdk/JN-SW-4170/Components/Library\libHardwareApi_JN5169.a(EEP_EEPROM.o)
                              PDM_Create.o (symbol from plugin) (u16AHI_InitialiseEEP)
e:/NXP/bstudio_nxp/sdk/JN-SW-4170/Components/Library\libHardwareApi_JN5169.a(AHI_TickTimer.o)
                              e:/NXP/Sensor/WL_DoorLock/Build/ZTimer.o (symbol from plugin) (vAHI_TickTimerWrite)
e:/NXP/bstudio_nxp/sdk/JN-SW-4170/Components/Library\libHardwareApi_JN5169.a(AHI_Interrupt.o)
                              Mini_Main.o (symbol from plugin) (vAHI_InterruptSetPriority)
e:/NXP/bstudio_nxp/sdk/JN-SW-4170/Components/Library\libHardwareApi_JN5169.a(AHI_Spi.o)
                              AHI_Flash.o (symbol from plugin) (vAHI_SpiConfigure)
e:/NXP/bstudio_nxp/sdk/JN-SW-4170/Components/Library\libMicroSpecific_JN516x.a(MicroInt_ba.o)
                              e:/NXP/Sensor/WL_DoorLock/Build/ZQueue.o (symbol from plugin) (vMicroIntEnableOnly)
e:/NXP/bstudio_nxp/sdk/JN-SW-4170/Components/Library\libMicroSpecific_JN516x.a(MicroSyscall_ba.o)
                              AHI_Reset.o (symbol from plugin) (vMicroSyscall)
e:/NXP/bstudio_nxp/sdk/JN-SW-4170/Components/Library\libBoot_JN516x.a(Heap.o)
                              (u32HeapStart)
e:/NXP/bstudio_nxp/sdk/JN-SW-4170/Components/Library\libBoot_JN516x.a(ExceptionHandler.o)
                              Mini_Main.o (symbol from plugin) (isr_handlers)
e:/NXP/bstudio_nxp/sdk/JN-SW-4170/Components/Library\libZPSTSV_JN516x.a(zps_tsv.o)
                              zps_apl_zdo_nwkmanager.o (symbol from plugin) (ZPS_vTsvInit)
e:/NXP/bstudio_nxp/sdk/JN-SW-4170/Components/Library\libAES_SW_JN516x.a(aes_sw_hmac_mmo.o)
                              zps_apl_sec.o (symbol from plugin) (AESSW_vHMAC_MMO)
e:/nxp/bstudio_nxp/sdk/tools/ba-elf-ba2-r36379/bin/../lib/gcc/ba-elf/4.7.4/../../../../ba-elf/lib/mcpu_jn51xx_sizeopt\libc.a(lib_a-memcmp.o)
                              C:\Users\ADMINI~1\AppData\Local\Temp\ccuL4uDM.ltrans1.ltrans.o (memcmp)
e:/nxp/bstudio_nxp/sdk/tools/ba-elf-ba2-r36379/bin/../lib/gcc/ba-elf/4.7.4/../../../../ba-elf/lib/mcpu_jn51xx_sizeopt\libc.a(lib_a-memcpy.o)
                              C:\Users\ADMINI~1\AppData\Local\Temp\ccuL4uDM.ltrans0.ltrans.o (memcpy)
e:/nxp/bstudio_nxp/sdk/tools/ba-elf-ba2-r36379/bin/../lib/gcc/ba-elf/4.7.4/../../../../ba-elf/lib/mcpu_jn51xx_sizeopt\libc.a(lib_a-memset.o)
                              C:\Users\ADMINI~1\AppData\Local\Temp\ccuL4uDM.ltrans0.ltrans.o (memset)
e:/nxp/bstudio_nxp/sdk/tools/ba-elf-ba2-r36379/bin/../lib/gcc/ba-elf/4.7.4/mcpu_jn51xx_sizeopt\libgcc.a(__udivsi3.o)
                              C:\Users\ADMINI~1\AppData\Local\Temp\ccuL4uDM.ltrans2.ltrans.o (__udivsi3)
e:/nxp/bstudio_nxp/sdk/tools/ba-elf-ba2-r36379/bin/../lib/gcc/ba-elf/4.7.4/mcpu_jn51xx_sizeopt\libgcc.a(__divsi3.o)
                              C:\Users\ADMINI~1\AppData\Local\Temp\ccuL4uDM.ltrans16.ltrans.o (__divsi3)
e:/nxp/bstudio_nxp/sdk/tools/ba-elf-ba2-r36379/bin/../lib/gcc/ba-elf/4.7.4/mcpu_jn51xx_sizeopt\libgcc.a(__umodsi3.o)
                              C:\Users\ADMINI~1\AppData\Local\Temp\ccuL4uDM.ltrans2.ltrans.o (__umodsi3)
e:/nxp/bstudio_nxp/sdk/tools/ba-elf-ba2-r36379/bin/../lib/gcc/ba-elf/4.7.4/mcpu_jn51xx_sizeopt\libgcc.a(__modsi3.o)
                              C:\Users\ADMINI~1\AppData\Local\Temp\ccuL4uDM.ltrans7.ltrans.o (__modsi3)
e:/nxp/bstudio_nxp/sdk/tools/ba-elf-ba2-r36379/bin/../lib/gcc/ba-elf/4.7.4/mcpu_jn51xx_sizeopt\libgcc.a(_muldi3.o)
                              C:\Users\ADMINI~1\AppData\Local\Temp\ccuL4uDM.ltrans3.ltrans.o (__muldi3)
e:/nxp/bstudio_nxp/sdk/tools/ba-elf-ba2-r36379/bin/../lib/gcc/ba-elf/4.7.4/mcpu_jn51xx_sizeopt\libgcc.a(_udivdi3.o)
                              C:\Users\ADMINI~1\AppData\Local\Temp\ccuL4uDM.ltrans3.ltrans.o (__udivdi3)

Allocating common symbols
Common symbol       size              file

au8AlarmsAttributeControlBits
                    0x1               e:/NXP/Sensor/WL_DoorLock/Build/Alarms.o (symbol from plugin)
au8BallastConfigurationAttributeControlBits
                    0x1               e:/NXP/Sensor/WL_DoorLock/Build/BallastConfiguration.o (symbol from plugin)
au8IASWDAttributeControlBits
                    0x2               e:/NXP/Sensor/WL_DoorLock/Build/IASWD.o (symbol from plugin)
in                  0x10              e:/NXP/Sensor/WL_DoorLock/Build/ecb_decrypt.o (symbol from plugin)
au8RelativeHumidityMeasurementAttributeControlBits
                    0x1               e:/NXP/Sensor/WL_DoorLock/Build/RelativeHumidityMeasurement.o (symbol from plugin)
RoundKey            0xf0              e:/NXP/Sensor/WL_DoorLock/Build/ecb_decrypt.o (symbol from plugin)
au8GroupsAttributeControlBits
                    0x1               e:/NXP/Sensor/WL_DoorLock/Build/Groups.o (symbol from plugin)
zps_TimeEvents      0x18              e:/NXP/Sensor/WL_DoorLock/Build/zps_gen.o
au8TemperatureMeasurementAttributeControlBits
                    0x1               e:/NXP/Sensor/WL_DoorLock/Build/TemperatureMeasurement.o (symbol from plugin)
zps_msgMlmeDcfmInd  0x18              e:/NXP/Sensor/WL_DoorLock/Build/zps_gen.o
bMiniMacConfig_DiscardUnsuccessfulAssocResponses
                    0x1               Mini_Association.o (symbol from plugin)
au8DeviceTempConfigClusterAttributeControlBits
                    0x1               e:/NXP/Sensor/WL_DoorLock/Build/DeviceTemperatureConfiguration.o (symbol from plugin)
au8IlluminanceLevelSensingAttributeControlBits
                    0x1               e:/NXP/Sensor/WL_DoorLock/Build/IlluminanceLevelSensing.o (symbol from plugin)
out                 0x10              e:/NXP/Sensor/WL_DoorLock/Build/ecb_decrypt.o (symbol from plugin)
au8OccupancySensingAttributeControlBits
                    0x4               e:/NXP/Sensor/WL_DoorLock/Build/OccupancySensing.o (symbol from plugin)
au64IgnoreList      0x18              e:/NXP/Sensor/WL_DoorLock/Build/bdb_tl_end_device_initiator_target.o (symbol from plugin)
sBasicWriteAttributePValue
                    0x40              e:/NXP/Sensor/WL_DoorLock/Build/app_reporting.o (symbol from plugin)
prMiniMacTofRxHandler
                    0x4               Mini_Running.o (symbol from plugin)
sDevicePDDesc       0x18              e:/NXP/Sensor/WL_DoorLock/Build/app_zlo_sensor_node.o (symbol from plugin)
state               0x10              e:/NXP/Sensor/WL_DoorLock/Build/ecb_decrypt.o (symbol from plugin)
APP_msgZclEvents    0x18              e:/NXP/Sensor/WL_DoorLock/Build/app_main.o (symbol from plugin)
prTickTimeAppCallback
                    0x4               AHI_TickTimer.o (symbol from plugin)
au8PowerConfigurationAttributeControlBits
                    0x3               e:/NXP/Sensor/WL_DoorLock/Build/PowerConfiguration.o (symbol from plugin)
sCommission         0x20              e:/NXP/Sensor/WL_DoorLock/Build/bdb_tl_end_device_initiator_target.o (symbol from plugin)
sMiniMacSecurityPib
                    0xc               Mini_Main.o (symbol from plugin)
bRadioDoze          0x1               Mini_Running.o (symbol from plugin)
u16PinData          0x2               e:/NXP/Sensor/WL_DoorLock/Build/App_WL_DoorLock.o (symbol from plugin)
au8FlowMeasurementAttributeControlBits
                    0x1               e:/NXP/Sensor/WL_DoorLock/Build/FlowMeasurement.o (symbol from plugin)
u32UtcLocalTime     0x4               e:/NXP/Sensor/WL_DoorLock/Build/App_WL_DoorLock.o (symbol from plugin)
au8IdentifyAttributeControlBits
                    0x2               e:/NXP/Sensor/WL_DoorLock/Build/Identify.o (symbol from plugin)
au8TimeClusterAttributeControlBits
                    0x3               e:/NXP/Sensor/WL_DoorLock/Build/Time.o (symbol from plugin)
au8LevelControlAttributeControlBits
                    0x1               e:/NXP/Sensor/WL_DoorLock/Build/LevelControl.o (symbol from plugin)
u32OTA_ImageSize    0x4               e:/NXP/Sensor/WL_DoorLock/Build/OTA_ClientUpgradeManager.o (symbol from plugin)
u16TempAddrHigh     0x2               e:/NXP/Sensor/WL_DoorLock/Build/bdb_tl_end_device_initiator_target.o (symbol from plugin)
APP_msgZpsEvents    0x18              e:/NXP/Sensor/WL_DoorLock/Build/app_main.o (symbol from plugin)
au64ExtPanListForBeaconFilter
                    0x8               e:/NXP/Sensor/WL_DoorLock/Build/bdb_start.o (symbol from plugin)
OTA_PersistedDataPDDesc
                    0x18              e:/NXP/Sensor/WL_DoorLock/Build/app_ota_client.o (symbol from plugin)
u32BackUpApsChannelMask
                    0x4               e:/NXP/Sensor/WL_DoorLock/Build/bdb_start.o (symbol from plugin)
au8DoorLockAttributeControlBits
                    0x4               e:/NXP/Sensor/WL_DoorLock/Build/DoorLock.o (symbol from plugin)
u8TimerBdbTl        0x1               e:/NXP/Sensor/WL_DoorLock/Build/bdb_tl_end_device_initiator_target.o (symbol from plugin)
prMiniMac_u32BbcIntCallback
                    0x4               Mini_Main.o (symbol from plugin)
u16TempAddrLow      0x2               e:/NXP/Sensor/WL_DoorLock/Build/bdb_tl_end_device_initiator_target.o (symbol from plugin)
au8PressureMeasurementAttributeControlBits
                    0x1               e:/NXP/Sensor/WL_DoorLock/Build/PressureMeasurement.o (symbol from plugin)
g_bLegacyHwBugEmulation
                    0x1               AES_CCM_Star.o (symbol from plugin)
au8IlluminanceMeasurementAttributeControlBits
                    0x1               e:/NXP/Sensor/WL_DoorLock/Build/IlluminanceMeasurement.o (symbol from plugin)
Key                 0x10              e:/NXP/Sensor/WL_DoorLock/Build/ecb_decrypt.o (symbol from plugin)
au8BasicClusterAttributeControlBits
                    0x10              e:/NXP/Sensor/WL_DoorLock/Build/Basic.o (symbol from plugin)
sScanTarget         0x40              e:/NXP/Sensor/WL_DoorLock/Build/bdb_tl_end_device_initiator_target.o (symbol from plugin)
u16TempGroupLow     0x2               e:/NXP/Sensor/WL_DoorLock/Build/bdb_tl_end_device_initiator_target.o (symbol from plugin)
au8TempKeyStore     0x10              e:/NXP/Sensor/WL_DoorLock/Build/bdb_tl_end_device_initiator_target.o (symbol from plugin)
au8AtRxBuffer       0x20              e:/NXP/Sensor/WL_DoorLock/Build/app_main.o (symbol from plugin)
zps_msgMcpsDcfmInd  0x18              e:/NXP/Sensor/WL_DoorLock/Build/zps_gen.o
au8DiagnosticsClusterAttributeControlBits
                    0x3               e:/NXP/Sensor/WL_DoorLock/Build/Diagnostics.o (symbol from plugin)
u16TempGroupHigh    0x2               e:/NXP/Sensor/WL_DoorLock/Build/bdb_tl_end_device_initiator_target.o (symbol from plugin)
SensorTaskEvent     0x8               e:/NXP/Sensor/WL_DoorLock/Build/app_pdm.o (symbol from plugin)
uAttributeVal       0x10              e:/NXP/Sensor/WL_DoorLock/Build/zcl_readAttributesResponseHandle.o (symbol from plugin)

Discarded input sections

 .data          0x0000000000000000        0x0 e:/NXP/Sensor/WL_DoorLock/Build/irq_JN516x.o
 .bss           0x0000000000000000        0x0 e:/NXP/Sensor/WL_DoorLock/Build/irq_JN516x.o
 .text          0x0000000000000000        0x0 e:/NXP/Sensor/WL_DoorLock/Build/pdum_gen.o
 .data          0x0000000000000000        0x0 e:/NXP/Sensor/WL_DoorLock/Build/pdum_gen.o
 .bss           0x0000000000000000        0x0 e:/NXP/Sensor/WL_DoorLock/Build/pdum_gen.o
 .text          0x0000000000000000        0x0 e:/NXP/Sensor/WL_DoorLock/Build/pdum_apdu.o
 .data          0x0000000000000000        0x0 e:/NXP/Sensor/WL_DoorLock/Build/pdum_apdu.o
 .bss           0x0000000000000000        0x0 e:/NXP/Sensor/WL_DoorLock/Build/pdum_apdu.o
 .text          0x0000000000000000        0x0 e:/NXP/Sensor/WL_DoorLock/Build/zps_gen.o
 .data          0x0000000000000000        0x0 e:/NXP/Sensor/WL_DoorLock/Build/zps_gen.o
 .bss           0x0000000000000000        0x0 e:/NXP/Sensor/WL_DoorLock/Build/zps_gen.o
 .text          0x0000000000000000        0x0 e:/NXP/Sensor/WL_DoorLock/Build/app_pdm.o (symbol from plugin)
 .data          0x0000000000000000        0x0 C:\Users\ADMINI~1\AppData\Local\Temp\ccuL4uDM.ltrans2.ltrans.o
 .rodata        0x0000000000000000        0x2 C:\Users\ADMINI~1\AppData\Local\Temp\ccuL4uDM.ltrans5.ltrans.o
 .data          0x0000000000000000        0x0 C:\Users\ADMINI~1\AppData\Local\Temp\ccuL4uDM.ltrans6.ltrans.o
 .data          0x0000000000000000        0x0 C:\Users\ADMINI~1\AppData\Local\Temp\ccuL4uDM.ltrans7.ltrans.o
 .bss           0x0000000000000000        0x0 C:\Users\ADMINI~1\AppData\Local\Temp\ccuL4uDM.ltrans8.ltrans.o
 .data          0x0000000000000000        0x0 C:\Users\ADMINI~1\AppData\Local\Temp\ccuL4uDM.ltrans9.ltrans.o
 .data          0x0000000000000000        0x0 C:\Users\ADMINI~1\AppData\Local\Temp\ccuL4uDM.ltrans10.ltrans.o
 .data          0x0000000000000000        0x0 C:\Users\ADMINI~1\AppData\Local\Temp\ccuL4uDM.ltrans11.ltrans.o
 .data          0x0000000000000000        0x0 C:\Users\ADMINI~1\AppData\Local\Temp\ccuL4uDM.ltrans12.ltrans.o
 .data          0x0000000000000000        0x0 C:\Users\ADMINI~1\AppData\Local\Temp\ccuL4uDM.ltrans13.ltrans.o
 .bss           0x0000000000000000        0x0 C:\Users\ADMINI~1\AppData\Local\Temp\ccuL4uDM.ltrans13.ltrans.o
 .data          0x0000000000000000        0x0 C:\Users\ADMINI~1\AppData\Local\Temp\ccuL4uDM.ltrans14.ltrans.o
 .bss           0x0000000000000000        0x0 C:\Users\ADMINI~1\AppData\Local\Temp\ccuL4uDM.ltrans14.ltrans.o
 .data          0x0000000000000000        0x0 C:\Users\ADMINI~1\AppData\Local\Temp\ccuL4uDM.ltrans16.ltrans.o
 .data          0x0000000000000000        0x0 C:\Users\ADMINI~1\AppData\Local\Temp\ccuL4uDM.ltrans19.ltrans.o
 .data          0x0000000000000000        0x0 C:\Users\ADMINI~1\AppData\Local\Temp\ccuL4uDM.ltrans20.ltrans.o
 .rodata        0x0000000000000000        0x1 C:\Users\ADMINI~1\AppData\Local\Temp\ccuL4uDM.ltrans20.ltrans.o
 .data          0x0000000000000000        0x0 C:\Users\ADMINI~1\AppData\Local\Temp\ccuL4uDM.ltrans21.ltrans.o
 .rodata        0x0000000000000000        0x1 C:\Users\ADMINI~1\AppData\Local\Temp\ccuL4uDM.ltrans21.ltrans.o
 .data          0x0000000000000000        0x0 C:\Users\ADMINI~1\AppData\Local\Temp\ccuL4uDM.ltrans22.ltrans.o
 .data          0x0000000000000000        0x0 C:\Users\ADMINI~1\AppData\Local\Temp\ccuL4uDM.ltrans24.ltrans.o
 .rodata        0x0000000000000000        0x1 C:\Users\ADMINI~1\AppData\Local\Temp\ccuL4uDM.ltrans24.ltrans.o
 .data          0x0000000000000000        0x0 C:\Users\ADMINI~1\AppData\Local\Temp\ccuL4uDM.ltrans25.ltrans.o
 .data          0x0000000000000000        0x0 C:\Users\ADMINI~1\AppData\Local\Temp\ccuL4uDM.ltrans26.ltrans.o
 .bss           0x0000000000000000        0x0 C:\Users\ADMINI~1\AppData\Local\Temp\ccuL4uDM.ltrans26.ltrans.o
 .data          0x0000000000000000        0x0 C:\Users\ADMINI~1\AppData\Local\Temp\ccuL4uDM.ltrans28.ltrans.o
 .data          0x0000000000000000        0x0 C:\Users\ADMINI~1\AppData\Local\Temp\ccuL4uDM.ltrans29.ltrans.o
 .data          0x0000000000000000        0x0 C:\Users\ADMINI~1\AppData\Local\Temp\ccuL4uDM.ltrans30.ltrans.o
 .data          0x0000000000000000        0x0 e:/nxp/bstudio_nxp/sdk/tools/ba-elf-ba2-r36379/bin/../lib/gcc/ba-elf/4.7.4/../../../../ba-elf/lib/mcpu_jn51xx_sizeopt\libc.a(lib_a-memcmp.o)
 .bss           0x0000000000000000        0x0 e:/nxp/bstudio_nxp/sdk/tools/ba-elf-ba2-r36379/bin/../lib/gcc/ba-elf/4.7.4/../../../../ba-elf/lib/mcpu_jn51xx_sizeopt\libc.a(lib_a-memcmp.o)
 .data          0x0000000000000000        0x0 e:/nxp/bstudio_nxp/sdk/tools/ba-elf-ba2-r36379/bin/../lib/gcc/ba-elf/4.7.4/../../../../ba-elf/lib/mcpu_jn51xx_sizeopt\libc.a(lib_a-memcpy.o)
 .bss           0x0000000000000000        0x0 e:/nxp/bstudio_nxp/sdk/tools/ba-elf-ba2-r36379/bin/../lib/gcc/ba-elf/4.7.4/../../../../ba-elf/lib/mcpu_jn51xx_sizeopt\libc.a(lib_a-memcpy.o)
 .data          0x0000000000000000        0x0 e:/nxp/bstudio_nxp/sdk/tools/ba-elf-ba2-r36379/bin/../lib/gcc/ba-elf/4.7.4/../../../../ba-elf/lib/mcpu_jn51xx_sizeopt\libc.a(lib_a-memset.o)
 .bss           0x0000000000000000        0x0 e:/nxp/bstudio_nxp/sdk/tools/ba-elf-ba2-r36379/bin/../lib/gcc/ba-elf/4.7.4/../../../../ba-elf/lib/mcpu_jn51xx_sizeopt\libc.a(lib_a-memset.o)
 .data          0x0000000000000000        0x0 e:/nxp/bstudio_nxp/sdk/tools/ba-elf-ba2-r36379/bin/../lib/gcc/ba-elf/4.7.4/mcpu_jn51xx_sizeopt\libgcc.a(__udivsi3.o)
 .bss           0x0000000000000000        0x0 e:/nxp/bstudio_nxp/sdk/tools/ba-elf-ba2-r36379/bin/../lib/gcc/ba-elf/4.7.4/mcpu_jn51xx_sizeopt\libgcc.a(__udivsi3.o)
 .data          0x0000000000000000        0x0 e:/nxp/bstudio_nxp/sdk/tools/ba-elf-ba2-r36379/bin/../lib/gcc/ba-elf/4.7.4/mcpu_jn51xx_sizeopt\libgcc.a(__divsi3.o)
 .bss           0x0000000000000000        0x0 e:/nxp/bstudio_nxp/sdk/tools/ba-elf-ba2-r36379/bin/../lib/gcc/ba-elf/4.7.4/mcpu_jn51xx_sizeopt\libgcc.a(__divsi3.o)
 .data          0x0000000000000000        0x0 e:/nxp/bstudio_nxp/sdk/tools/ba-elf-ba2-r36379/bin/../lib/gcc/ba-elf/4.7.4/mcpu_jn51xx_sizeopt\libgcc.a(__umodsi3.o)
 .bss           0x0000000000000000        0x0 e:/nxp/bstudio_nxp/sdk/tools/ba-elf-ba2-r36379/bin/../lib/gcc/ba-elf/4.7.4/mcpu_jn51xx_sizeopt\libgcc.a(__umodsi3.o)
 .data          0x0000000000000000        0x0 e:/nxp/bstudio_nxp/sdk/tools/ba-elf-ba2-r36379/bin/../lib/gcc/ba-elf/4.7.4/mcpu_jn51xx_sizeopt\libgcc.a(__modsi3.o)
 .bss           0x0000000000000000        0x0 e:/nxp/bstudio_nxp/sdk/tools/ba-elf-ba2-r36379/bin/../lib/gcc/ba-elf/4.7.4/mcpu_jn51xx_sizeopt\libgcc.a(__modsi3.o)
 .data          0x0000000000000000        0x0 e:/nxp/bstudio_nxp/sdk/tools/ba-elf-ba2-r36379/bin/../lib/gcc/ba-elf/4.7.4/mcpu_jn51xx_sizeopt\libgcc.a(_muldi3.o)
 .bss           0x0000000000000000        0x0 e:/nxp/bstudio_nxp/sdk/tools/ba-elf-ba2-r36379/bin/../lib/gcc/ba-elf/4.7.4/mcpu_jn51xx_sizeopt\libgcc.a(_muldi3.o)
 .data          0x0000000000000000        0x0 e:/nxp/bstudio_nxp/sdk/tools/ba-elf-ba2-r36379/bin/../lib/gcc/ba-elf/4.7.4/mcpu_jn51xx_sizeopt\libgcc.a(_udivdi3.o)
 .bss           0x0000000000000000        0x0 e:/nxp/bstudio_nxp/sdk/tools/ba-elf-ba2-r36379/bin/../lib/gcc/ba-elf/4.7.4/mcpu_jn51xx_sizeopt\libgcc.a(_udivdi3.o)
 .eh_frame      0x0000000000000000       0x38 e:/nxp/bstudio_nxp/sdk/tools/ba-elf-ba2-r36379/bin/../lib/gcc/ba-elf/4.7.4/mcpu_jn51xx_sizeopt\libgcc.a(_udivdi3.o)
 .text          0x0000000000000000        0x0 e:/NXP/Sensor/WL_DoorLock/Build/app_main.o (symbol from plugin)
 .text          0x0000000000000000        0x0 e:/NXP/Sensor/WL_DoorLock/Build/app_reporting.o (symbol from plugin)
 .text          0x0000000000000000        0x0 e:/NXP/Sensor/WL_DoorLock/Build/app_start_sensor.o (symbol from plugin)
 .text          0x0000000000000000        0x0 e:/NXP/Sensor/WL_DoorLock/Build/App_WL_DoorLock.o (symbol from plugin)
 .text          0x0000000000000000        0x0 e:/NXP/Sensor/WL_DoorLock/Build/app_zlo_sensor_node.o (symbol from plugin)
 .text          0x0000000000000000        0x0 e:/NXP/Sensor/WL_DoorLock/Build/app_zcl_sensor_task.o (symbol from plugin)
 .text          0x0000000000000000        0x0 e:/NXP/Sensor/WL_DoorLock/Build/app_occupancy_buttons.o (symbol from plugin)
 .text          0x0000000000000000        0x0 e:/NXP/Sensor/WL_DoorLock/Build/app_SampleDoorLock_Uart.o (symbol from plugin)
 .text          0x0000000000000000        0x0 e:/NXP/Sensor/WL_DoorLock/Build/app_ota_client.o (symbol from plugin)
 .text          0x0000000000000000        0x0 e:/NXP/Sensor/WL_DoorLock/Build/app_occupancy_sensor_state_machine.o (symbol from plugin)
 .text          0x0000000000000000        0x0 e:/NXP/Sensor/WL_DoorLock/Build/app_sleep_handler.o (symbol from plugin)
 .text          0x0000000000000000        0x0 e:/NXP/Sensor/WL_DoorLock/Build/app_nwk_event_handler.o (symbol from plugin)
 .text          0x0000000000000000        0x0 e:/NXP/Sensor/WL_DoorLock/Build/app_event_handler.o (symbol from plugin)
 .text          0x0000000000000000        0x0 e:/NXP/Sensor/WL_DoorLock/Build/app_PIR_OpenCollector_events.o (symbol from plugin)
 .text          0x0000000000000000        0x0 e:/NXP/Sensor/WL_DoorLock/Build/app_zcl_tick_handler.o (symbol from plugin)
 .text          0x0000000000000000        0x0 e:/NXP/Sensor/WL_DoorLock/Build/app_blink_led.o (symbol from plugin)
 .text          0x0000000000000000        0x0 e:/NXP/Sensor/WL_DoorLock/Build/Alarms.o (symbol from plugin)
 .text          0x0000000000000000        0x0 e:/NXP/Sensor/WL_DoorLock/Build/AlarmsClientCommands.o (symbol from plugin)
 .text          0x0000000000000000        0x0 e:/NXP/Sensor/WL_DoorLock/Build/AlarmsCommandHandler.o (symbol from plugin)
 .text          0x0000000000000000        0x0 e:/NXP/Sensor/WL_DoorLock/Build/AlarmsServerCommands.o (symbol from plugin)
 .text          0x0000000000000000        0x0 e:/NXP/Sensor/WL_DoorLock/Build/AlarmsTableManager.o (symbol from plugin)
 .text          0x0000000000000000        0x0 e:/NXP/Sensor/WL_DoorLock/Build/AnalogInputBasic.o (symbol from plugin)
 .text          0x0000000000000000        0x0 e:/NXP/Sensor/WL_DoorLock/Build/AnalogOutputBasic.o (symbol from plugin)
 .text          0x0000000000000000        0x0 e:/NXP/Sensor/WL_DoorLock/Build/Basic.o (symbol from plugin)
 .text          0x0000000000000000        0x0 e:/NXP/Sensor/WL_DoorLock/Build/BasicClientCommands.o (symbol from plugin)
 .text          0x0000000000000000        0x0 e:/NXP/Sensor/WL_DoorLock/Build/BasicCommandHandler.o (symbol from plugin)
 .text          0x0000000000000000        0x0 e:/NXP/Sensor/WL_DoorLock/Build/BinaryInputBasic.o (symbol from plugin)
 .text          0x0000000000000000        0x0 e:/NXP/Sensor/WL_DoorLock/Build/BinaryOutputBasic.o (symbol from plugin)
 .text          0x0000000000000000        0x0 e:/NXP/Sensor/WL_DoorLock/Build/DeviceTemperatureConfiguration.o (symbol from plugin)
 .text          0x0000000000000000        0x0 e:/NXP/Sensor/WL_DoorLock/Build/Diagnostics.o (symbol from plugin)
 .text          0x0000000000000000        0x0 e:/NXP/Sensor/WL_DoorLock/Build/Groups.o (symbol from plugin)
 .text          0x0000000000000000        0x0 e:/NXP/Sensor/WL_DoorLock/Build/GroupsClientCommands.o (symbol from plugin)
 .text          0x0000000000000000        0x0 e:/NXP/Sensor/WL_DoorLock/Build/GroupsCommandHandler.o (symbol from plugin)
 .text          0x0000000000000000        0x0 e:/NXP/Sensor/WL_DoorLock/Build/GroupsServerCommands.o (symbol from plugin)
 .text          0x0000000000000000        0x0 e:/NXP/Sensor/WL_DoorLock/Build/GroupsTableManager.o (symbol from plugin)
 .text          0x0000000000000000        0x0 e:/NXP/Sensor/WL_DoorLock/Build/Identify.o (symbol from plugin)
 .text          0x0000000000000000        0x0 e:/NXP/Sensor/WL_DoorLock/Build/IdentifyClientCommands.o (symbol from plugin)
 .text          0x0000000000000000        0x0 e:/NXP/Sensor/WL_DoorLock/Build/IdentifyCommandHandler.o (symbol from plugin)
 .text          0x0000000000000000        0x0 e:/NXP/Sensor/WL_DoorLock/Build/IdentifyServerCommands.o (symbol from plugin)
 .text          0x0000000000000000        0x0 e:/NXP/Sensor/WL_DoorLock/Build/LevelControl.o (symbol from plugin)
 .text          0x0000000000000000        0x0 e:/NXP/Sensor/WL_DoorLock/Build/LevelControlClientCommands.o (symbol from plugin)
 .text          0x0000000000000000        0x0 e:/NXP/Sensor/WL_DoorLock/Build/LevelControlCommandHandler.o (symbol from plugin)
 .text          0x0000000000000000        0x0 e:/NXP/Sensor/WL_DoorLock/Build/MultistateInputBasic.o (symbol from plugin)
 .text          0x0000000000000000        0x0 e:/NXP/Sensor/WL_DoorLock/Build/MultistateOutputBasic.o (symbol from plugin)
 .text          0x0000000000000000        0x0 e:/NXP/Sensor/WL_DoorLock/Build/OOSC.o (symbol from plugin)
 .text          0x0000000000000000        0x0 e:/NXP/Sensor/WL_DoorLock/Build/OnOff.o (symbol from plugin)
 .text          0x0000000000000000        0x0 e:/NXP/Sensor/WL_DoorLock/Build/OnOffCommandHandler.o (symbol from plugin)
 .text          0x0000000000000000        0x0 e:/NXP/Sensor/WL_DoorLock/Build/OnOffCommands.o (symbol from plugin)
 .text          0x0000000000000000        0x0 e:/NXP/Sensor/WL_DoorLock/Build/PollControl.o (symbol from plugin)
 .text          0x0000000000000000        0x0 e:/NXP/Sensor/WL_DoorLock/Build/PollControlClientCommands.o (symbol from plugin)
 .text          0x0000000000000000        0x0 e:/NXP/Sensor/WL_DoorLock/Build/PollControlCommandHandler.o (symbol from plugin)
 .text          0x0000000000000000        0x0 e:/NXP/Sensor/WL_DoorLock/Build/PollControlServerCommands.o (symbol from plugin)
 .text          0x0000000000000000        0x0 e:/NXP/Sensor/WL_DoorLock/Build/PowerConfiguration.o (symbol from plugin)
 .text          0x0000000000000000        0x0 e:/NXP/Sensor/WL_DoorLock/Build/PowerProfile.o (symbol from plugin)
 .text          0x0000000000000000        0x0 e:/NXP/Sensor/WL_DoorLock/Build/PowerProfileClientCommands.o (symbol from plugin)
 .text          0x0000000000000000        0x0 e:/NXP/Sensor/WL_DoorLock/Build/PowerProfileCommandHandler.o (symbol from plugin)
 .text          0x0000000000000000        0x0 e:/NXP/Sensor/WL_DoorLock/Build/PowerProfileServerCommands.o (symbol from plugin)
 .text          0x0000000000000000        0x0 e:/NXP/Sensor/WL_DoorLock/Build/Scenes.o (symbol from plugin)
 .text          0x0000000000000000        0x0 e:/NXP/Sensor/WL_DoorLock/Build/ScenesClientCommands.o (symbol from plugin)
 .text          0x0000000000000000        0x0 e:/NXP/Sensor/WL_DoorLock/Build/ScenesClusterManagement.o (symbol from plugin)
 .text          0x0000000000000000        0x0 e:/NXP/Sensor/WL_DoorLock/Build/ScenesCommandHandler.o (symbol from plugin)
 .text          0x0000000000000000        0x0 e:/NXP/Sensor/WL_DoorLock/Build/ScenesServerCommands.o (symbol from plugin)
 .text          0x0000000000000000        0x0 e:/NXP/Sensor/WL_DoorLock/Build/ScenesTableManager.o (symbol from plugin)
 .text          0x0000000000000000        0x0 e:/NXP/Sensor/WL_DoorLock/Build/TC.o (symbol from plugin)
 .text          0x0000000000000000        0x0 e:/NXP/Sensor/WL_DoorLock/Build/Time.o (symbol from plugin)
 .text          0x0000000000000000        0x0 e:/NXP/Sensor/WL_DoorLock/Build/base_device.o (symbol from plugin)
 .text          0x0000000000000000        0x0 e:/NXP/Sensor/WL_DoorLock/Build/mains_power_outlet.o (symbol from plugin)
 .text          0x0000000000000000        0x0 e:/NXP/Sensor/WL_DoorLock/Build/on_off_output.o (symbol from plugin)
 .text          0x0000000000000000        0x0 e:/NXP/Sensor/WL_DoorLock/Build/remote_control.o (symbol from plugin)
 .text          0x0000000000000000        0x0 e:/NXP/Sensor/WL_DoorLock/Build/simple_sensor.o (symbol from plugin)
 .text          0x0000000000000000        0x0 e:/NXP/Sensor/WL_DoorLock/Build/ElectricalMeasurement.o (symbol from plugin)
 .text          0x0000000000000000        0x0 e:/NXP/Sensor/WL_DoorLock/Build/FlowMeasurement.o (symbol from plugin)
 .text          0x0000000000000000        0x0 e:/NXP/Sensor/WL_DoorLock/Build/IlluminanceLevelSensing.o (symbol from plugin)
 .text          0x0000000000000000        0x0 e:/NXP/Sensor/WL_DoorLock/Build/IlluminanceMeasurement.o (symbol from plugin)
 .text          0x0000000000000000        0x0 e:/NXP/Sensor/WL_DoorLock/Build/OccupancySensing.o (symbol from plugin)
 .text          0x0000000000000000        0x0 e:/NXP/Sensor/WL_DoorLock/Build/PressureMeasurement.o (symbol from plugin)
 .text          0x0000000000000000        0x0 e:/NXP/Sensor/WL_DoorLock/Build/RelativeHumidityMeasurement.o (symbol from plugin)
 .text          0x0000000000000000        0x0 e:/NXP/Sensor/WL_DoorLock/Build/TemperatureMeasurement.o (symbol from plugin)
 .text          0x0000000000000000        0x0 e:/NXP/Sensor/WL_DoorLock/Build/BallastConfiguration.o (symbol from plugin)
 .text          0x0000000000000000        0x0 e:/NXP/Sensor/WL_DoorLock/Build/ColourControl.o (symbol from plugin)
 .text          0x0000000000000000        0x0 e:/NXP/Sensor/WL_DoorLock/Build/ColourControlClientCommands.o (symbol from plugin)
 .text          0x0000000000000000        0x0 e:/NXP/Sensor/WL_DoorLock/Build/ColourControlCommandHandler.o (symbol from plugin)
 .text          0x0000000000000000        0x0 e:/NXP/Sensor/WL_DoorLock/Build/ColourControlConversions.o (symbol from plugin)
 .text          0x0000000000000000        0x0 e:/NXP/Sensor/WL_DoorLock/Build/colour_controller.o (symbol from plugin)
 .text          0x0000000000000000        0x0 e:/NXP/Sensor/WL_DoorLock/Build/colour_dimmable_light.o (symbol from plugin)
 .text          0x0000000000000000        0x0 e:/NXP/Sensor/WL_DoorLock/Build/colour_dimmer_switch.o (symbol from plugin)
 .text          0x0000000000000000        0x0 e:/NXP/Sensor/WL_DoorLock/Build/colour_scene_controller.o (symbol from plugin)
 .text          0x0000000000000000        0x0 e:/NXP/Sensor/WL_DoorLock/Build/colour_temperature_light.o (symbol from plugin)
 .text          0x0000000000000000        0x0 e:/NXP/Sensor/WL_DoorLock/Build/commission_endpoint.o (symbol from plugin)
 .text          0x0000000000000000        0x0 e:/NXP/Sensor/WL_DoorLock/Build/control_bridge.o (symbol from plugin)
 .text          0x0000000000000000        0x0 e:/NXP/Sensor/WL_DoorLock/Build/dimmable_ballast.o (symbol from plugin)
 .text          0x0000000000000000        0x0 e:/NXP/Sensor/WL_DoorLock/Build/dimmable_light.o (symbol from plugin)
 .text          0x0000000000000000        0x0 e:/NXP/Sensor/WL_DoorLock/Build/dimmable_plug.o (symbol from plugin)
 .text          0x0000000000000000        0x0 e:/NXP/Sensor/WL_DoorLock/Build/dimmer_switch.o (symbol from plugin)
 .text          0x0000000000000000        0x0 e:/NXP/Sensor/WL_DoorLock/Build/extended_colour_light.o (symbol from plugin)
 .text          0x0000000000000000        0x0 e:/NXP/Sensor/WL_DoorLock/Build/light_level_sensor.o (symbol from plugin)
 .text          0x0000000000000000        0x0 e:/NXP/Sensor/WL_DoorLock/Build/light_sensor.o (symbol from plugin)
 .text          0x0000000000000000        0x0 e:/NXP/Sensor/WL_DoorLock/Build/non_colour_controller.o (symbol from plugin)
 .text          0x0000000000000000        0x0 e:/NXP/Sensor/WL_DoorLock/Build/non_colour_scene_controller.o (symbol from plugin)
 .text          0x0000000000000000        0x0 e:/NXP/Sensor/WL_DoorLock/Build/occupancy_sensor.o (symbol from plugin)
 .text          0x0000000000000000        0x0 e:/NXP/Sensor/WL_DoorLock/Build/on_off_ballast.o (symbol from plugin)
 .text          0x0000000000000000        0x0 e:/NXP/Sensor/WL_DoorLock/Build/on_off_light.o (symbol from plugin)
 .text          0x0000000000000000        0x0 e:/NXP/Sensor/WL_DoorLock/Build/on_off_light_switch.o (symbol from plugin)
 .text          0x0000000000000000        0x0 e:/NXP/Sensor/WL_DoorLock/Build/on_off_plug.o (symbol from plugin)
 .text          0x0000000000000000        0x0 e:/NXP/Sensor/WL_DoorLock/Build/on_off_sensor.o (symbol from plugin)
 .text          0x0000000000000000        0x0 e:/NXP/Sensor/WL_DoorLock/Build/DoorLock.o (symbol from plugin)
 .text          0x0000000000000000        0x0 e:/NXP/Sensor/WL_DoorLock/Build/DoorLockCommandHandler.o (symbol from plugin)
 .text          0x0000000000000000        0x0 e:/NXP/Sensor/WL_DoorLock/Build/DoorLockCommands.o (symbol from plugin)
 .text          0x0000000000000000        0x0 e:/NXP/Sensor/WL_DoorLock/Build/door_lock.o (symbol from plugin)
 .text          0x0000000000000000        0x0 e:/NXP/Sensor/WL_DoorLock/Build/door_lock_controller.o (symbol from plugin)
 .text          0x0000000000000000        0x0 e:/NXP/Sensor/WL_DoorLock/Build/IASACE.o (symbol from plugin)
 .text          0x0000000000000000        0x0 e:/NXP/Sensor/WL_DoorLock/Build/IASACEClientCommands.o (symbol from plugin)
 .text          0x0000000000000000        0x0 e:/NXP/Sensor/WL_DoorLock/Build/IASACECommandHandler.o (symbol from plugin)
 .text          0x0000000000000000        0x0 e:/NXP/Sensor/WL_DoorLock/Build/IASACEServerCommands.o (symbol from plugin)
 .text          0x0000000000000000        0x0 e:/NXP/Sensor/WL_DoorLock/Build/IASWD.o (symbol from plugin)
 .text          0x0000000000000000        0x0 e:/NXP/Sensor/WL_DoorLock/Build/IASWDCommandHandler.o (symbol from plugin)
 .text          0x0000000000000000        0x0 e:/NXP/Sensor/WL_DoorLock/Build/IASWDCommands.o (symbol from plugin)
 .text          0x0000000000000000        0x0 e:/NXP/Sensor/WL_DoorLock/Build/IASZone.o (symbol from plugin)
 .text          0x0000000000000000        0x0 e:/NXP/Sensor/WL_DoorLock/Build/IASZoneCommandHandler.o (symbol from plugin)
 .text          0x0000000000000000        0x0 e:/NXP/Sensor/WL_DoorLock/Build/IASZoneCommands.o (symbol from plugin)
 .text          0x0000000000000000        0x0 e:/NXP/Sensor/WL_DoorLock/Build/ancillary_control_equipment.o (symbol from plugin)
 .text          0x0000000000000000        0x0 e:/NXP/Sensor/WL_DoorLock/Build/control_and_indicating_equipment.o (symbol from plugin)
 .text          0x0000000000000000        0x0 e:/NXP/Sensor/WL_DoorLock/Build/warning_device.o (symbol from plugin)
 .text          0x0000000000000000        0x0 e:/NXP/Sensor/WL_DoorLock/Build/zone.o (symbol from plugin)
 .text          0x0000000000000000        0x0 e:/NXP/Sensor/WL_DoorLock/Build/OTA.o (symbol from plugin)
 .text          0x0000000000000000        0x0 e:/NXP/Sensor/WL_DoorLock/Build/OTA_ClientUpgradeManager.o (symbol from plugin)
 .text          0x0000000000000000        0x0 e:/NXP/Sensor/WL_DoorLock/Build/OTA_CustomCommandHandler.o (symbol from plugin)
 .text          0x0000000000000000        0x0 e:/NXP/Sensor/WL_DoorLock/Build/OTA_CustomReceiveCommands.o (symbol from plugin)
 .text          0x0000000000000000        0x0 e:/NXP/Sensor/WL_DoorLock/Build/OTA_ServerUpgradeManager.o (symbol from plugin)
 .text          0x0000000000000000        0x0 e:/NXP/Sensor/WL_DoorLock/Build/OTA_client.o (symbol from plugin)
 .text          0x0000000000000000        0x0 e:/NXP/Sensor/WL_DoorLock/Build/OTA_common.o (symbol from plugin)
 .text          0x0000000000000000        0x0 e:/NXP/Sensor/WL_DoorLock/Build/OTA_server.o (symbol from plugin)
 .text          0x0000000000000000        0x0 e:/NXP/Sensor/WL_DoorLock/Build/Commissioning.o (symbol from plugin)
 .text          0x0000000000000000        0x0 e:/NXP/Sensor/WL_DoorLock/Build/CommissioningClientCommands.o (symbol from plugin)
 .text          0x0000000000000000        0x0 e:/NXP/Sensor/WL_DoorLock/Build/CommissioningCmdHandler.o (symbol from plugin)
 .text          0x0000000000000000        0x0 e:/NXP/Sensor/WL_DoorLock/Build/CommissioningServerCommands.o (symbol from plugin)
 .text          0x0000000000000000        0x0 e:/NXP/Sensor/WL_DoorLock/Build/zll_CommissionCmdHandler.o (symbol from plugin)
 .text          0x0000000000000000        0x0 e:/NXP/Sensor/WL_DoorLock/Build/zll_UtilityCmdHandler.o (symbol from plugin)
 .text          0x0000000000000000        0x0 e:/NXP/Sensor/WL_DoorLock/Build/zll_commission.o (symbol from plugin)
 .text          0x0000000000000000        0x0 e:/NXP/Sensor/WL_DoorLock/Build/zll_utility.o (symbol from plugin)
 .text          0x0000000000000000        0x0 e:/NXP/Sensor/WL_DoorLock/Build/dlist.o (symbol from plugin)
 .text          0x0000000000000000        0x0 e:/NXP/Sensor/WL_DoorLock/Build/zcl.o (symbol from plugin)
 .text          0x0000000000000000        0x0 e:/NXP/Sensor/WL_DoorLock/Build/zcl_CustomCommandReceive.o (symbol from plugin)
 .text          0x0000000000000000        0x0 e:/NXP/Sensor/WL_DoorLock/Build/zcl_CustomCommandSend.o (symbol from plugin)
 .text          0x0000000000000000        0x0 e:/NXP/Sensor/WL_DoorLock/Build/zcl_PDUbufferReadWrite.o (symbol from plugin)
 .text          0x0000000000000000        0x0 e:/NXP/Sensor/WL_DoorLock/Build/zcl_PDUbufferReadWriteString.o (symbol from plugin)
 .text          0x0000000000000000        0x0 e:/NXP/Sensor/WL_DoorLock/Build/zcl_WriteAttributesRequestHandle.o (symbol from plugin)
 .text          0x0000000000000000        0x0 e:/NXP/Sensor/WL_DoorLock/Build/zcl_WriteAttributesRequestSend.o (symbol from plugin)
 .text          0x0000000000000000        0x0 e:/NXP/Sensor/WL_DoorLock/Build/zcl_WriteAttributesResponseHandle.o (symbol from plugin)
 .text          0x0000000000000000        0x0 e:/NXP/Sensor/WL_DoorLock/Build/zcl_attribute.o (symbol from plugin)
 .text          0x0000000000000000        0x0 e:/NXP/Sensor/WL_DoorLock/Build/zcl_buffer.o (symbol from plugin)
 .text          0x0000000000000000        0x0 e:/NXP/Sensor/WL_DoorLock/Build/zcl_clusterCommand.o (symbol from plugin)
 .text          0x0000000000000000        0x0 e:/NXP/Sensor/WL_DoorLock/Build/zcl_command.o (symbol from plugin)
 .text          0x0000000000000000        0x0 e:/NXP/Sensor/WL_DoorLock/Build/zcl_common.o (symbol from plugin)
 .text          0x0000000000000000        0x0 e:/NXP/Sensor/WL_DoorLock/Build/zcl_configureReportingCommandHandle.o (symbol from plugin)
 .text          0x0000000000000000        0x0 e:/NXP/Sensor/WL_DoorLock/Build/zcl_configureReportingCommandSend.o (symbol from plugin)
 .text          0x0000000000000000        0x0 e:/NXP/Sensor/WL_DoorLock/Build/zcl_configureReportingResponseHandle.o (symbol from plugin)
 .text          0x0000000000000000        0x0 e:/NXP/Sensor/WL_DoorLock/Build/zcl_defaultResponse.o (symbol from plugin)
 .text          0x0000000000000000        0x0 e:/NXP/Sensor/WL_DoorLock/Build/zcl_discoverAttributesExtendedRequestHandle.o (symbol from plugin)
 .text          0x0000000000000000        0x0 e:/NXP/Sensor/WL_DoorLock/Build/zcl_discoverAttributesExtendedRequestSend.o (symbol from plugin)
 .text          0x0000000000000000        0x0 e:/NXP/Sensor/WL_DoorLock/Build/zcl_discoverAttributesExtendedResponseHandle.o (symbol from plugin)
 .text          0x0000000000000000        0x0 e:/NXP/Sensor/WL_DoorLock/Build/zcl_discoverAttributesRequestHandle.o (symbol from plugin)
 .text          0x0000000000000000        0x0 e:/NXP/Sensor/WL_DoorLock/Build/zcl_discoverAttributesRequestSend.o (symbol from plugin)
 .text          0x0000000000000000        0x0 e:/NXP/Sensor/WL_DoorLock/Build/zcl_discoverAttributesResponseHandle.o (symbol from plugin)
 .text          0x0000000000000000        0x0 e:/NXP/Sensor/WL_DoorLock/Build/zcl_discoverCommandsRequestHandle.o (symbol from plugin)
 .text          0x0000000000000000        0x0 e:/NXP/Sensor/WL_DoorLock/Build/zcl_discoverCommandsRequestSend.o (symbol from plugin)
 .text          0x0000000000000000        0x0 e:/NXP/Sensor/WL_DoorLock/Build/zcl_discoverCommandsResponseHandle.o (symbol from plugin)
 .text          0x0000000000000000        0x0 e:/NXP/Sensor/WL_DoorLock/Build/zcl_event.o (symbol from plugin)
 .text          0x0000000000000000        0x0 e:/NXP/Sensor/WL_DoorLock/Build/zcl_heap.o (symbol from plugin)
 .text          0x0000000000000000        0x0 e:/NXP/Sensor/WL_DoorLock/Build/zcl_library_options.o (symbol from plugin)
 .text          0x0000000000000000        0x0 e:/NXP/Sensor/WL_DoorLock/Build/zcl_readAttributesRequestHandle.o (symbol from plugin)
 .text          0x0000000000000000        0x0 e:/NXP/Sensor/WL_DoorLock/Build/zcl_readAttributesRequestSend.o (symbol from plugin)
 .text          0x0000000000000000        0x0 e:/NXP/Sensor/WL_DoorLock/Build/zcl_readAttributesResponseHandle.o (symbol from plugin)
 .text          0x0000000000000000        0x0 e:/NXP/Sensor/WL_DoorLock/Build/zcl_readReportingConfigurationCommandHandle.o (symbol from plugin)
 .text          0x0000000000000000        0x0 e:/NXP/Sensor/WL_DoorLock/Build/zcl_readReportingConfigurationCommandSend.o (symbol from plugin)
 .text          0x0000000000000000        0x0 e:/NXP/Sensor/WL_DoorLock/Build/zcl_readReportingConfigurationResponseHandle.o (symbol from plugin)
 .text          0x0000000000000000        0x0 e:/NXP/Sensor/WL_DoorLock/Build/zcl_reportManager.o (symbol from plugin)
 .text          0x0000000000000000        0x0 e:/NXP/Sensor/WL_DoorLock/Build/zcl_reportMaths.o (symbol from plugin)
 .text          0x0000000000000000        0x0 e:/NXP/Sensor/WL_DoorLock/Build/zcl_reportScheduler.o (symbol from plugin)
 .text          0x0000000000000000        0x0 e:/NXP/Sensor/WL_DoorLock/Build/zcl_reportStringHandling.o (symbol from plugin)
 .text          0x0000000000000000        0x0 e:/NXP/Sensor/WL_DoorLock/Build/zcl_reportStructure.o (symbol from plugin)
 .text          0x0000000000000000        0x0 e:/NXP/Sensor/WL_DoorLock/Build/zcl_search.o (symbol from plugin)
 .text          0x0000000000000000        0x0 e:/NXP/Sensor/WL_DoorLock/Build/zcl_timer.o (symbol from plugin)
 .text          0x0000000000000000        0x0 e:/NXP/Sensor/WL_DoorLock/Build/zcl_transmit.o (symbol from plugin)
 .text          0x0000000000000000        0x0 e:/NXP/Sensor/WL_DoorLock/Build/bdb_fr.o (symbol from plugin)
 .text          0x0000000000000000        0x0 e:/NXP/Sensor/WL_DoorLock/Build/bdb_link_keys.o (symbol from plugin)
 .text          0x0000000000000000        0x0 e:/NXP/Sensor/WL_DoorLock/Build/bdb_start.o (symbol from plugin)
 .text          0x0000000000000000        0x0 e:/NXP/Sensor/WL_DoorLock/Build/bdb_state_machine.o (symbol from plugin)
 .text          0x0000000000000000        0x0 e:/NXP/Sensor/WL_DoorLock/Build/ZQueue.o (symbol from plugin)
 .text          0x0000000000000000        0x0 e:/NXP/Sensor/WL_DoorLock/Build/ZTimer.o (symbol from plugin)
 .text          0x0000000000000000        0x0 e:/NXP/Sensor/WL_DoorLock/Build/appZdpExtraction.o (symbol from plugin)
 .text          0x0000000000000000        0x0 e:/NXP/Sensor/WL_DoorLock/Build/appZpsBeaconHandler.o (symbol from plugin)
 .text          0x0000000000000000        0x0 e:/NXP/Sensor/WL_DoorLock/Build/appZpsExtendedDebug.o (symbol from plugin)
 .text          0x0000000000000000        0x0 e:/NXP/Sensor/WL_DoorLock/Build/port.o (symbol from plugin)
 .data          0x0000000000000000        0x0 e:/NXP/Sensor/WL_DoorLock/Build/portasm.o
 .bss           0x0000000000000000        0x0 e:/NXP/Sensor/WL_DoorLock/Build/portasm.o
 .text          0x0000000000000000        0x0 e:/NXP/Sensor/WL_DoorLock/Build/bdb_ns.o (symbol from plugin)
 .text          0x0000000000000000        0x0 e:/NXP/Sensor/WL_DoorLock/Build/bdb_tl_end_device_initiator_target.o (symbol from plugin)
 .text          0x0000000000000000        0x0 e:/NXP/Sensor/WL_DoorLock/Build/bdb_tl_common.o (symbol from plugin)
 .text          0x0000000000000000        0x0 e:/NXP/Sensor/WL_DoorLock/Build/ecb_decrypt.o (symbol from plugin)
 .text          0x0000000000000000        0x0 e:/NXP/Sensor/WL_DoorLock/Build/bdb_fb_common.o (symbol from plugin)
 .text          0x0000000000000000        0x0 e:/NXP/Sensor/WL_DoorLock/Build/bdb_fb_initiator.o (symbol from plugin)
 .text          0x0000000000000000        0x0 zps_mac_shim.o (symbol from plugin)
 .text          0x0000000000000000        0x0 zps_miniMac.o (symbol from plugin)
 .text          0x0000000000000000        0x0 pwrm.o (symbol from plugin)
 .data          0x0000000000000000        0x0 e:/NXP/bstudio_nxp/sdk/JN-SW-4170/Components/Library\libPWRM_JN516x.a(pwrm_setjmp_JN516x.o)
 .bss           0x0000000000000000        0x0 e:/NXP/bstudio_nxp/sdk/JN-SW-4170/Components/Library\libPWRM_JN516x.a(pwrm_setjmp_JN516x.o)
 .text          0x0000000000000000        0x0 pwrm_cold_start.o (symbol from plugin)
 .text          0x0000000000000000        0x0 pwrm_warm_start.o (symbol from plugin)
 .text          0x0000000000000000        0x0 aes_sw_mmo.o (symbol from plugin)
 .text          0x0000000000000000        0x0 pdum_nwk.o (symbol from plugin)
 .text          0x0000000000000000        0x0 pdum_apl.o (symbol from plugin)
 .text          0x0000000000000000        0x0 pdum.o (symbol from plugin)
 .data          0x0000000000000000        0x0 e:/NXP/bstudio_nxp/sdk/JN-SW-4170/Components/Library\libZPSAPL_JN516x.a(zps_apl_version_lc.o)
 .bss           0x0000000000000000        0x0 e:/NXP/bstudio_nxp/sdk/JN-SW-4170/Components/Library\libZPSAPL_JN516x.a(zps_apl_version_lc.o)
 .text          0x0000000000000000        0x0 zps_apl_af.o (symbol from plugin)
 .text          0x0000000000000000        0x0 zps_apl_af_apsde.o (symbol from plugin)
 .text          0x0000000000000000        0x0 zps_apl_task.o (symbol from plugin)
 .text          0x0000000000000000        0x0 zps_apl_apsde.o (symbol from plugin)
 .text          0x0000000000000000        0x0 zps_apl_apsme.o (symbol from plugin)
 .text          0x0000000000000000        0x0 zps_apl_aps_nlde.o (symbol from plugin)
 .text          0x0000000000000000        0x0 zps_apl_sec.o (symbol from plugin)
 .text          0x0000000000000000        0x0 zps_apl_aib.o (symbol from plugin)
 .text          0x0000000000000000        0x0 zps_apl_zdo_nwkmanager.o (symbol from plugin)
 .text          0x0000000000000000        0x0 zps_apl_zdo_handle_zdp_event.o (symbol from plugin)
 .text          0x0000000000000000        0x0 zps_apl_zdo_trust_center.o (symbol from plugin)
 .text          0x0000000000000000        0x0 zps_apl_zdo_common.o (symbol from plugin)
 .text          0x0000000000000000        0x0 zps_apl_zdo_group.o (symbol from plugin)
 .text          0x0000000000000000        0x0 zps_apl_zdo_default_server.o (symbol from plugin)
 .text          0x0000000000000000        0x0 zps_apl_zdo_bind_manager.o (symbol from plugin)
 .text          0x0000000000000000        0x0 zps_apl_mac_isr.o (symbol from plugin)
 .text          0x0000000000000000        0x0 zps_apl_zdo_nwk_addr_server.o (symbol from plugin)
 .text          0x0000000000000000        0x0 zps_apl_zdo_ieee_addr_server.o (symbol from plugin)
 .text          0x0000000000000000        0x0 zps_apl_zdo_match_desc_server.o (symbol from plugin)
 .text          0x0000000000000000        0x0 zps_apl_zdo_node_desc_server.o (symbol from plugin)
 .text          0x0000000000000000        0x0 zps_apl_zdo_simple_desc_server.o (symbol from plugin)
 .text          0x0000000000000000        0x0 zps_apl_zdo_power_desc_server.o (symbol from plugin)
 .text          0x0000000000000000        0x0 zps_apl_zdo_active_ep_server.o (symbol from plugin)
 .text          0x0000000000000000        0x0 zps_apl_zdo_device_annce_server.o (symbol from plugin)
 .text          0x0000000000000000        0x0 zps_apl_zdo_parent_annce_server.o (symbol from plugin)
 .text          0x0000000000000000        0x0 zps_apl_zdo_system_server_discovery_server.o (symbol from plugin)
 .text          0x0000000000000000        0x0 zps_apl_zdo_mgmt_lqi_server.o (symbol from plugin)
 .text          0x0000000000000000        0x0 zps_apl_zdo_mgmt_leave_server.o (symbol from plugin)
 .text          0x0000000000000000        0x0 zps_apl_zdo_mgmt_nwk_update_server.o (symbol from plugin)
 .text          0x0000000000000000        0x0 zps_apl_zdo_bind_unbind_server.o (symbol from plugin)
 .text          0x0000000000000000        0x0 zps_apl_zdo_bound_data_request_manager.o (symbol from plugin)
 .text          0x0000000000000000        0x0 zps_apl_zdo_nwkmanager_client.o (symbol from plugin)
 .text          0x0000000000000000        0x0 zps_apl_zdo_mgmt_bind_server.o (symbol from plugin)
 .text          0x0000000000000000        0x0 zps_apl_zdp_apsde_req.o (symbol from plugin)
 .text          0x0000000000000000        0x0 zps_apl_zdp_device_annce.o (symbol from plugin)
 .text          0x0000000000000000        0x0 zps_apl_zdp_ieee_addr_req.o (symbol from plugin)
 .text          0x0000000000000000        0x0 zps_apl_zdp_match_desc_req.o (symbol from plugin)
 .text          0x0000000000000000        0x0 zps_apl_zdp_mgmt_permit_joining_req.o (symbol from plugin)
 .text          0x0000000000000000        0x0 zps_apl_zdp_node_desc_req.o (symbol from plugin)
 .text          0x0000000000000000        0x0 zps_apl_zdp_simple_desc_req.o (symbol from plugin)
 .text          0x0000000000000000        0x0 zps_apl_zdp_nwk_addr_rsp.o (symbol from plugin)
 .text          0x0000000000000000        0x0 zps_apl_zdp_ieee_addr_rsp.o (symbol from plugin)
 .text          0x0000000000000000        0x0 zps_apl_zdp_node_desc_rsp.o (symbol from plugin)
 .text          0x0000000000000000        0x0 zps_apl_zdp_parent_annce_rsp.o (symbol from plugin)
 .text          0x0000000000000000        0x0 zps_apl_zdp_power_desc_rsp.o (symbol from plugin)
 .text          0x0000000000000000        0x0 zps_apl_zdp_simple_desc_rsp.o (symbol from plugin)
 .text          0x0000000000000000        0x0 zps_apl_zdp_active_ep_rsp.o (symbol from plugin)
 .text          0x0000000000000000        0x0 zps_apl_zdp_match_desc_rsp.o (symbol from plugin)
 .text          0x0000000000000000        0x0 zps_apl_zdp_system_server_discovery_rsp.o (symbol from plugin)
 .text          0x0000000000000000        0x0 zps_apl_zdp_bind_rsp.o (symbol from plugin)
 .text          0x0000000000000000        0x0 zps_apl_zdp_unbind_rsp.o (symbol from plugin)
 .text          0x0000000000000000        0x0 zps_apl_zdp_mgmt_lqi_rsp.o (symbol from plugin)
 .text          0x0000000000000000        0x0 zps_apl_zdp_mgmt_leave_rsp.o (symbol from plugin)
 .text          0x0000000000000000        0x0 zps_apl_zdp_mgmt_nwk_update_notify_rsp.o (symbol from plugin)
 .text          0x0000000000000000        0x0 rnd_main.o (symbol from plugin)
 .text          0x0000000000000000        0x0 PDM_Bitmap.o (symbol from plugin)
 .text          0x0000000000000000        0x0 PDM_Create.o (symbol from plugin)
 .text          0x0000000000000000        0x0 PDM_EEPROMsegmentStatus.o (symbol from plugin)
 .text          0x0000000000000000        0x0 PDM_FileSystem.o (symbol from plugin)
 .text          0x0000000000000000        0x0 PDM_FileSystemData.o (symbol from plugin)
 .text          0x0000000000000000        0x0 PDM_FileSystemDelete.o (symbol from plugin)
 .text          0x0000000000000000        0x0 PDM_FileSystemGenerate.o (symbol from plugin)
 .text          0x0000000000000000        0x0 PDM_FileSystemHeaderAccessFunctions.o (symbol from plugin)
 .text          0x0000000000000000        0x0 PDM_FileSystemHeaderRepair.o (symbol from plugin)
 .text          0x0000000000000000        0x0 PDM_FileSystemHeaderVerify.o (symbol from plugin)
 .text          0x0000000000000000        0x0 PDM_FileSystemMove.o (symbol from plugin)
 .text          0x0000000000000000        0x0 PDM_FileSystemVerify.o (symbol from plugin)
 .text          0x0000000000000000        0x0 PDM_ImageBitmapReconstruct.o (symbol from plugin)
 .text          0x0000000000000000        0x0 PDM_SearchAndListOrder.o (symbol from plugin)
 .text          0x0000000000000000        0x0 PDM_Segment.o (symbol from plugin)
 .text          0x0000000000000000        0x0 PDM_SegmentData.o (symbol from plugin)
 .text          0x0000000000000000        0x0 PDM_SegmentReplace.o (symbol from plugin)
 .text          0x0000000000000000        0x0 PDM_SegmentSequenceExtendDelete.o (symbol from plugin)
 .text          0x0000000000000000        0x0 PDM_SegmentSequenceExtendReconstruct.o (symbol from plugin)
 .text          0x0000000000000000        0x0 PDM_SegmentSequenceSave.o (symbol from plugin)
 .text          0x0000000000000000        0x0 PDM_slist.o (symbol from plugin)
 .text          0x0000000000000000        0x0 PDM_WearLevelling.o (symbol from plugin)
 .text          0x0000000000000000        0x0 PdmNoRtosStub.o (symbol from plugin)
 .text          0x0000000000000000        0x0 PDM_EEPROMheaderAccessFunctions.o (symbol from plugin)
 .text          0x0000000000000000        0x0 PDM_EEPROMheaderReadAndWrite.o (symbol from plugin)
 .text          0x0000000000000000        0x0 PDM_EEPROMReadAndWrite.o (symbol from plugin)
 .text          0x0000000000000000        0x0 PDM_FileSystemHeaderChecksum.o (symbol from plugin)
 .text          0x0000000000000000        0x0 PDM_RAMBitmap.o (symbol from plugin)
 .text          0x0000000000000000        0x0 PDM_SegmentSequenceExtendFilter.o (symbol from plugin)
 .text          0x0000000000000000        0x0 PDM_EEPROM.o (symbol from plugin)
 .text          0x0000000000000000        0x0 dbg.o (symbol from plugin)
 .text          0x0000000000000000        0x0 dbg_uart.o (symbol from plugin)
 .text          0x0000000000000000        0x0 dbg_exceptions.o (symbol from plugin)
 .text          0x0000000000000000        0x0 zps_apl_zll.o (symbol from plugin)
 .text          0x0000000000000000        0x0 zps_apl_options.o (symbol from plugin)
 .data          0x0000000000000000        0x0 e:/NXP/bstudio_nxp/sdk/JN-SW-4170/Components/Library\libZPSNWK_ZED_JN516x.a(zps_nwk_version_lc.o)
 .bss           0x0000000000000000        0x0 e:/NXP/bstudio_nxp/sdk/JN-SW-4170/Components/Library\libZPSNWK_ZED_JN516x.a(zps_nwk_version_lc.o)
 .text          0x0000000000000000        0x0 zps_nwk_dcim.o (symbol from plugin)
 .text          0x0000000000000000        0x0 zps_nwk_lib.o (symbol from plugin)
 .text          0x0000000000000000        0x0 zps_nwk_lkst.o (symbol from plugin)
 .text          0x0000000000000000        0x0 zps_nwk_main.o (symbol from plugin)
 .text          0x0000000000000000        0x0 zps_nwk_maint.o (symbol from plugin)
 .text          0x0000000000000000        0x0 zps_nwk_mcps.o (symbol from plugin)
 .text          0x0000000000000000        0x0 zps_nwk_mlme.o (symbol from plugin)
 .text          0x0000000000000000        0x0 zps_nwk_nib.o (symbol from plugin)
 .text          0x0000000000000000        0x0 zps_nwk_nlde.o (symbol from plugin)
 .text          0x0000000000000000        0x0 zps_nwk_nlme.o (symbol from plugin)
 .text          0x0000000000000000        0x0 zps_nwk_rt.o (symbol from plugin)
 .text          0x0000000000000000        0x0 zps_nwk_sec.o (symbol from plugin)
 .text          0x0000000000000000        0x0 zps_nwk_slist.o (symbol from plugin)
 .text          0x0000000000000000        0x0 zps_nwk_actv_st.o (symbol from plugin)
 .text          0x0000000000000000        0x0 zps_nwk_btt.o (symbol from plugin)
 .text          0x0000000000000000        0x0 zps_nwk_disc.o (symbol from plugin)
 .text          0x0000000000000000        0x0 zps_nwk_disc_st.o (symbol from plugin)
 .text          0x0000000000000000        0x0 zps_nwk_frm.o (symbol from plugin)
 .text          0x0000000000000000        0x0 zps_nwk_idle_st.o (symbol from plugin)
 .text          0x0000000000000000        0x0 zps_nwk_join.o (symbol from plugin)
 .text          0x0000000000000000        0x0 zps_nwk_join_st.o (symbol from plugin)
 .text          0x0000000000000000        0x0 zps_nwk_leave.o (symbol from plugin)
 .text          0x0000000000000000        0x0 zps_nwk_mac.o (symbol from plugin)
 .text          0x0000000000000000        0x0 zps_nwk_scan.o (symbol from plugin)
 .text          0x0000000000000000        0x0 zps_nwk_sync.o (symbol from plugin)
 .text          0x0000000000000000        0x0 Mini_Main.o (symbol from plugin)
 .text          0x0000000000000000        0x0 Mini_Association.o (symbol from plugin)
 .text          0x0000000000000000        0x0 Mini_Mcps.o (symbol from plugin)
 .text          0x0000000000000000        0x0 Mini_Poll.o (symbol from plugin)
 .text          0x0000000000000000        0x0 Mini_Running.o (symbol from plugin)
 .text          0x0000000000000000        0x0 Mini_Scan.o (symbol from plugin)
 .text          0x0000000000000000        0x0 Mini_TimerServer.o (symbol from plugin)
 .text          0x0000000000000000        0x0 Mini_TxRx.o (symbol from plugin)
 .text          0x0000000000000000        0x0 Endian.o (symbol from plugin)
 .text          0x0000000000000000        0x0 Mini_Shim.o (symbol from plugin)
 .text          0x0000000000000000        0x0 MMAC.o (symbol from plugin)
 .text          0x0000000000000000        0x0 MMAC_RadioInit_JN5169.o (symbol from plugin)
 .text          0x0000000000000000        0x0 JPT_RadioTxPowerTests.o (symbol from plugin)
 .text          0x0000000000000000        0x0 JPT_RadioSettings_JN5169.o (symbol from plugin)
 .text          0x0000000000000000        0x0 AEScoprocessorAPI.o (symbol from plugin)
 .text          0x0000000000000000        0x0 AEScoprocessorECB.o (symbol from plugin)
 .text          0x0000000000000000        0x0 AES_CCM_Star.o (symbol from plugin)
 .text          0x0000000000000000        0x0 AHI_Analogue.o (symbol from plugin)
 .text          0x0000000000000000        0x0 AHI_Dio.o (symbol from plugin)
 .text          0x0000000000000000        0x0 AHI_Reset.o (symbol from plugin)
 .text          0x0000000000000000        0x0 AHI_System.o (symbol from plugin)
 .text          0x0000000000000000        0x0 AHI_Timer.o (symbol from plugin)
 .text          0x0000000000000000        0x0 AHI_TimerInt.o (symbol from plugin)
 .text          0x0000000000000000        0x0 AHI_Uart.o (symbol from plugin)
 .text          0x0000000000000000        0x0 AHI_WakeTimer.o (symbol from plugin)
 .text          0x0000000000000000        0x0 AHI_Flash.o (symbol from plugin)
 .text          0x0000000000000000        0x0 AHI_FlashPoll.o (symbol from plugin)
 .text          0x0000000000000000        0x0 AHI_Infrared.o (symbol from plugin)
 .text          0x0000000000000000        0x0 InternalFlashApi.o (symbol from plugin)
 .text          0x0000000000000000        0x0 EEP_EEPROM.o (symbol from plugin)
 .text          0x0000000000000000        0x0 AHI_TickTimer.o (symbol from plugin)
 .data          0x0000000000000000        0x0 e:/NXP/bstudio_nxp/sdk/JN-SW-4170/Components/Library\libHardwareApi_JN5169.a(AHI_Interrupt.o)
 .bss           0x0000000000000000        0x0 e:/NXP/bstudio_nxp/sdk/JN-SW-4170/Components/Library\libHardwareApi_JN5169.a(AHI_Interrupt.o)
 .text          0x0000000000000000        0x0 AHI_Spi.o (symbol from plugin)
 .text          0x0000000000000000        0x0 MicroInt_ba.o (symbol from plugin)
 .text          0x0000000000000000        0x0 e:/NXP/bstudio_nxp/sdk/JN-SW-4170/Components/Library\libMicroSpecific_JN516x.a(MicroSyscall_ba.o)
 .data          0x0000000000000000        0x0 e:/NXP/bstudio_nxp/sdk/JN-SW-4170/Components/Library\libMicroSpecific_JN516x.a(MicroSyscall_ba.o)
 .bss           0x0000000000000000        0x0 e:/NXP/bstudio_nxp/sdk/JN-SW-4170/Components/Library\libMicroSpecific_JN516x.a(MicroSyscall_ba.o)
 .text          0x0000000000000000        0x0 Heap.o (symbol from plugin)
 .text          0x0000000000000000        0x0 e:/NXP/bstudio_nxp/sdk/JN-SW-4170/Components/Library\libBoot_JN516x.a(ExceptionHandler.o)
 .data          0x0000000000000000        0x0 e:/NXP/bstudio_nxp/sdk/JN-SW-4170/Components/Library\libBoot_JN516x.a(ExceptionHandler.o)
 .bss           0x0000000000000000        0x0 e:/NXP/bstudio_nxp/sdk/JN-SW-4170/Components/Library\libBoot_JN516x.a(ExceptionHandler.o)
 .vsr_handlers  0x0000000000000000       0xa7 e:/NXP/bstudio_nxp/sdk/JN-SW-4170/Components/Library\libBoot_JN516x.a(ExceptionHandler.o)
 .text          0x0000000000000000        0x0 zps_tsv.o (symbol from plugin)
 .text          0x0000000000000000        0x0 aes_sw_hmac_mmo.o (symbol from plugin)

Memory Configuration

Name             Origin             Length             Attributes
flash            0x0000000000080000 0x0000000000080000
ram              0x000000000400004c 0x0000000000007fb4
*default*        0x0000000000000000 0xffffffffffffffff

Linker script and memory map

                0x0000000000001770                __stack_size = 0x1770
                0x00000000000007d0                __minimum_heap_size = 0x7d0
START GROUP
LOAD e:/NXP/Sensor/WL_DoorLock/Build/irq_JN516x.o
LOAD e:/NXP/Sensor/WL_DoorLock/Build/pdum_gen.o
LOAD e:/NXP/Sensor/WL_DoorLock/Build/pdum_apdu.o
LOAD e:/NXP/Sensor/WL_DoorLock/Build/zps_gen.o
LOAD e:/NXP/Sensor/WL_DoorLock/Build/app_pdm.o
LOAD C:\Users\ADMINI~1\AppData\Local\Temp\ccuL4uDM.ltrans0.ltrans.o
LOAD C:\Users\ADMINI~1\AppData\Local\Temp\ccuL4uDM.ltrans1.ltrans.o
LOAD C:\Users\ADMINI~1\AppData\Local\Temp\ccuL4uDM.ltrans2.ltrans.o
LOAD C:\Users\ADMINI~1\AppData\Local\Temp\ccuL4uDM.ltrans3.ltrans.o
LOAD C:\Users\ADMINI~1\AppData\Local\Temp\ccuL4uDM.ltrans4.ltrans.o
LOAD C:\Users\ADMINI~1\AppData\Local\Temp\ccuL4uDM.ltrans5.ltrans.o
LOAD C:\Users\ADMINI~1\AppData\Local\Temp\ccuL4uDM.ltrans6.ltrans.o
LOAD C:\Users\ADMINI~1\AppData\Local\Temp\ccuL4uDM.ltrans7.ltrans.o
LOAD C:\Users\ADMINI~1\AppData\Local\Temp\ccuL4uDM.ltrans8.ltrans.o
LOAD C:\Users\ADMINI~1\AppData\Local\Temp\ccuL4uDM.ltrans9.ltrans.o
LOAD C:\Users\ADMINI~1\AppData\Local\Temp\ccuL4uDM.ltrans10.ltrans.o
LOAD C:\Users\ADMINI~1\AppData\Local\Temp\ccuL4uDM.ltrans11.ltrans.o
LOAD C:\Users\ADMINI~1\AppData\Local\Temp\ccuL4uDM.ltrans12.ltrans.o
LOAD C:\Users\ADMINI~1\AppData\Local\Temp\ccuL4uDM.ltrans13.ltrans.o
LOAD C:\Users\ADMINI~1\AppData\Local\Temp\ccuL4uDM.ltrans14.ltrans.o
LOAD C:\Users\ADMINI~1\AppData\Local\Temp\ccuL4uDM.ltrans15.ltrans.o
LOAD C:\Users\ADMINI~1\AppData\Local\Temp\ccuL4uDM.ltrans16.ltrans.o
LOAD C:\Users\ADMINI~1\AppData\Local\Temp\ccuL4uDM.ltrans17.ltrans.o
LOAD C:\Users\ADMINI~1\AppData\Local\Temp\ccuL4uDM.ltrans18.ltrans.o
LOAD C:\Users\ADMINI~1\AppData\Local\Temp\ccuL4uDM.ltrans19.ltrans.o
LOAD C:\Users\ADMINI~1\AppData\Local\Temp\ccuL4uDM.ltrans20.ltrans.o
LOAD C:\Users\ADMINI~1\AppData\Local\Temp\ccuL4uDM.ltrans21.ltrans.o
LOAD C:\Users\ADMINI~1\AppData\Local\Temp\ccuL4uDM.ltrans22.ltrans.o
LOAD C:\Users\ADMINI~1\AppData\Local\Temp\ccuL4uDM.ltrans23.ltrans.o
LOAD C:\Users\ADMINI~1\AppData\Local\Temp\ccuL4uDM.ltrans24.ltrans.o
LOAD C:\Users\ADMINI~1\AppData\Local\Temp\ccuL4uDM.ltrans25.ltrans.o
LOAD C:\Users\ADMINI~1\AppData\Local\Temp\ccuL4uDM.ltrans26.ltrans.o
LOAD C:\Users\ADMINI~1\AppData\Local\Temp\ccuL4uDM.ltrans27.ltrans.o
LOAD C:\Users\ADMINI~1\AppData\Local\Temp\ccuL4uDM.ltrans28.ltrans.o
LOAD C:\Users\ADMINI~1\AppData\Local\Temp\ccuL4uDM.ltrans29.ltrans.o
LOAD C:\Users\ADMINI~1\AppData\Local\Temp\ccuL4uDM.ltrans30.ltrans.o
LOAD C:\Users\ADMINI~1\AppData\Local\Temp\ccuL4uDM.ltrans31.ltrans.o
LOAD e:/nxp/bstudio_nxp/sdk/tools/ba-elf-ba2-r36379/bin/../lib/gcc/ba-elf/4.7.4/../../../../ba-elf/lib/mcpu_jn51xx_sizeopt\libc.a
LOAD e:/nxp/bstudio_nxp/sdk/tools/ba-elf-ba2-r36379/bin/../lib/gcc/ba-elf/4.7.4/mcpu_jn51xx_sizeopt\libgcc.a
LOAD e:/nxp/bstudio_nxp/sdk/tools/ba-elf-ba2-r36379/bin/../lib/gcc/ba-elf/4.7.4/../../../../ba-elf/lib/mcpu_jn51xx_sizeopt\libc.a
LOAD e:/NXP/Sensor/WL_DoorLock/Build/app_main.o
LOAD e:/NXP/Sensor/WL_DoorLock/Build/app_reporting.o
LOAD e:/NXP/Sensor/WL_DoorLock/Build/app_start_sensor.o
LOAD e:/NXP/Sensor/WL_DoorLock/Build/App_WL_DoorLock.o
LOAD e:/NXP/Sensor/WL_DoorLock/Build/app_zlo_sensor_node.o
LOAD e:/NXP/Sensor/WL_DoorLock/Build/app_zcl_sensor_task.o
LOAD e:/NXP/Sensor/WL_DoorLock/Build/app_occupancy_buttons.o
LOAD e:/NXP/Sensor/WL_DoorLock/Build/app_SampleDoorLock_Uart.o
LOAD e:/NXP/Sensor/WL_DoorLock/Build/app_ota_client.o
LOAD e:/NXP/Sensor/WL_DoorLock/Build/app_occupancy_sensor_state_machine.o
LOAD e:/NXP/Sensor/WL_DoorLock/Build/app_sleep_handler.o
LOAD e:/NXP/Sensor/WL_DoorLock/Build/app_nwk_event_handler.o
LOAD e:/NXP/Sensor/WL_DoorLock/Build/app_event_handler.o
LOAD e:/NXP/Sensor/WL_DoorLock/Build/app_PIR_OpenCollector_events.o
LOAD e:/NXP/Sensor/WL_DoorLock/Build/app_zcl_tick_handler.o
LOAD e:/NXP/Sensor/WL_DoorLock/Build/app_blink_led.o
LOAD e:/NXP/Sensor/WL_DoorLock/Build/Alarms.o
LOAD e:/NXP/Sensor/WL_DoorLock/Build/AlarmsClientCommands.o
LOAD e:/NXP/Sensor/WL_DoorLock/Build/AlarmsCommandHandler.o
LOAD e:/NXP/Sensor/WL_DoorLock/Build/AlarmsServerCommands.o
LOAD e:/NXP/Sensor/WL_DoorLock/Build/AlarmsTableManager.o
LOAD e:/NXP/Sensor/WL_DoorLock/Build/AnalogInputBasic.o
LOAD e:/NXP/Sensor/WL_DoorLock/Build/AnalogOutputBasic.o
LOAD e:/NXP/Sensor/WL_DoorLock/Build/Basic.o
LOAD e:/NXP/Sensor/WL_DoorLock/Build/BasicClientCommands.o
LOAD e:/NXP/Sensor/WL_DoorLock/Build/BasicCommandHandler.o
LOAD e:/NXP/Sensor/WL_DoorLock/Build/BinaryInputBasic.o
LOAD e:/NXP/Sensor/WL_DoorLock/Build/BinaryOutputBasic.o
LOAD e:/NXP/Sensor/WL_DoorLock/Build/DeviceTemperatureConfiguration.o
LOAD e:/NXP/Sensor/WL_DoorLock/Build/Diagnostics.o
LOAD e:/NXP/Sensor/WL_DoorLock/Build/Groups.o
LOAD e:/NXP/Sensor/WL_DoorLock/Build/GroupsClientCommands.o
LOAD e:/NXP/Sensor/WL_DoorLock/Build/GroupsCommandHandler.o
LOAD e:/NXP/Sensor/WL_DoorLock/Build/GroupsServerCommands.o
LOAD e:/NXP/Sensor/WL_DoorLock/Build/GroupsTableManager.o
LOAD e:/NXP/Sensor/WL_DoorLock/Build/Identify.o
LOAD e:/NXP/Sensor/WL_DoorLock/Build/IdentifyClientCommands.o
LOAD e:/NXP/Sensor/WL_DoorLock/Build/IdentifyCommandHandler.o
LOAD e:/NXP/Sensor/WL_DoorLock/Build/IdentifyServerCommands.o
LOAD e:/NXP/Sensor/WL_DoorLock/Build/LevelControl.o
LOAD e:/NXP/Sensor/WL_DoorLock/Build/LevelControlClientCommands.o
LOAD e:/NXP/Sensor/WL_DoorLock/Build/LevelControlCommandHandler.o
LOAD e:/NXP/Sensor/WL_DoorLock/Build/MultistateInputBasic.o
LOAD e:/NXP/Sensor/WL_DoorLock/Build/MultistateOutputBasic.o
LOAD e:/NXP/Sensor/WL_DoorLock/Build/OOSC.o
LOAD e:/NXP/Sensor/WL_DoorLock/Build/OnOff.o
LOAD e:/NXP/Sensor/WL_DoorLock/Build/OnOffCommandHandler.o
LOAD e:/NXP/Sensor/WL_DoorLock/Build/OnOffCommands.o
LOAD e:/NXP/Sensor/WL_DoorLock/Build/PollControl.o
LOAD e:/NXP/Sensor/WL_DoorLock/Build/PollControlClientCommands.o
LOAD e:/NXP/Sensor/WL_DoorLock/Build/PollControlCommandHandler.o
LOAD e:/NXP/Sensor/WL_DoorLock/Build/PollControlServerCommands.o
LOAD e:/NXP/Sensor/WL_DoorLock/Build/PowerConfiguration.o
LOAD e:/NXP/Sensor/WL_DoorLock/Build/PowerProfile.o
LOAD e:/NXP/Sensor/WL_DoorLock/Build/PowerProfileClientCommands.o
LOAD e:/NXP/Sensor/WL_DoorLock/Build/PowerProfileCommandHandler.o
LOAD e:/NXP/Sensor/WL_DoorLock/Build/PowerProfileServerCommands.o
LOAD e:/NXP/Sensor/WL_DoorLock/Build/Scenes.o
LOAD e:/NXP/Sensor/WL_DoorLock/Build/ScenesClientCommands.o
LOAD e:/NXP/Sensor/WL_DoorLock/Build/ScenesClusterManagement.o
LOAD e:/NXP/Sensor/WL_DoorLock/Build/ScenesCommandHandler.o
LOAD e:/NXP/Sensor/WL_DoorLock/Build/ScenesServerCommands.o
LOAD e:/NXP/Sensor/WL_DoorLock/Build/ScenesTableManager.o
LOAD e:/NXP/Sensor/WL_DoorLock/Build/TC.o
LOAD e:/NXP/Sensor/WL_DoorLock/Build/Time.o
LOAD e:/NXP/Sensor/WL_DoorLock/Build/base_device.o
LOAD e:/NXP/Sensor/WL_DoorLock/Build/mains_power_outlet.o
LOAD e:/NXP/Sensor/WL_DoorLock/Build/on_off_output.o
LOAD e:/NXP/Sensor/WL_DoorLock/Build/remote_control.o
LOAD e:/NXP/Sensor/WL_DoorLock/Build/simple_sensor.o
LOAD e:/NXP/Sensor/WL_DoorLock/Build/ElectricalMeasurement.o
LOAD e:/NXP/Sensor/WL_DoorLock/Build/FlowMeasurement.o
LOAD e:/NXP/Sensor/WL_DoorLock/Build/IlluminanceLevelSensing.o
LOAD e:/NXP/Sensor/WL_DoorLock/Build/IlluminanceMeasurement.o
LOAD e:/NXP/Sensor/WL_DoorLock/Build/OccupancySensing.o
LOAD e:/NXP/Sensor/WL_DoorLock/Build/PressureMeasurement.o
LOAD e:/NXP/Sensor/WL_DoorLock/Build/RelativeHumidityMeasurement.o
LOAD e:/NXP/Sensor/WL_DoorLock/Build/TemperatureMeasurement.o
LOAD e:/NXP/Sensor/WL_DoorLock/Build/BallastConfiguration.o
LOAD e:/NXP/Sensor/WL_DoorLock/Build/ColourControl.o
LOAD e:/NXP/Sensor/WL_DoorLock/Build/ColourControlClientCommands.o
LOAD e:/NXP/Sensor/WL_DoorLock/Build/ColourControlCommandHandler.o
LOAD e:/NXP/Sensor/WL_DoorLock/Build/ColourControlConversions.o
LOAD e:/NXP/Sensor/WL_DoorLock/Build/colour_controller.o
LOAD e:/NXP/Sensor/WL_DoorLock/Build/colour_dimmable_light.o
LOAD e:/NXP/Sensor/WL_DoorLock/Build/colour_dimmer_switch.o
LOAD e:/NXP/Sensor/WL_DoorLock/Build/colour_scene_controller.o
LOAD e:/NXP/Sensor/WL_DoorLock/Build/colour_temperature_light.o
LOAD e:/NXP/Sensor/WL_DoorLock/Build/commission_endpoint.o
LOAD e:/NXP/Sensor/WL_DoorLock/Build/control_bridge.o
LOAD e:/NXP/Sensor/WL_DoorLock/Build/dimmable_ballast.o
LOAD e:/NXP/Sensor/WL_DoorLock/Build/dimmable_light.o
LOAD e:/NXP/Sensor/WL_DoorLock/Build/dimmable_plug.o
LOAD e:/NXP/Sensor/WL_DoorLock/Build/dimmer_switch.o
LOAD e:/NXP/Sensor/WL_DoorLock/Build/extended_colour_light.o
LOAD e:/NXP/Sensor/WL_DoorLock/Build/light_level_sensor.o
LOAD e:/NXP/Sensor/WL_DoorLock/Build/light_sensor.o
LOAD e:/NXP/Sensor/WL_DoorLock/Build/non_colour_controller.o
LOAD e:/NXP/Sensor/WL_DoorLock/Build/non_colour_scene_controller.o
LOAD e:/NXP/Sensor/WL_DoorLock/Build/occupancy_sensor.o
LOAD e:/NXP/Sensor/WL_DoorLock/Build/on_off_ballast.o
LOAD e:/NXP/Sensor/WL_DoorLock/Build/on_off_light.o
LOAD e:/NXP/Sensor/WL_DoorLock/Build/on_off_light_switch.o
LOAD e:/NXP/Sensor/WL_DoorLock/Build/on_off_plug.o
LOAD e:/NXP/Sensor/WL_DoorLock/Build/on_off_sensor.o
LOAD e:/NXP/Sensor/WL_DoorLock/Build/DoorLock.o
LOAD e:/NXP/Sensor/WL_DoorLock/Build/DoorLockCommandHandler.o
LOAD e:/NXP/Sensor/WL_DoorLock/Build/DoorLockCommands.o
LOAD e:/NXP/Sensor/WL_DoorLock/Build/door_lock.o
LOAD e:/NXP/Sensor/WL_DoorLock/Build/door_lock_controller.o
LOAD e:/NXP/Sensor/WL_DoorLock/Build/IASACE.o
LOAD e:/NXP/Sensor/WL_DoorLock/Build/IASACEClientCommands.o
LOAD e:/NXP/Sensor/WL_DoorLock/Build/IASACECommandHandler.o
LOAD e:/NXP/Sensor/WL_DoorLock/Build/IASACEServerCommands.o
LOAD e:/NXP/Sensor/WL_DoorLock/Build/IASWD.o
LOAD e:/NXP/Sensor/WL_DoorLock/Build/IASWDCommandHandler.o
LOAD e:/NXP/Sensor/WL_DoorLock/Build/IASWDCommands.o
LOAD e:/NXP/Sensor/WL_DoorLock/Build/IASZone.o
LOAD e:/NXP/Sensor/WL_DoorLock/Build/IASZoneCommandHandler.o
LOAD e:/NXP/Sensor/WL_DoorLock/Build/IASZoneCommands.o
LOAD e:/NXP/Sensor/WL_DoorLock/Build/ancillary_control_equipment.o
LOAD e:/NXP/Sensor/WL_DoorLock/Build/control_and_indicating_equipment.o
LOAD e:/NXP/Sensor/WL_DoorLock/Build/warning_device.o
LOAD e:/NXP/Sensor/WL_DoorLock/Build/zone.o
LOAD e:/NXP/Sensor/WL_DoorLock/Build/OTA.o
LOAD e:/NXP/Sensor/WL_DoorLock/Build/OTA_ClientUpgradeManager.o
LOAD e:/NXP/Sensor/WL_DoorLock/Build/OTA_CustomCommandHandler.o
LOAD e:/NXP/Sensor/WL_DoorLock/Build/OTA_CustomReceiveCommands.o
LOAD e:/NXP/Sensor/WL_DoorLock/Build/OTA_ServerUpgradeManager.o
LOAD e:/NXP/Sensor/WL_DoorLock/Build/OTA_client.o
LOAD e:/NXP/Sensor/WL_DoorLock/Build/OTA_common.o
LOAD e:/NXP/Sensor/WL_DoorLock/Build/OTA_server.o
LOAD e:/NXP/Sensor/WL_DoorLock/Build/Commissioning.o
LOAD e:/NXP/Sensor/WL_DoorLock/Build/CommissioningClientCommands.o
LOAD e:/NXP/Sensor/WL_DoorLock/Build/CommissioningCmdHandler.o
LOAD e:/NXP/Sensor/WL_DoorLock/Build/CommissioningServerCommands.o
LOAD e:/NXP/Sensor/WL_DoorLock/Build/zll_CommissionCmdHandler.o
LOAD e:/NXP/Sensor/WL_DoorLock/Build/zll_UtilityCmdHandler.o
LOAD e:/NXP/Sensor/WL_DoorLock/Build/zll_commission.o
LOAD e:/NXP/Sensor/WL_DoorLock/Build/zll_utility.o
LOAD e:/NXP/Sensor/WL_DoorLock/Build/dlist.o
LOAD e:/NXP/Sensor/WL_DoorLock/Build/zcl.o
LOAD e:/NXP/Sensor/WL_DoorLock/Build/zcl_CustomCommandReceive.o
LOAD e:/NXP/Sensor/WL_DoorLock/Build/zcl_CustomCommandSend.o
LOAD e:/NXP/Sensor/WL_DoorLock/Build/zcl_PDUbufferReadWrite.o
LOAD e:/NXP/Sensor/WL_DoorLock/Build/zcl_PDUbufferReadWriteString.o
LOAD e:/NXP/Sensor/WL_DoorLock/Build/zcl_WriteAttributesRequestHandle.o
LOAD e:/NXP/Sensor/WL_DoorLock/Build/zcl_WriteAttributesRequestSend.o
LOAD e:/NXP/Sensor/WL_DoorLock/Build/zcl_WriteAttributesResponseHandle.o
LOAD e:/NXP/Sensor/WL_DoorLock/Build/zcl_attribute.o
LOAD e:/NXP/Sensor/WL_DoorLock/Build/zcl_buffer.o
LOAD e:/NXP/Sensor/WL_DoorLock/Build/zcl_clusterCommand.o
LOAD e:/NXP/Sensor/WL_DoorLock/Build/zcl_command.o
LOAD e:/NXP/Sensor/WL_DoorLock/Build/zcl_common.o
LOAD e:/NXP/Sensor/WL_DoorLock/Build/zcl_configureReportingCommandHandle.o
LOAD e:/NXP/Sensor/WL_DoorLock/Build/zcl_configureReportingCommandSend.o
LOAD e:/NXP/Sensor/WL_DoorLock/Build/zcl_configureReportingResponseHandle.o
LOAD e:/NXP/Sensor/WL_DoorLock/Build/zcl_defaultResponse.o
LOAD e:/NXP/Sensor/WL_DoorLock/Build/zcl_discoverAttributesExtendedRequestHandle.o
LOAD e:/NXP/Sensor/WL_DoorLock/Build/zcl_discoverAttributesExtendedRequestSend.o
LOAD e:/NXP/Sensor/WL_DoorLock/Build/zcl_discoverAttributesExtendedResponseHandle.o
LOAD e:/NXP/Sensor/WL_DoorLock/Build/zcl_discoverAttributesRequestHandle.o
LOAD e:/NXP/Sensor/WL_DoorLock/Build/zcl_discoverAttributesRequestSend.o
LOAD e:/NXP/Sensor/WL_DoorLock/Build/zcl_discoverAttributesResponseHandle.o
LOAD e:/NXP/Sensor/WL_DoorLock/Build/zcl_discoverCommandsRequestHandle.o
LOAD e:/NXP/Sensor/WL_DoorLock/Build/zcl_discoverCommandsRequestSend.o
LOAD e:/NXP/Sensor/WL_DoorLock/Build/zcl_discoverCommandsResponseHandle.o
LOAD e:/NXP/Sensor/WL_DoorLock/Build/zcl_event.o
LOAD e:/NXP/Sensor/WL_DoorLock/Build/zcl_heap.o
LOAD e:/NXP/Sensor/WL_DoorLock/Build/zcl_library_options.o
LOAD e:/NXP/Sensor/WL_DoorLock/Build/zcl_readAttributesRequestHandle.o
LOAD e:/NXP/Sensor/WL_DoorLock/Build/zcl_readAttributesRequestSend.o
LOAD e:/NXP/Sensor/WL_DoorLock/Build/zcl_readAttributesResponseHandle.o
LOAD e:/NXP/Sensor/WL_DoorLock/Build/zcl_readReportingConfigurationCommandHandle.o
LOAD e:/NXP/Sensor/WL_DoorLock/Build/zcl_readReportingConfigurationCommandSend.o
LOAD e:/NXP/Sensor/WL_DoorLock/Build/zcl_readReportingConfigurationResponseHandle.o
LOAD e:/NXP/Sensor/WL_DoorLock/Build/zcl_reportManager.o
LOAD e:/NXP/Sensor/WL_DoorLock/Build/zcl_reportMaths.o
LOAD e:/NXP/Sensor/WL_DoorLock/Build/zcl_reportScheduler.o
LOAD e:/NXP/Sensor/WL_DoorLock/Build/zcl_reportStringHandling.o
LOAD e:/NXP/Sensor/WL_DoorLock/Build/zcl_reportStructure.o
LOAD e:/NXP/Sensor/WL_DoorLock/Build/zcl_search.o
LOAD e:/NXP/Sensor/WL_DoorLock/Build/zcl_timer.o
LOAD e:/NXP/Sensor/WL_DoorLock/Build/zcl_transmit.o
LOAD e:/NXP/Sensor/WL_DoorLock/Build/bdb_fr.o
LOAD e:/NXP/Sensor/WL_DoorLock/Build/bdb_link_keys.o
LOAD e:/NXP/Sensor/WL_DoorLock/Build/bdb_start.o
LOAD e:/NXP/Sensor/WL_DoorLock/Build/bdb_state_machine.o
LOAD e:/NXP/Sensor/WL_DoorLock/Build/ZQueue.o
LOAD e:/NXP/Sensor/WL_DoorLock/Build/ZTimer.o
LOAD e:/NXP/Sensor/WL_DoorLock/Build/appZdpExtraction.o
LOAD e:/NXP/Sensor/WL_DoorLock/Build/appZpsBeaconHandler.o
LOAD e:/NXP/Sensor/WL_DoorLock/Build/appZpsExtendedDebug.o
LOAD e:/NXP/Sensor/WL_DoorLock/Build/port.o
LOAD e:/NXP/Sensor/WL_DoorLock/Build/portasm.o
LOAD e:/NXP/Sensor/WL_DoorLock/Build/bdb_ns.o
LOAD e:/NXP/Sensor/WL_DoorLock/Build/bdb_tl_end_device_initiator_target.o
LOAD e:/NXP/Sensor/WL_DoorLock/Build/bdb_tl_common.o
LOAD e:/NXP/Sensor/WL_DoorLock/Build/ecb_decrypt.o
LOAD e:/NXP/Sensor/WL_DoorLock/Build/bdb_fb_common.o
LOAD e:/NXP/Sensor/WL_DoorLock/Build/bdb_fb_initiator.o
LOAD e:/NXP/bstudio_nxp/sdk/JN-SW-4170/Components/Library\libZPSMAC_Mini_JN516x.a
LOAD e:/NXP/bstudio_nxp/sdk/JN-SW-4170/Components/Library\libPWRM_JN516x.a
LOAD e:/NXP/bstudio_nxp/sdk/JN-SW-4170/Components/Library\libZPSTSV_JN516x.a
LOAD e:/NXP/bstudio_nxp/sdk/JN-SW-4170/Components/Library\libAES_SW_JN516x.a
LOAD e:/NXP/bstudio_nxp/sdk/JN-SW-4170/Components/Library\libPDUM_JN516x.a
LOAD e:/NXP/bstudio_nxp/sdk/JN-SW-4170/Components/Library\libZPSAPL_JN516x.a
LOAD e:/NXP/bstudio_nxp/sdk/JN-SW-4170/Components/Library\libRandom_JN516x.a
LOAD e:/NXP/bstudio_nxp/sdk/JN-SW-4170/Components/Library\libPDM_EEPROM_NO_RTOS_JN516x.a
LOAD e:/NXP/bstudio_nxp/sdk/JN-SW-4170/Components/Library\libDBG_JN516x.a
LOAD e:/NXP/bstudio_nxp/sdk/JN-SW-4170/Components/Library\libZPSZLL_ZED_JN516x.a
LOAD e:/NXP/bstudio_nxp/sdk/JN-SW-4170/Components/Library\libZPSNWK_ZED_JN516x.a
LOAD e:/NXP/bstudio_nxp/sdk/JN-SW-4170/Components/Library\libMiniMac_JN5169.a
LOAD e:/NXP/bstudio_nxp/sdk/JN-SW-4170/Components/Library\libMiniMacShim_JN516x.a
LOAD e:/NXP/bstudio_nxp/sdk/JN-SW-4170/Components/Library\libMMAC_JN5169.a
LOAD e:/NXP/bstudio_nxp/sdk/JN-SW-4170/Components/Library\libJPT_JN5169.a
LOAD e:/NXP/bstudio_nxp/sdk/JN-SW-4170/Components/Library\libAes_JN516x.a
LOAD e:/NXP/bstudio_nxp/sdk/JN-SW-4170/Components/Library\libHardwareApi_JN5169.a
LOAD e:/NXP/bstudio_nxp/sdk/JN-SW-4170/Components/Library\libMicroSpecific_JN516x.a
LOAD e:/NXP/bstudio_nxp/sdk/JN-SW-4170/Components/Library\libBoot_JN516x.a
LOAD e:/NXP/bstudio_nxp/sdk/JN-SW-4170/Platform/DK4/Library\libBoardLib_JN516x.a
LOAD e:/nxp/bstudio_nxp/sdk/tools/ba-elf-ba2-r36379/bin/../lib/gcc/ba-elf/4.7.4/../../../../ba-elf/lib/mcpu_jn51xx_sizeopt\libm.a
END GROUP
LOAD e:/nxp/bstudio_nxp/sdk/tools/ba-elf-ba2-r36379/bin/../lib/gcc/ba-elf/4.7.4/../../../../ba-elf/lib/mcpu_jn51xx_sizeopt\libc.a
LOAD e:/nxp/bstudio_nxp/sdk/tools/ba-elf-ba2-r36379/bin/../lib/gcc/ba-elf/4.7.4/mcpu_jn51xx_sizeopt\libgcc.a
LOAD e:/nxp/bstudio_nxp/sdk/tools/ba-elf-ba2-r36379/bin/../lib/gcc/ba-elf/4.7.4/../../../../ba-elf/lib/mcpu_jn51xx_sizeopt\libc.a
                0x0000000000080038                exception_vsr_table = 0x80038
                0x0000000004000000                pSPIflashFncTable = 0x4000000
                0x0000000000000044                restore_state = 0x44
                0x000000000000004a                bZSPIWaitWIPClear = 0x4a
                0x0000000000000050                u16ZSPIflashRDID = 0x50
                0x0000000000000056                u8SelectFlashChipType = 0x56
                0x000000000000005c                memcpy = 0x5c
                0x0000000000000066                vBootFlashProg = 0x66
                [0x00000000000007d0]                __minimum_heap_size = DEFINED (__minimum_heap_size)?__minimum_heap_size:0xd16
                [0x0000000000001770]                __stack_size = DEFINED (__stack_size)?__stack_size:0x800
                0x0000000000000000                _SwConfig = (DEFINED (g_bSWConf_Debug) | (DEFINED (g_bSWConf_AltDebugPort) << 0x1))

.version        0x000000000007fffc        0x4
                0x000000000007fffc        0x4 LONG 0xf03000b

.bir            0x0000000000080000       0x10
                0x0000000000080000                _flash_start = ABSOLUTE (.)
                0x0000000000080000                _flash_beg = ABSOLUTE (.)
                0x0000000000080000        0x4 LONG 0x12345678
                0x0000000000080004        0x4 LONG 0x11223344
                0x0000000000080008        0x4 LONG 0x55667788
                0x000000000008000c        0x1 BYTE 0x8
                0x000000000008000d        0x1 BYTE 0x1
                0x000000000008000e        0x2 SHORT 0x0

.flashheader    0x0000000000080010       0x28
                0x0000000000080010        0x4 LONG 0x0
                0x0000000000080014        0x4 LONG 0x0
                0x0000000000080018        0x4 LONG 0x0
                0x000000000008001c        0x2 SHORT 0x0
                0x000000000008001e        0x2 SHORT 0x0 ABSOLUTE (_SwConfig)
                0x0000000000080020                _enc_start = ABSOLUTE (.)
                0x0000000000080020        0x4 LONG 0x23120 ABSOLUTE (_image_len)
                0x0000000000080024        0x4 LONG 0xa2b50 ABSOLUTE (_flash_data_start)
                0x0000000000080028        0x2 SHORT 0x13 ((ABSOLUTE (_ram_data_start) / 0x4) & 0xffff)
                0x000000000008002a        0x2 SHORT 0x174 ((ABSOLUTE (_ram_data_len) / 0x4) & 0xffff)
                0x000000000008002c        0x2 SHORT 0x187 ((ABSOLUTE (_bss_start) / 0x4) & 0xffff)
                0x000000000008002e        0x2 SHORT 0x112c ((ABSOLUTE (_bss_len) / 0x4) & 0xffff)
                0x0000000000080030        0x4 LONG 0xa0f3c ABSOLUTE (AppWarmStart)
                0x0000000000080034        0x4 LONG 0x80f5c ABSOLUTE (AppColdStart)
                0x0000000000000000                _enc_offset = (_enc_start & 0xf)

.ro_mac_address
                0x0000000000080040       0x10
                0x0000000000080040                _FlsMACAddress = ABSOLUTE (.)
 *(.ro_mac_address)
 .ro_mac_address
                0x0000000000080040        0x8 C:\Users\ADMINI~1\AppData\Local\Temp\ccuL4uDM.ltrans17.ltrans.o
                0x0000000000080050                . = ALIGN (0x10)
 *fill*         0x0000000000080048        0x8 00

.ro_ota_header  0x0000000000080050       0x50
                0x0000000000080050                _FlsOtaHeader = ABSOLUTE (.)
 *(.ro_ota_header)
 .ro_ota_header
                0x0000000000080050       0x45 C:\Users\ADMINI~1\AppData\Local\Temp\ccuL4uDM.ltrans17.ltrans.o
                0x0000000000080050                au8OtaHeader
                0x00000000000800a0                . = ALIGN (0x10)
 *fill*         0x0000000000080095        0xb 00

.ro_se_lnkKey   0x00000000000800a0       0x10
                0x00000000000800a0                _FlsLinkKey = ABSOLUTE (.)
 *(.ro_se_lnkKey)
 .ro_se_lnkKey  0x00000000000800a0       0x10 C:\Users\ADMINI~1\AppData\Local\Temp\ccuL4uDM.ltrans27.ltrans.o
                0x00000000000800b0                . = ALIGN (0x10)

.rodata         0x00000000000800b0      0xcfc
 *(.rodata*)
 .rodata.g_u32NwkFcSaveCountBitShift
                0x00000000000800b0        0x4 e:/NXP/Sensor/WL_DoorLock/Build/zps_gen.o
                0x00000000000800b0                g_u32NwkFcSaveCountBitShift
 .rodata.g_u32ApsFcSaveCountBitShift
                0x00000000000800b4        0x4 e:/NXP/Sensor/WL_DoorLock/Build/zps_gen.o
                0x00000000000800b4                g_u32ApsFcSaveCountBitShift
 .rodata.s_sNwkTblSize
                0x00000000000800b8       0x10 e:/NXP/Sensor/WL_DoorLock/Build/zps_gen.o
 .rodata.s_sNwkTbl
                0x00000000000800c8       0x3c e:/NXP/Sensor/WL_DoorLock/Build/zps_gen.o
 .rodata.s_asAplZdoServers
                0x0000000000080104       0x90 e:/NXP/Sensor/WL_DoorLock/Build/zps_gen.o
 .rodata.s_sNodePowerDescriptor
                0x0000000000080194        0x4 e:/NXP/Sensor/WL_DoorLock/Build/zps_gen.o
 .rodata.s_sNibInitialValues
                0x0000000000080198       0x1c e:/NXP/Sensor/WL_DoorLock/Build/zps_gen.o
 .rodata.s_au16Endpoint0InputClusterList
                0x00000000000801b4       0xa6 e:/NXP/Sensor/WL_DoorLock/Build/zps_gen.o
 .rodata.s_au16Endpoint0OutputClusterList
                0x000000000008025a       0xa6 e:/NXP/Sensor/WL_DoorLock/Build/zps_gen.o
 .rodata.s_ahEndpoint0InputClusterAPdus
                0x0000000000080300      0x14c e:/NXP/Sensor/WL_DoorLock/Build/zps_gen.o
 .rodata.s_au16Endpoint1InputClusterList
                0x000000000008044c       0x10 e:/NXP/Sensor/WL_DoorLock/Build/zps_gen.o
 .rodata.s_au16Endpoint1OutputClusterList
                0x000000000008045c        0xc e:/NXP/Sensor/WL_DoorLock/Build/zps_gen.o
 .rodata.s_ahEndpoint1InputClusterAPdus
                0x0000000000080468       0x20 e:/NXP/Sensor/WL_DoorLock/Build/zps_gen.o
 .rodata.str1.1
                0x0000000000080488        0x5 C:\Users\ADMINI~1\AppData\Local\Temp\ccuL4uDM.ltrans0.ltrans.o
                                         0x13 (size before relaxing)
 *fill*         0x000000000008048d        0x3 00
 .rodata        0x0000000000080490      0x164 C:\Users\ADMINI~1\AppData\Local\Temp\ccuL4uDM.ltrans0.ltrans.o
                0x0000000000080490                zps_pacNwkFrmStdByteFmt
                0x0000000000080494                zps_pacNwkFrmStdLongFmt
                0x0000000000080498                zps_pacNwkFrmStdHalfFmt
 .rodata.str1.1
                0x00000000000805f4        0x5 C:\Users\ADMINI~1\AppData\Local\Temp\ccuL4uDM.ltrans1.ltrans.o
                                          0x8 (size before relaxing)
 *fill*         0x00000000000805f9        0x3 00
 .rodata        0x00000000000805fc       0x88 C:\Users\ADMINI~1\AppData\Local\Temp\ccuL4uDM.ltrans1.ltrans.o
                0x00000000000805fc                au8FlashWaitStatesHSRCO.198950
                0x0000000000080604                au8FlashWaitStates32MXO.198949
 .rodata        0x0000000000080684       0x20 C:\Users\ADMINI~1\AppData\Local\Temp\ccuL4uDM.ltrans2.ltrans.o
 .rodata.str1.1
                0x0000000000000000        0x3 C:\Users\ADMINI~1\AppData\Local\Temp\ccuL4uDM.ltrans2.ltrans.o
 .rodata.str1.1
                0x0000000000000000        0x5 C:\Users\ADMINI~1\AppData\Local\Temp\ccuL4uDM.ltrans3.ltrans.o
                                          0x8 (size before relaxing)
 .rodata        0x00000000000806a4        0x6 C:\Users\ADMINI~1\AppData\Local\Temp\ccuL4uDM.ltrans3.ltrans.o
 .rodata        0x00000000000806aa        0x6 C:\Users\ADMINI~1\AppData\Local\Temp\ccuL4uDM.ltrans4.ltrans.o
 .rodata.str1.1
                0x00000000000806b0        0x3 C:\Users\ADMINI~1\AppData\Local\Temp\ccuL4uDM.ltrans4.ltrans.o
                                          0x7 (size before relaxing)
 .rodata.str1.1
                0x0000000000000000        0x3 C:\Users\ADMINI~1\AppData\Local\Temp\ccuL4uDM.ltrans5.ltrans.o
                                          0xb (size before relaxing)
 .rodata.str1.1
                0x0000000000000000        0x3 C:\Users\ADMINI~1\AppData\Local\Temp\ccuL4uDM.ltrans6.ltrans.o
 *fill*         0x00000000000806b3        0x1 00
 .rodata        0x00000000000806b4       0x20 C:\Users\ADMINI~1\AppData\Local\Temp\ccuL4uDM.ltrans7.ltrans.o
                0x00000000000806b4                au32NwkPdmRecordOffsets
 .rodata.str1.1
                0x00000000000806d4        0x4 C:\Users\ADMINI~1\AppData\Local\Temp\ccuL4uDM.ltrans8.ltrans.o
                                         0x13 (size before relaxing)
 .rodata        0x00000000000806d8       0x30 C:\Users\ADMINI~1\AppData\Local\Temp\ccuL4uDM.ltrans8.ltrans.o
                0x00000000000806d8                zps_pacNwkFrmStdHdrFmt
                0x00000000000806dc                CSWTCH.35.199112.199112
 .rodata.str1.1
                0x0000000000000000        0x4 C:\Users\ADMINI~1\AppData\Local\Temp\ccuL4uDM.ltrans9.ltrans.o
 .rodata        0x0000000000080708       0x2c C:\Users\ADMINI~1\AppData\Local\Temp\ccuL4uDM.ltrans9.ltrans.o
                0x0000000000080708                s_aprActvStHandleCme.187880
                0x0000000000080720                s_aprIdleStHandleCme.190998
                0x0000000000080730                u32ScanAttemptDelayTime
 .rodata.str1.1
                0x0000000000080734        0xa C:\Users\ADMINI~1\AppData\Local\Temp\ccuL4uDM.ltrans10.ltrans.o
 *fill*         0x000000000008073e        0x2 00
 .rodata        0x0000000000080740       0x3c C:\Users\ADMINI~1\AppData\Local\Temp\ccuL4uDM.ltrans10.ltrans.o
                0x0000000000080740                au32EndDeviceTimeoutConstants
 .rodata        0x000000000008077c       0x4c C:\Users\ADMINI~1\AppData\Local\Temp\ccuL4uDM.ltrans11.ltrans.o
                0x000000000008077c                pfnCallbackMcps
 .rodata.str1.1
                0x00000000000807c8        0x5 C:\Users\ADMINI~1\AppData\Local\Temp\ccuL4uDM.ltrans12.ltrans.o
                                          0xe (size before relaxing)
 .rodata.str1.1
                0x00000000000807cd       0x25 C:\Users\ADMINI~1\AppData\Local\Temp\ccuL4uDM.ltrans13.ltrans.o
 *fill*         0x00000000000807f2        0x2 00
 .rodata        0x00000000000807f4      0x114 C:\Users\ADMINI~1\AppData\Local\Temp\ccuL4uDM.ltrans13.ltrans.o
                0x00000000000807f4                gu32ZCLVersion
                0x00000000000807f8                ZPS_g_u32MacVersion
                0x00000000000807fc                PDUM_g_u32Version
                0x0000000000080800                ZPS_g_u32TsvVersion
 .rodata.str1.1
                0x0000000000000000       0x25 C:\Users\ADMINI~1\AppData\Local\Temp\ccuL4uDM.ltrans14.ltrans.o
                                          0x6 (size before relaxing)
 .rodata        0x0000000000080908        0x4 C:\Users\ADMINI~1\AppData\Local\Temp\ccuL4uDM.ltrans14.ltrans.o
 .rodata        0x000000000008090c       0x2c C:\Users\ADMINI~1\AppData\Local\Temp\ccuL4uDM.ltrans15.ltrans.o
 .rodata.str1.1
                0x0000000000080938       0x97 C:\Users\ADMINI~1\AppData\Local\Temp\ccuL4uDM.ltrans15.ltrans.o
 .rodata.str1.1
                0x00000000000809cf       0xc1 C:\Users\ADMINI~1\AppData\Local\Temp\ccuL4uDM.ltrans16.ltrans.o
 .rodata        0x0000000000080a90       0x48 C:\Users\ADMINI~1\AppData\Local\Temp\ccuL4uDM.ltrans17.ltrans.o
                0x0000000000080a90                u8MyEndpoint
 .rodata.str1.1
                0x0000000000080ad8       0x32 C:\Users\ADMINI~1\AppData\Local\Temp\ccuL4uDM.ltrans18.ltrans.o
                                         0x38 (size before relaxing)
 .rodata.str1.1
                0x0000000000080b0a        0x5 C:\Users\ADMINI~1\AppData\Local\Temp\ccuL4uDM.ltrans19.ltrans.o
 .rodata.str1.1
                0x0000000000080b0f        0xa C:\Users\ADMINI~1\AppData\Local\Temp\ccuL4uDM.ltrans20.ltrans.o
                                         0x14 (size before relaxing)
 .rodata.str1.1
                0x0000000000080b19        0xa C:\Users\ADMINI~1\AppData\Local\Temp\ccuL4uDM.ltrans21.ltrans.o
                                         0x24 (size before relaxing)
 .rodata.str1.1
                0x0000000000080b23       0x2a C:\Users\ADMINI~1\AppData\Local\Temp\ccuL4uDM.ltrans22.ltrans.o
                                         0x2c (size before relaxing)
 .rodata.str1.1
                0x0000000000000000       0x2a C:\Users\ADMINI~1\AppData\Local\Temp\ccuL4uDM.ltrans23.ltrans.o
                                          0x6 (size before relaxing)
 .rodata.str1.1
                0x0000000000080b4d       0x14 C:\Users\ADMINI~1\AppData\Local\Temp\ccuL4uDM.ltrans24.ltrans.o
                                         0x25 (size before relaxing)
 .rodata.str1.1
                0x0000000000080b61       0x21 C:\Users\ADMINI~1\AppData\Local\Temp\ccuL4uDM.ltrans25.ltrans.o
                                         0x55 (size before relaxing)
 *fill*         0x0000000000080b82        0x2 00
 .rodata        0x0000000000080b84      0x140 C:\Users\ADMINI~1\AppData\Local\Temp\ccuL4uDM.ltrans27.ltrans.o
 .rodata.str1.1
                0x0000000000080cc4       0x1b C:\Users\ADMINI~1\AppData\Local\Temp\ccuL4uDM.ltrans28.ltrans.o
                                         0x33 (size before relaxing)
 .rodata.str1.1
                0x0000000000080cdf       0x12 C:\Users\ADMINI~1\AppData\Local\Temp\ccuL4uDM.ltrans29.ltrans.o
                                         0x28 (size before relaxing)
 .rodata.str1.1
                0x0000000000000000        0x4 C:\Users\ADMINI~1\AppData\Local\Temp\ccuL4uDM.ltrans30.ltrans.o
 .rodata.str1.1
                0x0000000000080cf1       0xb1 C:\Users\ADMINI~1\AppData\Local\Temp\ccuL4uDM.ltrans31.ltrans.o
 *fill*         0x0000000000080da2        0x2 00
 .rodata        0x0000000000080da4        0x8 C:\Users\ADMINI~1\AppData\Local\Temp\ccuL4uDM.ltrans31.ltrans.o
                0x0000000000080da4                au32UartAddrOffset

.text           0x0000000000080dac    0x21da2
 *(.text*)
 .text          0x0000000000080dac       0x50 e:/NXP/Sensor/WL_DoorLock/Build/irq_JN516x.o
                0x0000000000080dac                PIC_ChannelPriorities
                0x0000000000080dbc                PIC_SwVectTable
 .text.PDUM_vInit
                0x0000000000080dfc       0x1f e:/NXP/Sensor/WL_DoorLock/Build/pdum_gen.o
                0x0000000000080dfc                PDUM_vInit
 .text.zps_vGetZpsMutex
                0x0000000000080e1b        0x9 e:/NXP/Sensor/WL_DoorLock/Build/zps_gen.o
                0x0000000000080e1b                zps_vGetZpsMutex
 .text.vZdoServersInit
                0x0000000000080e24      0x11a e:/NXP/Sensor/WL_DoorLock/Build/zps_gen.o
 .text.ZPS_vGetGpContext
                0x0000000000080f3e        0x9 e:/NXP/Sensor/WL_DoorLock/Build/zps_gen.o
                0x0000000000080f3e                ZPS_vGetGpContext
 .text.ZPS_vDefaultKeyInit
                0x0000000000080f47        0xf e:/NXP/Sensor/WL_DoorLock/Build/zps_gen.o
                0x0000000000080f47                ZPS_vDefaultKeyInit
 .text.ZPS_vGetOptionalFeatures
                0x0000000000080f56        0x3 e:/NXP/Sensor/WL_DoorLock/Build/zps_gen.o
                0x0000000000080f56                ZPS_vGetOptionalFeatures
 *fill*         0x0000000000080f59        0x3 00
 .text          0x0000000000080f5c     0x1cac C:\Users\ADMINI~1\AppData\Local\Temp\ccuL4uDM.ltrans0.ltrans.o
                0x0000000000080f5c                AppColdStart
 .text          0x0000000000082c08     0x1a60 C:\Users\ADMINI~1\AppData\Local\Temp\ccuL4uDM.ltrans1.ltrans.o
                0x0000000000082c08                boIdValueSearchMatch.175710
                0x0000000000082ccd                u16PDM_CalculateRecordChecksum
                0x0000000000082d78                u8ZdoBindUnbindServerUnpackApdu
                0x0000000000082dc7                ZPS_eTsvOpen
                0x0000000000082de1                zps_vNwkMcpsMgrInit
                0x0000000000082e5e                ZPS_u16NwkNibFindNwkAddr
                0x0000000000082f04                zps_vSendJoinDcfm
                0x0000000000082f4a                vGiveUp.192206
                0x0000000000082f82                u8PDM_CalculateLargestDataRecordStored
                0x0000000000082fb3                psCLD_AlarmsGetEarliestEntry.17321
                0x0000000000082fea                vAHI_DioSetPullup.constprop.232
                0x0000000000082ffe                vAHI_Sleep
                0x00000000000830a2                vAHI_WakeTimerStart.part.1.199432.constprop.231
                0x00000000000830e3                vUART_TxCharCRC.9114.constprop.223
                0x00000000000831bc                App_SampleDoorLockCommandHandle
                0x000000000008323b                APP_SerialSendJoinIndication
                0x0000000000083301                App_SerialSendNetworkIndication
                0x00000000000833b8                vMicroIntEnableOnly.constprop.222
                0x00000000000833e4                PDM_vEnterCriticalSection
                0x0000000000083412                vACI_OptimisedCcmStar.constprop.211
                0x00000000000835fd                bACI_ECBencodeBuffer.part.0.198529.constprop.200
                0x000000000008365d                vAHI_SpiReadConfiguration.constprop.196
                0x000000000008368e                vConfigureSpi
                0x00000000000836ce                vAHI_SpiRestoreConfiguration.constprop.193
                0x000000000008370f                bAHI_FullFlashRead
                0x0000000000083752                vOtaFlashRead
                0x0000000000083754                bAHI_FlashInit.constprop.192
                0x00000000000838cc                vOtaFlashInitHw
                0x00000000000838ce                vMiniMac_MLME_SetReq_PanId
                0x000000000008390b                vMiniMac_MLME_SetReq_ShortAddr
                0x0000000000083919                pvZCL_HeapAlloc.part.0.86306.constprop.145
                0x0000000000083952                ZTIMER_eOpen.constprop.113
                0x0000000000083991                vStartTimer.part.0.198967.constprop.90
                0x00000000000839b5                vAHI_TimerEnable.part.1.198979.constprop.85
                0x00000000000839fe                ZPS_eTsvStop
                0x0000000000083a35                zps_vAplApsStopPollTimer.part.2.112167
                0x0000000000083abc                eEdTimeoutRequestDataDcfm.181623
                0x0000000000083add                zps_vNwkBttMgrInit
                0x0000000000083b0b                ZPS_vNwkNibClearTables
                0x0000000000083c23                pvHeap_Alloc
                0x0000000000083c26                vMicroIntRestoreState
                0x0000000000083c32                vSetChannelAndPower
                0x0000000000083dd2                vMiniMac_PLME_SetReq_Power
                0x0000000000083de6                vMiniMac_PLME_SetReq_Channel
                0x0000000000083dee                ZPS_eTsvStart
                0x0000000000083e6a                zps_vNwkDiscUpdateNT.part.1.188436
                0x0000000000083ebd                zps_eAplZdoBdrmRequestSend
                0x0000000000083f35                zps_eNwkHandleSceNwkUpdate
                0x0000000000083f59                vProcessTimedList.182700
                0x0000000000084024                zps_eNwkBtrMatch
                0x00000000000840b1                zps_vNwkJoinStStartResponseTimer
                0x00000000000840eb                ZQ_bQueueReceive
                0x0000000000084160                ZQ_bQueueSend
                0x00000000000841dd                vPostVsMcpsDcfmInd.127593
                0x0000000000084225                vPostMlmeDcfmInd.127579
                0x00000000000842ed                zps_vAplAfPostTimerEvent
                0x000000000008432d                Hal_Key_Poll.8573
                0x0000000000084390                App_ReadDioStatusFromWakeup
                0x00000000000843a1                ZPS_u8GrabMutexLock.constprop.191
                0x00000000000843dc                ZPS_u8ReleaseMutexLock.constprop.221
                0x0000000000084401                PDM_vExitCriticalSection
                0x0000000000084424                vAHI_TickTimerConfigure
                0x000000000008443f                bAHI_WriteEEPROMfixSegmentData
                0x000000000008449d                bAHI_InitialiseEEPROM
                0x00000000000844e5                vAHI_ReadDataFromEEPROMregister
                0x0000000000084512                vAHI_WriteDataIntoEEPROMregister
                0x0000000000084542                iAHI_WriteDataIntoEEPROMsegment.constprop.213
                0x0000000000084590                iPDM_WriteSegmentHeaderDataIntoEEPROMsegment
                0x00000000000845bf                u32RaiseDigitalVoltage
                0x00000000000845df                u8AHI_WakeTimerFiredStatus
                0x00000000000845f3                vAHI_WakeTimerStop.part.3.199444
                0x0000000000084613                vAHI_WakeTimerEnable.part.0.199428
 .text.unlikely
                0x0000000000084668       0xc8 C:\Users\ADMINI~1\AppData\Local\Temp\ccuL4uDM.ltrans1.ltrans.o
 .text          0x0000000000084730     0x1e99 C:\Users\ADMINI~1\AppData\Local\Temp\ccuL4uDM.ltrans2.ltrans.o
                0x0000000000084730                vTimerCallback.198759
                0x000000000008473b                eBasicTxCompleteHandler
                0x0000000000084740                vTxRxTimeout.197214
                0x00000000000847a0                zps_eNwkHandleSmeOrphanInd
                0x00000000000847a7                eSmeASFlBeaconInd.189664
                0x00000000000847c9                eSmeUDNTScanDcfm.189112
                0x00000000000847e5                zps_eSceGenlIllegal
                0x00000000000847ec                zps_eSmeGenlIllegal
                0x00000000000847f3                DBG_vUartFailedAssert
                0x00000000000847f7                zps_bAplZdoBindRequestServer
                0x000000000008491e                psGetVsMcpsBuf.127590
                0x0000000000084927                psGetMlmeBuf.127576
                0x0000000000084930                psGetMcpsBuf.127583
                0x0000000000084939                zps_vExpireRequestKeyReq.118992
                0x00000000000849b3                psGetNlmeBuf.109786
                0x00000000000849bc                psGetNldeBuf.109807
                0x00000000000849c5                psGetApsmeBuf.109793
                0x00000000000849cb                psGetApsdeBuf.109800
                0x00000000000849d1                vLoopbackTimerCallback
                0x0000000000084a00                vAHI_UartReset.part.4.199198
                0x0000000000084a38                vAHI_UartDisable.part.8.199331
                0x0000000000084aa4                vAHI_UartSetBaudDivisor.part.1.199178
                0x0000000000084ae3                vAHI_OptimiseWaitStates
                0x0000000000084b2f                bAHI_GetClkSource
                0x0000000000084b3c                vStartXtal32kExternalRc.198773
                0x0000000000084b4d                vAHI_SwReset
                0x0000000000084b7d                u32AHI_DioWakeStatus
                0x0000000000084b8e                vAHI_DioWakeEnable
                0x0000000000084bae                vAHI_DioSetOutput
                0x0000000000084bca                APP_cbTimerSerialDioSet
                0x0000000000084be0                APP_ButtonsStopWakeUp
                0x0000000000084be8                App_StopSerialPrepareEnterSleep
                0x0000000000084c1b                APP_vSetLED.part.0.15063
                0x0000000000084c21                vAHI_DioSetDirection
                0x0000000000084c35                bIssueACIcommand
                0x0000000000084ccb                vACI_CmdWaitBusy
                0x0000000000084cd8                vEcbEncodeStripe.198565
                0x0000000000084d2f                MAC_u64GetExtAddr
                0x0000000000084d4a                psSearchForFrameToSend
                0x0000000000084d98                eMiniMac_FrameInProgress
                0x0000000000084dc3                vRemoveFromTxQueue
                0x0000000000084dff                vAddToTxQueue
                0x0000000000084e35                u8GetHeaderSize
                0x0000000000084e5d                vMiniMac_PLME_SetReq_CcaMode
                0x0000000000084e71                vMiniMac_MLME_SetReq_MinBe
                0x0000000000084e96                zps_psNwkSlistRemoveFromHead
                0x0000000000084ead                zps_psNwkSlistRemove
                0x0000000000084ee5                zps_bNwkMcpsMgrRemoveDescrFromLists
                0x0000000000084f23                zps_vNwkSlistAddToTail
                0x0000000000084f3d                zps_vNwkMcpsMgrFreeReqDescr
                0x0000000000084f67                zps_vNwkRemoveConflictedBroadcast
                0x0000000000084fbc                zps_vNwkMcpsMgrTidyBtrReqDescr
                0x0000000000084fff                ZPS_bNwkSecHaveNetworkKey
                0x0000000000085033                ZPS_u64NwkNibGetMappedIeeeAddr
                0x0000000000085055                ZPS_vNwkSecResetDevice
                0x000000000008509a                ZPS_bNwkNibNtActvMatch
                0x0000000000085152                ZPS_u64NwkNibFindExtAddr
                0x00000000000851fd                bCheckNwkAddr
                0x000000000008524b                zps_eAplTrustCenterFindDevice
                0x000000000008528f                ZPS_vSetExtendedStatus
                0x00000000000852a1                eAllocateNPDU.106626
                0x0000000000085304                PDUM_eNPduClone
                0x0000000000085350                PDUM_hAPduAllocateAPduInstance
                0x00000000000853aa                hZCL_AllocateAPduInstance
                0x00000000000853e6                zps_eAplZdoSendZdpResponse
                0x000000000008542f                bSendResponse.143609
                0x0000000000085472                zps_psApsApsAllocateDcfmRecord
                0x00000000000854e0                zps_u8CalcLinkCost
                0x000000000008551c                ZPS_u8NwkNibNtDiscMatch
                0x0000000000085600                zps_u64NwkLibFromPayload
                0x000000000008579d                eSmeAcScBeaconInd.189672
                0x00000000000858a5                eSmeUDNTBeaconInd.189648
                0x00000000000858c8                zps_vNwkLibU64ToPayload
                0x00000000000858f5                zps_eNwkDcfmIndPost
                0x0000000000085918                zps_psNwkDcfmIndGetBuf
                0x000000000008593a                zps_eNwkHandleSmePollDcfm
                0x0000000000085964                zps_vSendJoinInd
                0x00000000000859d4                eSmeEdScScanDcfm.189652
                0x0000000000085a1d                eSmeGenlScanDcfm.189656
                0x0000000000085a7b                eNldeDataDcfm.184836
                0x0000000000085aab                zps_vSendNwkStatusInd
                0x0000000000085adb                DBG_vInit
                0x0000000000085b1d                psSLISTsearch
                0x0000000000085b5d                psSLISTremove
                0x0000000000085bdb                psSLISTgetNext
                0x0000000000085bff                u8PDM_CalculateFileSystemCapacity
                0x0000000000085c1d                bPDM_ImageBitmapRepairCheck
                0x0000000000085c45                u8PDM_ReadSequenceNumber
                0x0000000000085c68                boSegmentNumberDeleteSearchMatch.176127
                0x0000000000085c83                u32PDM_ReadFileSystemHeaderWearCount
                0x0000000000085c99                boSearchForWearCountSubstitute.176441
                0x0000000000085cbf                boSearchForWearCountInsertPoint.175706
                0x0000000000085cdd                vPDM_WriteFileSystemHeaderWearCount
                0x0000000000085cef                u8PDM_CalculateSegmentsRequired.part.0.174864
                0x0000000000085d1d                vPDM_ReadBitmapHeader.174641
                0x0000000000085d3c                RND_u32GetRand256
                0x0000000000085d59                zps_vDefaultNwkLayer
                0x0000000000085ef8                RND_u32GetRand
                0x0000000000085f1f                u16CalculateFailedTxCount.144823
                0x0000000000085f49                vZdoIeeeAddrServerSendExtendResponse.part.0.131419
                0x0000000000085faa                vZdoNwkAddrServerSendExtendResponse.part.0.130206
                0x000000000008600b                zps_bAplZdoServerHandleConfirmAcks
                0x0000000000086055                zps_bPerformLeaveActionDecider
                0x000000000008606d                vHandleUpdateDeviceIndication.119023
                0x0000000000086097                bDuplicateCheck.114007
                0x00000000000861a4                zps_vInitAPSMECmdHdr
                0x00000000000861dd                bIsBindTableMatch.113696
                0x000000000008622e                eRemoveEntryInBindingTable.113724
                0x00000000000862ad                zps_vAplApsFillAndPostApsAck
                0x0000000000086317                zps_u8AplApsFreeMsgHandle
                0x0000000000086381                bCheckProfile.109469
                0x00000000000863bf                ZPS_bIsGroupPresent
                0x00000000000863f7                PDUM_u16APduInstanceWriteStrNBO
                0x0000000000086576                PDUM_eNPduReadHeaderNBO
 .text          0x00000000000865c9     0x1421 C:\Users\ADMINI~1\AppData\Local\Temp\ccuL4uDM.ltrans3.ltrans.o
                0x00000000000865c9                DBG_vUartFlush
                0x00000000000865f6                DBG_vUartPutch
                0x0000000000086664                vPostMcpsDcfmInd.127586
                0x00000000000867be                iPDM_SearchForBufferIdInList
                0x00000000000867f3                iPDM_SearchForBufferIdInFileSystem
                0x0000000000086806                iPDM_SearchForSpecificSegmentInList
                0x0000000000086838                iPDM_ReadUserDataFromEEPROMsegment
                0x00000000000868ba                iPDM_ReCalculateWearCountAndChecksumAndWriteFileSystemHeader
                0x0000000000086904                vPDM_SetEEPROMandFileSystemValidState
                0x000000000008692b                iPDM_ReadUserDataFromFileSystemRecord
                0x0000000000086955                iPDM_ReadUserDataFromSegmentWithId
                0x000000000008698a                PDM_eReadDataFromRecord.part.0.174978
                0x0000000000086a11                PDM_eReadDataFromRecord
                0x0000000000086a31                vPDM_WriteFileSystemRecordAndSegmentDataIntoEEPROMsegment
                0x0000000000086a74                u8NumberOfTimersTaskTimers.11071
                0x0000000000086aae                vRadioToOff
                0x0000000000086acb                iPDM_FilterDuplicateAppendedSegmentsOnList.176777
                0x0000000000086b21                App_SerialSendTimeSynchronizer
                0x0000000000086d16                HAL_UART_Write.part.1.9144.constprop.225
                0x0000000000086d75                APP_SerialSendAcknowlegement
                0x0000000000086e32                eOtaFindCluster.constprop.154
                0x0000000000086e7a                vOtaTimerClickCallback
                0x0000000000086ecc                eOtaClientReqSeqNoUpdate
                0x0000000000086ee9                zps_psAllocateAndFormatMacHdr
                0x0000000000087027                zps_psNwkInitCmdFrame
                0x0000000000087110                iPDM_ReadSegmentHeaderDataFromEEPROMsegment
                0x0000000000087169                PWRM_vWakeInterruptCallback
                0x00000000000871b5                PWRM_vManagePower
                0x000000000008732b                u32AHI_WakeTimerCalibrate
                0x0000000000087357                vStartWakeTimer
                0x0000000000087376                vEnableReceive.197219
                0x00000000000873ce                vStartReceive
                0x00000000000873e9                vScheduleSleep.isra.0.11079
                0x000000000008750d                u16ZCL_GetTxPayloadSize
                0x000000000008754d                u16ZCL_APduInstanceWriteNBO
                0x00000000000875d9                u16ZCL_WriteCommandHeader
                0x0000000000087651                u16ZCL_APduInstanceReadNBO
                0x0000000000087736                u16ZCL_ReadCommandHeader.part.0.78250
                0x00000000000877ad                u16ZCL_APduInstanceWriteStringNBO.part.0.74929
                0x000000000008789e                u16ZCL_APduInstanceReadStringNBO
                0x0000000000087973                eZCL_GetAttributeTypeSizeFromBuffer
 *fill*         0x00000000000879ea        0x2 00
 .text          0x00000000000879ec     0x1424 C:\Users\ADMINI~1\AppData\Local\Temp\ccuL4uDM.ltrans4.ltrans.o
                0x00000000000879ec                DBG_iUartGetChar
                0x0000000000087a3c                vOtaFlashErase
                0x0000000000087b0e                APP_cbTimerWriteSerial
                0x0000000000087c83                APP_cbTimerButtonScan
                0x0000000000087cbb                eOrphanNotificationSent.196919
                0x0000000000087d04                DBG_vUartInitHardware
                0x0000000000087dd6                vMiniMac_ReturnTxBufferCallback
                0x0000000000087dff                vPostTxActions.197305
                0x0000000000087e3c                vMiniMac_McpsCallback
                0x0000000000087fc8                eMcpsTxCompleteHandler.196264
                0x0000000000087ff6                eCLD_GroupsSetIdentifying
                0x0000000000088038                ZPS_bSecDecrypt
                0x0000000000088145                bStartXtal32k.198783
                0x000000000008824d                boPDM_IsBitmapSaturated.174677
                0x0000000000088296                zps_bAplZdoMatchDescServer.part.0.132651
                0x00000000000885d1                APP_UARTInitialise
                0x00000000000886e7                vDLISTaddToHead
                0x0000000000088710                vDLISTaddToTail
                0x0000000000088733                psDLISTremove
                0x0000000000088795                eZCLAddReport
                0x0000000000088a49                eZCL_TimerRegister.part.1.94849.constprop.70
                0x0000000000088a8a                eCLD_IdentifyRegisterTimeServer.part.0.22447
                0x0000000000088aaa                eZCL_SearchForAttributeEntry
                0x0000000000088b63                eZCL_SetLocalAttributeValue.constprop.155
                0x0000000000088c0f                eOTA_RestoreClientData
                0x0000000000088c96                vOtaClientUpgMgrMapStates
                0x0000000000088d13                eOTA_SetServerAddress
                0x0000000000088d4e                iPDM_GetLengthOfDataInBufferWithIdFromFileSystem
                0x0000000000088daa                vLoadAplRecord.119072
                0x0000000000088dd8                vLoadNwkRecord.183540
 .text          0x0000000000088e10     0x10c7 C:\Users\ADMINI~1\AppData\Local\Temp\ccuL4uDM.ltrans5.ltrans.o
                0x0000000000088e10                vCLD_IdentifyTimerClickCallback.22440
                0x0000000000088e98                eBeaconReqSent.196923
                0x0000000000088f0f                App_cbTimerRemoteOperationPermit
                0x0000000000088f29                vPDM_AddFileSystemElementToListInAscendingWearCountOrder
                0x0000000000089020                vPDM_MoveAllDataFromListToList.constprop.206
                0x000000000008905d                vPDM_MoveAllDataToDeAllocList.constprop.205
                0x0000000000089085                iPDM_WriteSegmentHeaderAndData
                0x000000000008928e                iPDM_SegmentCopyAndAppendData.constprop.204
                0x00000000000892e8                vPDM_MoveFileRecordFromListToList
                0x000000000008930b                vPDM_MoveRecordToDeAllocList
                0x000000000008932b                iPDM_ReconstructReplacedDataTable
                0x00000000000894d2                zps_u8AplApsConstructAndPostLoopBackDataInd.112278
                0x000000000008960b                u8PostUnicastMsgToNHLE.112286
                0x0000000000089644                AESSW_vMMOFinalUpdate
                0x0000000000089706                AESSW_vHMAC_MMO.constprop.197
                0x000000000008979e                zps_pvAesGetKeyFromInstallCode
                0x00000000000898ee                BDB_vSetKeys
                0x000000000008992e                ZPS_bSecEncrypt
                0x0000000000089ae9                bHasTimerFired.92876
                0x0000000000089b53                u16ZCL_WriteAttributeValueIntoBuffer
                0x0000000000089bd9                ZllCommissonCommandScanSend
 .text.unlikely
                0x0000000000089ed7       0x4c C:\Users\ADMINI~1\AppData\Local\Temp\ccuL4uDM.ltrans5.ltrans.o
                0x0000000000089ed7                vOTA_EncodeString
 .text          0x0000000000089f23     0x1466 C:\Users\ADMINI~1\AppData\Local\Temp\ccuL4uDM.ltrans6.ltrans.o
                0x0000000000089fcd                pwrm_PreSleep.4170
                0x000000000008a08e                vIncrementFrameCounterInPdm.isra.0.183993
                0x000000000008a26a                vProcessListsForSubmission.182762
                0x000000000008a53b                zps_vNwkMcpsMgrPost
                0x000000000008a55f                vSendNetworkReport.181586
                0x000000000008a639                zps_psNwkSendRejoinReqCmd
                0x000000000008a69b                zps_u8NwkHandleRejoinReq
                0x000000000008a767                zps_vProcessLocalAddrConflict.part.1.181603
                0x000000000008a7a1                vContinueRejoin.191472
                0x000000000008a850                zps_eNwkHandleSdeActvDcfmData
                0x000000000008a937                vMcpsMgrTimeoutExpiry
                0x000000000008a9a9                zps_eAplApsmeBindReqRsp
                0x000000000008aa83                zps_vByteCopy
                0x000000000008aab2                vPDM_DeleteAllSegmentsWithIdFromFileSystemList.constprop.8
                0x000000000008aaf4                vRestetOTADiscovery.9789
                0x000000000008ab20                vOTAResetPersist
                0x000000000008ab44                zps_eAplAibSetApsChannelMask
                0x000000000008ab57                zps_bNwkFindAddIeeeAddr
                0x000000000008ac89                zps_eAplZdoAddReplaceLinkKey_W
                0x000000000008ad48                ZPS_bNwkNibAddrMapAddEntry
                0x000000000008aef4                zps_eAplZdoBind
                0x000000000008af8b                zps_sNwkNibNtCheckJoin
                0x000000000008b1e2                zps_vNwkHandleCmeDirectJoinReq
                0x000000000008b25c                eCheckAddrConflict.isra.5.181831
                0x000000000008b2f2                vAplSecRemoveLinkKey.119121
 .text          0x000000000008b389     0x124e C:\Users\ADMINI~1\AppData\Local\Temp\ccuL4uDM.ltrans7.ltrans.o
                0x000000000008b560                vPDM_MoveAllDataWithBufferIdFromListToList
                0x000000000008b5e2                vPDM_DeleteAppendedSequence
                0x000000000008b7e7                PDM_eSaveRecordData
                0x000000000008bac3                zps_vAplSaveRecord
                0x000000000008bb94                ZPS_vNwkSaveRecord
                0x000000000008bbc0                zps_eNwkHandleSceNwkEdTimeoutRsp
                0x000000000008bc22                ZPS_vRemoveEntryFromAddressMap
                0x000000000008bc6b                ZPS_vNwkNibSetNwkAddr
                0x000000000008bc88                zps_eNwkHandleSceRejnResponse
                0x000000000008bce5                ZPS_vNwkNibSetExtPanId
                0x000000000008bd37                vFinish.192645
                0x000000000008bd7f                ZPS_vNwkNibSetUpdateId
                0x000000000008bdc8                ZPS_vNwkNibSetPanId
                0x000000000008bde6                vHandleNwkRemoteUpdateAfterBcast.181594
                0x000000000008be55                ZPS_vNwkNibSetCapabilityInfo
                0x000000000008be82                ZPS_vNwkNibSetChannel
                0x000000000008be9a                ZPS_vNwkSaveNt
                0x000000000008bfaa                ZPS_vNtSetUsedStatus
                0x000000000008c092                zps_vJoinInitNtParent
                0x000000000008c148                zps_vCheckActvNtForDuplicate
                0x000000000008c19f                eSmeOrphScanDcfm.192655
                0x000000000008c217                zps_eNwkHandleSmeCommStatusInd
                0x000000000008c357                eUnsolicitedRejoinRspDataDcfm.181598
                0x000000000008c382                eRejoinRspDataDcfm.191476
                0x000000000008c451                vPDM_MoveAllDataWithBufferIdAndStateFromListToList
                0x000000000008c4d6                iPDM_VerifyDataSequenceWithBufferId
                0x000000000008c576                vPDM_ImageBitmapRepair.175627
 *fill*         0x000000000008c5d7        0x1 00
 .text          0x000000000008c5d8     0x1544 C:\Users\ADMINI~1\AppData\Local\Temp\ccuL4uDM.ltrans8.ltrans.o
                0x000000000008c5d8                vISR_Timer0.8571
                0x000000000008c719                vMcpsMgrExpiry.182628
                0x000000000008c7bd                zps_vNwkHandleCmeLeaveReq
                0x000000000008c825                zps_eNwkHandleSceLeave
                0x000000000008c995                vMiniMac_MlmeCallback
                0x000000000008cc82                bBeaconNotify.196931
                0x000000000008cdbf                vPostDcfm.196938
                0x000000000008ce28                vScanNextChannel.196944
                0x000000000008cfc7                ZPS_vNwkSaveAllRecords
                0x000000000008cffb                zps_vSaveAllZpsRecords
                0x000000000008d01d                APP_vFactoryResetRecords
                0x000000000008d238                vHandleZdoLeaveRequest.6667
                0x000000000008d26c                ZPS_pvNwkCtor.part.0.180618
                0x000000000008d426                zps_psSendFrm.constprop.209
                0x000000000008d609                ZPS_vNwkHandleNldeReqRsp
                0x000000000008d818                zps_eAplApsmeCmdMgrSendCommand
                0x000000000008d8f5                zps_vAplApsmeCmdMgrRetryTimeout.113688
                0x000000000008d91e                zps_psSendNetworkStatusCmd
                0x000000000008d996                zps_eDefaultDataDcfm
 .text          0x000000000008db1c     0x1404 C:\Users\ADMINI~1\AppData\Local\Temp\ccuL4uDM.ltrans9.ltrans.o
                0x000000000008db55                zps_eNwkHandleSmeBeaconNotifyInd
                0x000000000008dc0c                zps_vReAttemptScanTimerHandleExpiry
                0x000000000008dc64                zps_vNwkHandleCmeNwkDiscReq
                0x000000000008dcde                zps_vNwkHandleCmeEdScanReq
                0x000000000008dd87                zps_vNwkHandleCmeNwkJoinReq
                0x000000000008e051                zps_vNwkHandleCmeNwkActvJoinReq
                0x000000000008e19f                vHandleRejoinExpiry.192202
                0x000000000008e1fe                zps_eRejoinDataDcfm
                0x000000000008e242                eSmeAsocAssocDcfm.192815
                0x000000000008e2c6                eSmeRjPCPollDcfm.192811
                0x000000000008e307                eSceRjRsRejoinRsp.192779
                0x000000000008e3cb                vStartScanTimerExpiry.144819
                0x000000000008e407                zps_vAplApsPollTimer
                0x000000000008e466                vAplSecAuthPollTimerExpiry.119000
                0x000000000008e4be                vAplSecAuthTimerExpiry.118996
                0x000000000008e54c                vPostApsdeDcfmInd.109803
                0x000000000008e73d                zps_eNwkSendJoinResponse
                0x000000000008e995                zps_eProcessAddrConflict
                0x000000000008eb42                ZPS_vNwkNibCheckAndUpdateAddresses
                0x000000000008eba8                zps_eNwkHandleSceNwkStatus
                0x000000000008ecc4                eRejoinNetwork.119059
                0x000000000008ed8b                eStartRouter.119090
                0x000000000008ee73                zps_eAplZdoPoll
                0x000000000008eed9                APP_cbTimerPoll
 .text          0x000000000008ef20     0x11d4 C:\Users\ADMINI~1\AppData\Local\Temp\ccuL4uDM.ltrans10.ltrans.o
                0x000000000008ef20                zps_eNwkHandleSmeAssocInd
                0x000000000008f115                vMiniMac_InterruptHandler
                0x000000000008f498                eAssocRespSent.196152
                0x000000000008f4b7                vTransformKey.isra.0.115350
                0x000000000008f518                zps_bGetFlashCredential
                0x000000000008f51d                zps_psFindKeyDescr
                0x000000000008f601                zps_eAplSecEncryptPacket
                0x000000000008f700                zps_eAplSendApsmeCmdFrame
                0x000000000008f9b9                vPostNlmeDcfmInd.109789
 .text          0x00000000000900f4     0x1490 C:\Users\ADMINI~1\AppData\Local\Temp\ccuL4uDM.ltrans11.ltrans.o
                0x0000000000090341                vSendMlmeCommStatusFromTxFrame
                0x0000000000090397                SOC_MAC_vHandleMlmeVsReqRsp.constprop.167
                0x0000000000090ab7                ZPS_vNwkHandleNlmeReqRsp
                0x0000000000090b31                zps_vAplAfPostEvent
                0x0000000000090cf0                vPostToEndpoint.part.1.109518
                0x0000000000090f59                zps_eAplZdoNlmeleaveWrapper
                0x0000000000090fd7                App_cbTimerLeaveAndFactoryNew
                0x0000000000091003                vNsLeaveNwk.101075
                0x0000000000091031                vChangeChannelTimerExpiry.144815
                0x0000000000091091                eLeaveReset.193619
                0x00000000000910fc                eLeaveDataDcfmLocalLeave.193624
                0x0000000000091168                vHandleEdTimeoutReqExpiry.181590
                0x000000000009120f                zps_vNwkHandleCmeSyncReq
                0x0000000000091266                vScanBeaconReceived
                0x00000000000912b1                vRunningRxCallback
 .text          0x0000000000091584     0x1188 C:\Users\ADMINI~1\AppData\Local\Temp\ccuL4uDM.ltrans12.ltrans.o
                0x0000000000091633                vZdoBdrmSendNextTimedRequest
                0x00000000000918c3                zps_eZdpIeeeAddrResponse
                0x00000000000919a6                eZCL_TransmitDataRequest
                0x0000000000091cd1                eZCL_SendDefaultResponse
                0x0000000000091dd0                eZCL_CustomCommandReceive
                0x0000000000091f3e                eCLD_GroupsCommandHandler
                0x0000000000092059                eCLD_DoorLockCommandHandler
                0x00000000000920dc                vZCL_HandleAttributesReadResponse
                0x00000000000922b8                vReportTimerClickCallback
 .text          0x000000000009270c     0x1443 C:\Users\ADMINI~1\AppData\Local\Temp\ccuL4uDM.ltrans13.ltrans.o
                0x000000000009281f                vMacMlmeCallBackHandler.104944
                0x0000000000092834                vMacMcpsCallBackHandler.104948
                0x0000000000092845                eCLD_DoorLockSceneEventHandler.57730
                0x000000000009286a                App_cbTimerWakeUpTimeOut
                0x0000000000092873                APP_ZCL_cbGeneralCallback.8437
                0x0000000000092876                vfExtendedStatusCallBack.4163
                0x0000000000092879                bCLD_AlarmsSearchForAlarm.17317
                0x00000000000928b1                APP_cbTimerSerialTimeout
                0x00000000000928d5                pdum_u16ReadNBO
                0x0000000000092a36                PDUM_u16SizeNBO
                0x0000000000092a94                PDUM_u16APduInstanceReadNBO
                0x0000000000092adf                PDUM_u16APduInstanceWriteNBO
                0x0000000000092b49                PDUM_thAPduInstanceGetApdu
                0x0000000000092b64                PDUM_eAPduFreeAPduInstance
                0x0000000000092bca                PDUM_eAPduInstanceSetPayloadSize
                0x0000000000092bf2                PDUM_eNPduWriteDataFromBuffer
                0x0000000000092c4c                PDUM_eNPduWriteDataToBuffer
                0x0000000000092caa                PDUM_eNPduWriteFromBuffer
                0x0000000000092cd3                PDUM_eNPduDescend
                0x0000000000092cf9                PDUM_eNPduAscend
                0x0000000000092d1f                PDUM_eNPduClaimData
                0x0000000000092d8c                PDUM_eNPduAppendDataNBO
                0x0000000000092de9                PDUM_eNPduClaimHeader
                0x0000000000092e0c                PDUM_eNPduPrependHeaderNBO
                0x0000000000092e67                PDUM_eNPduFree
                0x0000000000092ec5                PDUM_eNPduInitDescending
                0x0000000000092ee0                ZTIMER_eStop
                0x0000000000092f29                BDB_vFbExitAsInitiator
                0x0000000000092f4c                vStopPollTimerTask
                0x0000000000092f60                ZTIMER_eStart
                0x0000000000092fb5                vStartPollTimer
                0x0000000000092fc5                eZCL_SearchForClusterEntry
                0x0000000000093029                eZCL_BuildTransmitAddressStructure
                0x0000000000093096                eZCL_SearchForEPentry
                0x00000000000930c7                eZCL_SearchForEPentryAndCheckManufacturerId
                0x0000000000093105                vZCL_PassEventToUser
                0x0000000000093132                eZCL_DoesAttributeHaveReportableChange
                0x000000000009314f                eZCL_GetAttributeReportableEntry
                0x0000000000093207                vZCL_AlignNumericAttributeValueTo64.92330
                0x0000000000093316                vZCL_SetDefaultReporting
                0x0000000000093348                eZCL_BuildClientTransmitAddressStructure
                0x0000000000093379                u8GetTransactionSequenceNumber
                0x000000000009338b                bZCL_CheckAttributeDirectionFlagMatch
                0x00000000000933af                eZCL_GetAttributeTypeSize
                0x00000000000933ce                vZCL_MarkAttributeInvalid
                0x000000000009349d                u8ZCL_GetAttributeAllignToFourBytesBoundary
                0x00000000000934b2                pvZCL_GetAttributePointer
                0x0000000000093528                eZCL_StoreChangeAttributeValue
                0x00000000000935c7                vReverseMemcpy.part.2.73477
                0x00000000000935fc                vReverseMemcpy
                0x0000000000093614                sOtaGetHeader
                0x0000000000093722                u16ZCL_GetStringStructureSize
                0x000000000009375f                u16ZCL_GetStringAttributeTypeSizeFromBuffer
                0x00000000000937d0                u16ZCL_GetStringSizeAndBufferFromStructure
                0x000000000009385f                eZCL_GetAttributeTypeSizeFromStructure
                0x00000000000938d8                vZCL_InitializeClusterInstance
                0x00000000000938ed                vOtaFlashLockWrite
                0x0000000000093933                vOtaFlashLockRead
                0x0000000000093979                eOtaSetEventTypeAndGiveCallBack
                0x0000000000093994                vAppSerialCacheArea_Init
                0x00000000000939bd                vAPP_ZCL_DeviceSpecific_Init
                0x0000000000093a4a                APP_vSetUpHardware
 .text.unlikely
                0x0000000000093b4f       0x36 C:\Users\ADMINI~1\AppData\Local\Temp\ccuL4uDM.ltrans13.ltrans.o
                0x0000000000093b4f                eOTA_retOtaUseKey
 *fill*         0x0000000000093b85        0x3 00
 .text          0x0000000000093b88     0x1284 C:\Users\ADMINI~1\AppData\Local\Temp\ccuL4uDM.ltrans14.ltrans.o
                0x0000000000093ffe                eCLD_ZllCommissionCommandHandler
                0x0000000000094256                eCLD_IASWDCommandHandler
                0x0000000000094380                eOtaCommandHandler
                0x0000000000094927                eCLD_BasicCommandHandler
                0x0000000000094996                vZCL_HandleAttributesWriteRequest
 .text          0x0000000000094e0c     0x1231 C:\Users\ADMINI~1\AppData\Local\Temp\ccuL4uDM.ltrans15.ltrans.o
                0x0000000000094ef8                vOtaUpgManClientStateCountDown.67322
                0x000000000009502d                vOtaFlashWrite
                0x0000000000095139                vMiniMac_NextTransaction
                0x00000000000951a3                psGetTxFrameBuffer
                0x00000000000951f6                psGetAndBuildCoordRealignment
                0x000000000009524e                zps_vInitBeaconPayload
                0x00000000000952c2                eZCL_SetReceiveEventAddressStructure
                0x0000000000095341                dbg_vPrintfImplNoneVerbose
                0x00000000000957c8                DBG_vDumpStack
                0x000000000009580a                vShowException
                0x0000000000095893                vMiniMac_Init
                0x0000000000095c06                pwrm_Wakeup.4166
                0x0000000000095cd9                eTransmit
                0x0000000000095db6                SOC_MAC_vHandleMcpsVsReqRsp.constprop.216
                0x0000000000095f34                eBuildAndSend.196927
                0x0000000000095fa9                vMiniMac_TxComplete
 *fill*         0x000000000009603d        0x3 00
 .text          0x0000000000096040     0x11a4 C:\Users\ADMINI~1\AppData\Local\Temp\ccuL4uDM.ltrans16.ltrans.o
                0x0000000000096040                vZCL_EventHandler
 .text          0x00000000000971e4      0xdaa C:\Users\ADMINI~1\AppData\Local\Temp\ccuL4uDM.ltrans17.ltrans.o
                0x00000000000971e4                APP_vInitialiseNode
 *fill*         0x0000000000097f8e        0x2 00
 .text          0x0000000000097f90     0x1064 C:\Users\ADMINI~1\AppData\Local\Temp\ccuL4uDM.ltrans18.ltrans.o
                0x0000000000097fd2                eCLD_AlarmsCommandHandler
                0x000000000009826f                APP_vBdbCallback
                0x0000000000098656                vNsDiscoverNwk.101077
                0x00000000000987fd                vNsAfterNwkJoin.101067
                0x00000000000988eb                BDB_vNsTimerCb
                0x0000000000098959                vFbBindCluster.104761
                0x0000000000098d9a                BDB_vFbTimerCb
                0x0000000000098e51                App_SendOperationEventNotification
                0x0000000000098f00                App_SampleDoorLockSendAlarmCmd
 .text          0x0000000000098ff4     0x10e8 C:\Users\ADMINI~1\AppData\Local\Temp\ccuL4uDM.ltrans19.ltrans.o
                0x00000000000991b9                APP_cbTimerOTAStart
                0x00000000000994ac                eCLD_IdentifyCommandHandler
                0x0000000000099672                BDB_vRejoinTimerCb
                0x0000000000099696                APP_cbStartNWKJoin
                0x00000000000996fe                eOTA_ClientUpgradeEndRequest
                0x00000000000997aa                vOtaAbortDownload.67359
                0x0000000000099821                vOtaHandleTimedBlockRequest.67353
                0x00000000000998be                vOtaUpgManClientStateIdle.67301
 .text          0x000000000009a0dc      0xf81 C:\Users\ADMINI~1\AppData\Local\Temp\ccuL4uDM.ltrans20.ltrans.o
                0x000000000009a0dc                zps_bAplZdoMgmtNWKUpdateServer
                0x000000000009a424                zps_vAplZdoMgmtNWKUpdateServerInit
                0x000000000009a42d                zps_bAplZdoMgmtLeaveServer
                0x000000000009a5c3                zps_vAplZdoMgmtLeaveServerInit
                0x000000000009a5cc                zps_bAplZdoMgmtLqiServer
                0x000000000009a852                zps_vAplZdoMgmtLqiServerInit
                0x000000000009a85b                zps_bAplZdoSystemServerDiscoveryServer
                0x000000000009a918                zps_vAplZdoSystemServerDiscoveryServerInit
                0x000000000009a921                zps_bAplZdoDeviceAnnceServer
                0x000000000009ab66                zps_vAplZdoDeviceAnnceServerInit
                0x000000000009ab69                zps_bAplZdoActiveEpServer
                0x000000000009ac7f                zps_vAplZdoActiveEpServerInit
                0x000000000009ac88                zps_bAplZdoPowerDescServer
                0x000000000009add5                zps_vAplZdoPowerDescServerInit
                0x000000000009adde                zps_bAplZdoSimpleDescServer
 *fill*         0x000000000009b05d        0x3 00
 .text          0x000000000009b060      0xef8 C:\Users\ADMINI~1\AppData\Local\Temp\ccuL4uDM.ltrans21.ltrans.o
                0x000000000009b060                vPostNldeDcfmInd.109810
 .text          0x000000000009bf58      0xcb0 C:\Users\ADMINI~1\AppData\Local\Temp\ccuL4uDM.ltrans22.ltrans.o
                0x000000000009c0fc                BDB_eNsStartNwkSteering
                0x000000000009c192                BDB_vRejoinCycle.constprop.136
                0x000000000009c410                BDB_vStart
                0x000000000009c5ae                bdb_taskBDB
 .text          0x000000000009cc08      0xbd8 C:\Users\ADMINI~1\AppData\Local\Temp\ccuL4uDM.ltrans23.ltrans.o
                0x000000000009cc08                vPostApsmeDcfmInd.109796
                0x000000000009d691                App_cbTimerProcessSerialEvent
                0x000000000009d752                vApp_EventHandleSerialCache
 .text          0x000000000009d7e0      0xafb C:\Users\ADMINI~1\AppData\Local\Temp\ccuL4uDM.ltrans24.ltrans.o
                0x000000000009db49                vApsmeResendTimeOutHandler
                0x000000000009db78                ZPS_vAplHandleApsdeReqRsp
                0x000000000009dfac                zps_eAplZdpApsdeReqInternal
                0x000000000009e01b                zps_eAplZdpGenStatusOnlyResponse
                0x000000000009e076                vNsTclkSendReqKey.101073
                0x000000000009e11a                vHandleTransportKeyFrame.115154
 .text          0x000000000009e2db      0xb55 C:\Users\ADMINI~1\AppData\Local\Temp\ccuL4uDM.ltrans25.ltrans.o
                0x000000000009e2db                zps_eZdpNodeDescResponse
                0x000000000009e383                zps_eZdpSimpleDescResponse
                0x000000000009e490                zps_eZdpPowerDescResponse
                0x000000000009e52d                zps_eZdpActiveEpResponse
                0x000000000009e5c3                zps_eZdpMatchDescResponse
                0x000000000009e659                zps_eZdpSystemServerDiscoveryResponse
                0x000000000009e6c8                zps_eAplZdpMgmtLqiResponse
                0x000000000009e7d8                zps_eZdpMgmtNwkUpdateNotifyResponse
                0x000000000009e88a                zps_eZdpNwkAddrResponse
                0x000000000009e96d                zps_eAplZdpBindResponse
                0x000000000009e98e                zps_eZdpUnbindResponse
                0x000000000009e9af                zps_eZdpMgmtLeaveResponse
                0x000000000009e9d0                eSendDeviceAnnounce.147524
                0x000000000009eada                zps_eAplZdpRequestApsdeReq
                0x000000000009eb4f                vNsSendPermitJoin.101065
                0x000000000009ebc2                vFbSendSimpleDescReq.103901
                0x000000000009ec3d                zps_eAplZdpIeeeAddrRequest.constprop.27
                0x000000000009ecaf                BDB_vZclEventHandler
 .text          0x000000000009ee30      0xae0 C:\Users\ADMINI~1\AppData\Local\Temp\ccuL4uDM.ltrans26.ltrans.o
                0x000000000009ee30                vOtaUpgManClientStateWaitForRunCommand.67318
                0x000000000009ef3d                vOtaUpgManClientStateDownloadComplete.67314
                0x000000000009f0f7                vOtaUpgManClientStateDownloadInProgress.67310
 .text          0x000000000009f910      0xcfa C:\Users\ADMINI~1\AppData\Local\Temp\ccuL4uDM.ltrans27.ltrans.o
                0x000000000009f910                eZLO_RegisterOccupancySensorEndPoint.constprop.51
                0x00000000000a020a                APP_ZCL_cbEndpointCallback.8434
 .text          0x00000000000a060a      0x94c C:\Users\ADMINI~1\AppData\Local\Temp\ccuL4uDM.ltrans28.ltrans.o
                0x00000000000a060a                zps_vAplZdoSimpleDescServerInit
                0x00000000000a0613                zps_bAplZdoNodeDescServer
                0x00000000000a07af                zps_vAplZdoNodeDescServerInit
                0x00000000000a07b8                zps_bAplZdoMatchDescServer
                0x00000000000a0804                zps_vAplZdoMatchDescServerInit
                0x00000000000a080d                zps_bAplZdoIeeeAddrServer
                0x00000000000a0999                zps_vAplZdoIeeeAddrServerInit
                0x00000000000a09a2                zps_bAplZdoNwkAddrServer
                0x00000000000a0b59                zps_vAplZdoNwkAddrServerInit
                0x00000000000a0b62                zps_isrMAC
                0x00000000000a0b7c                zps_bAplZdoDefaultServer
                0x00000000000a0df7                zps_vAplZdoDefaultServerInit
                0x00000000000a0e00                zps_vHandleApsdeDataFragIndNotSupported
                0x00000000000a0ea8                pdum_vAPduInit
                0x00000000000a0efc                pdum_vNPduInit
                0x00000000000a0f3c                AppWarmStart
 .text          0x00000000000a0f56      0x7ad C:\Users\ADMINI~1\AppData\Local\Temp\ccuL4uDM.ltrans29.ltrans.o
                0x00000000000a0f56                zps_bAplZdoMgmtBindServer
                0x00000000000a117a                zps_vAplZdoMgmtBindServerInit
                0x00000000000a1183                zps_bAplZdoZdoClient
                0x00000000000a1321                zps_vAplZdoZdoClientInit
                0x00000000000a132d                zps_vAplZdoBindRequestServerInit
                0x00000000000a138e                zps_bAplZdoBindUnbindServer
                0x00000000000a16fa                zps_vAplZdoBindUnbindServerInit
 .text          0x00000000000a1703      0x736 C:\Users\ADMINI~1\AppData\Local\Temp\ccuL4uDM.ltrans30.ltrans.o
                0x00000000000a1882                APP_cbTimerZclTick
                0x00000000000a18c5                eZCL_CustomCommandSend.constprop.187
                0x00000000000a1b77                vSendReportPowerConfig
                0x00000000000a1b9b                vHandleNewJoinEvent
                0x00000000000a1bdd                vDioEventHandler.12113
                0x00000000000a1cf8                eZCL_ReportAttribute.constprop.177
                0x00000000000a1e14                App_SendReportDoorLockState
 *fill*         0x00000000000a1e39        0x3 00
 .text          0x00000000000a1e3c      0x3c0 C:\Users\ADMINI~1\AppData\Local\Temp\ccuL4uDM.ltrans31.ltrans.o
                0x00000000000a1e3c                vUnclaimedInterrupt
                0x00000000000a1e51                vBusErrorHandler
                0x00000000000a1e60                vAlignmentErrorHandler
                0x00000000000a1e6f                vIllegalInstructionHandler
                0x00000000000a1e7e                vTrapHandler
                0x00000000000a1e8d                vGenericHandler
                0x00000000000a1e9c                vUnclaimedException
                0x00000000000a1eab                vStackOverflowHandler
                0x00000000000a1eba                ISR_vTickTimer
                0x00000000000a1ef2                APP_vGenCallback
                0x00000000000a1f10                vUART_HandleUartInterrupt
                0x00000000000a2187                vISR_SystemController
 .text          0x00000000000a21fc       0x25 e:/nxp/bstudio_nxp/sdk/tools/ba-elf-ba2-r36379/bin/../lib/gcc/ba-elf/4.7.4/../../../../ba-elf/lib/mcpu_jn51xx_sizeopt\libc.a(lib_a-memcmp.o)
                0x00000000000a21fc                memcmp
 .text          0x00000000000a2221       0x19 e:/nxp/bstudio_nxp/sdk/tools/ba-elf-ba2-r36379/bin/../lib/gcc/ba-elf/4.7.4/../../../../ba-elf/lib/mcpu_jn51xx_sizeopt\libc.a(lib_a-memcpy.o)
 .text          0x00000000000a223a       0x12 e:/nxp/bstudio_nxp/sdk/tools/ba-elf-ba2-r36379/bin/../lib/gcc/ba-elf/4.7.4/../../../../ba-elf/lib/mcpu_jn51xx_sizeopt\libc.a(lib_a-memset.o)
                0x00000000000a223a                memset
 .text          0x00000000000a224c      0x204 e:/nxp/bstudio_nxp/sdk/tools/ba-elf-ba2-r36379/bin/../lib/gcc/ba-elf/4.7.4/mcpu_jn51xx_sizeopt\libgcc.a(__udivsi3.o)
                0x00000000000a224c                __udivsi3
 .text          0x00000000000a2450       0x30 e:/nxp/bstudio_nxp/sdk/tools/ba-elf-ba2-r36379/bin/../lib/gcc/ba-elf/4.7.4/mcpu_jn51xx_sizeopt\libgcc.a(__divsi3.o)
                0x00000000000a2450                __divsi3
 .text          0x00000000000a2480      0x1b0 e:/nxp/bstudio_nxp/sdk/tools/ba-elf-ba2-r36379/bin/../lib/gcc/ba-elf/4.7.4/mcpu_jn51xx_sizeopt\libgcc.a(__umodsi3.o)
                0x00000000000a2480                __umodsi3
 .text          0x00000000000a2630       0x24 e:/nxp/bstudio_nxp/sdk/tools/ba-elf-ba2-r36379/bin/../lib/gcc/ba-elf/4.7.4/mcpu_jn51xx_sizeopt\libgcc.a(__modsi3.o)
                0x00000000000a2630                __modsi3
 .text          0x00000000000a2654       0x52 e:/nxp/bstudio_nxp/sdk/tools/ba-elf-ba2-r36379/bin/../lib/gcc/ba-elf/4.7.4/mcpu_jn51xx_sizeopt\libgcc.a(_muldi3.o)
                0x00000000000a2654                __muldi3
 .text          0x00000000000a26a6      0x350 e:/nxp/bstudio_nxp/sdk/tools/ba-elf-ba2-r36379/bin/../lib/gcc/ba-elf/4.7.4/mcpu_jn51xx_sizeopt\libgcc.a(_udivdi3.o)
                0x00000000000a26a6                __udivdi3
 *fill*         0x00000000000a29f6        0x2 00
 .text          0x00000000000a29f8       0xd0 e:/NXP/Sensor/WL_DoorLock/Build/portasm.o
                0x00000000000a29f8                OSMIUM_HwVectTable
                0x00000000000a2a34                vExternalException
 .text          0x00000000000a2ac8       0x48 e:/NXP/bstudio_nxp/sdk/JN-SW-4170/Components/Library\libPWRM_JN516x.a(pwrm_setjmp_JN516x.o)
                0x00000000000a2ac8                setjmp
                0x00000000000a2aec                PWRM_longjmp
 .text          0x00000000000a2b10        0x0 e:/NXP/bstudio_nxp/sdk/JN-SW-4170/Components/Library\libZPSAPL_JN516x.a(zps_apl_version_lc.o)
                0x00000000000a2b10                ZPS_APL_Version_3v0
 .text          0x00000000000a2b10        0x0 e:/NXP/bstudio_nxp/sdk/JN-SW-4170/Components/Library\libZPSNWK_ZED_JN516x.a(zps_nwk_version_lc.o)
                0x00000000000a2b10                ZPS_NWK_Version_3v0
 .text          0x00000000000a2b10       0x27 e:/NXP/bstudio_nxp/sdk/JN-SW-4170/Components/Library\libHardwareApi_JN5169.a(AHI_Interrupt.o)
                0x00000000000a2b10                vAHI_InterruptSetPriority
                0x00000000000a2b2e                vAHI_InterruptSetActivePriorityLevel
 .text.vMicroSyscall
                0x00000000000a2b37       0x17 e:/NXP/bstudio_nxp/sdk/JN-SW-4170/Components/Library\libMicroSpecific_JN516x.a(MicroSyscall_ba.o)
                0x00000000000a2b37                vMicroSyscall
                0x00000000000a2b4e                _flash_end = ABSOLUTE (.)

.rela.dyn       0x00000000000a2b50        0x0
 .rela.text     0x0000000000000000        0x0 e:/NXP/Sensor/WL_DoorLock/Build/irq_JN516x.o
 .rela.text.PDUM_vInit
                0x0000000000000000        0x0 e:/NXP/Sensor/WL_DoorLock/Build/irq_JN516x.o
 .rela.text.vZdoServersInit
                0x0000000000000000        0x0 e:/NXP/Sensor/WL_DoorLock/Build/irq_JN516x.o
 .rela.text.ZPS_vDefaultKeyInit
                0x0000000000000000        0x0 e:/NXP/Sensor/WL_DoorLock/Build/irq_JN516x.o
 .rela.data.s_sApl
                0x0000000000000000        0x0 e:/NXP/Sensor/WL_DoorLock/Build/irq_JN516x.o
 .rela.rodata.s_asAplZdoServers
                0x0000000000000000        0x0 e:/NXP/Sensor/WL_DoorLock/Build/irq_JN516x.o
 .rela.data     0x0000000000000000        0x0 e:/NXP/Sensor/WL_DoorLock/Build/irq_JN516x.o
 .rela.rodata   0x0000000000000000        0x0 e:/NXP/Sensor/WL_DoorLock/Build/irq_JN516x.o
                0x000000000400004c                . = ORIGIN (ram)

.data           0x000000000400004c      0x5d0 load address 0x00000000000a2b50
                0x000000000400004c                _ram_data_start = ABSOLUTE (.)
 *(.data*)
 .data.s_asapduZCLInstances
                0x000000000400004c       0xb4 e:/NXP/Sensor/WL_DoorLock/Build/pdum_gen.o
                0x000000000400004c                s_asapduZCLInstances
 .data.s_asapduZDPInstances
                0x0000000004000100       0xc0 e:/NXP/Sensor/WL_DoorLock/Build/pdum_gen.o
                0x0000000004000100                s_asapduZDPInstances
 .data.s_asAPduPool
                0x00000000040001c0       0x18 e:/NXP/Sensor/WL_DoorLock/Build/pdum_apdu.o
                0x00000000040001c0                pdum_apduZDP
                0x00000000040001c0                s_asAPduPool
                0x00000000040001cc                pdum_apduZCL
 .data.zps_g_pvApl
                0x00000000040001d8        0x4 e:/NXP/Sensor/WL_DoorLock/Build/zps_gen.o
                0x00000000040001d8                zps_g_pvApl
 .data.u8ZpsConfigStackProfileId
                0x00000000040001dc        0x1 e:/NXP/Sensor/WL_DoorLock/Build/zps_gen.o
                0x00000000040001dc                u8ZpsConfigStackProfileId
 .data.au8EpMapPresent
                0x00000000040001dd        0x1 e:/NXP/Sensor/WL_DoorLock/Build/zps_gen.o
                0x00000000040001dd                au8EpMapPresent
 .data.u8MaxZpsConfigEp
                0x00000000040001de        0x1 e:/NXP/Sensor/WL_DoorLock/Build/zps_gen.o
                0x00000000040001de                u8MaxZpsConfigEp
 *fill*         0x00000000040001df        0x1 00
 .data.s_keyPairTableStorage
                0x00000000040001e0       0x48 e:/NXP/Sensor/WL_DoorLock/Build/zps_gen.o
 .data.s_sApl   0x0000000004000228      0x150 e:/NXP/Sensor/WL_DoorLock/Build/zps_gen.o
 .data.s_sAplAib
                0x0000000004000378       0x38 e:/NXP/Sensor/WL_DoorLock/Build/zps_gen.o
 .data.s_sNodeDescriptor
                0x00000000040003b0       0x10 e:/NXP/Sensor/WL_DoorLock/Build/zps_gen.o
 .data.s_asSimpleDescConts
                0x00000000040003c0       0x40 e:/NXP/Sensor/WL_DoorLock/Build/zps_gen.o
 .data.s_sApsDuplicateTable
                0x0000000004000400       0x10 e:/NXP/Sensor/WL_DoorLock/Build/zps_gen.o
 .data.s_sApsmeCmdContainer_1
                0x0000000004000410       0x38 e:/NXP/Sensor/WL_DoorLock/Build/zps_gen.o
 .data.s_bindingTables
                0x0000000004000448        0x8 e:/NXP/Sensor/WL_DoorLock/Build/zps_gen.o
 .data.s_keyPairTable
                0x0000000004000450        0x8 e:/NXP/Sensor/WL_DoorLock/Build/zps_gen.o
 .data.s_au8Endpoint1InputClusterDiscFlags
                0x0000000004000458        0x1 e:/NXP/Sensor/WL_DoorLock/Build/zps_gen.o
 .data.s_au8Endpoint1OutputClusterDiscFlags
                0x0000000004000459        0x1 e:/NXP/Sensor/WL_DoorLock/Build/zps_gen.o
 *fill*         0x000000000400045a        0x2 00
 .data.s_sApsmeCmdContainer_2
                0x000000000400045c       0x38 e:/NXP/Sensor/WL_DoorLock/Build/zps_gen.o
 *fill*         0x0000000004000494        0x4 00
 .data.s_bindingTable
                0x0000000004000498       0x10 e:/NXP/Sensor/WL_DoorLock/Build/zps_gen.o
 .data.s_sApsmeCmdContainer_3
                0x00000000040004a8       0x38 e:/NXP/Sensor/WL_DoorLock/Build/zps_gen.o
 .data          0x00000000040004e0       0x18 C:\Users\ADMINI~1\AppData\Local\Temp\ccuL4uDM.ltrans0.ltrans.o
                0x00000000040004e0                u8AhiBaudRate.176963
 .data          0x00000000040004f8        0x4 C:\Users\ADMINI~1\AppData\Local\Temp\ccuL4uDM.ltrans1.ltrans.o
                0x00000000040004f8                u32HeapStart
 .data          0x00000000040004fc        0x4 C:\Users\ADMINI~1\AppData\Local\Temp\ccuL4uDM.ltrans3.ltrans.o
 .data          0x0000000004000500        0x8 C:\Users\ADMINI~1\AppData\Local\Temp\ccuL4uDM.ltrans4.ltrans.o
                0x0000000004000500                u32CmdCountID.9234
 .data          0x0000000004000508        0x4 C:\Users\ADMINI~1\AppData\Local\Temp\ccuL4uDM.ltrans5.ltrans.o
                0x0000000004000508                bCanLoopback.112509
 .data          0x000000000400050c        0x6 C:\Users\ADMINI~1\AppData\Local\Temp\ccuL4uDM.ltrans8.ltrans.o
 .data          0x0000000004000512        0x2 C:\Users\ADMINI~1\AppData\Local\Temp\ccuL4uDM.ltrans15.ltrans.o
 .data          0x0000000004000514       0x40 C:\Users\ADMINI~1\AppData\Local\Temp\ccuL4uDM.ltrans17.ltrans.o
                0x0000000004000514                u32PreviousDioState.8630
                0x0000000004000518                u8MiniMacConfig_MaxConcurrentAssocResponses
                0x000000000400051c                u32OTAQueryTimeinSec.10306
                0x0000000004000520                u8OTAStartMachine
 .data          0x0000000004000554        0x4 C:\Users\ADMINI~1\AppData\Local\Temp\ccuL4uDM.ltrans18.ltrans.o
                0x0000000004000554                bReadWriteAttrFlg
 .data          0x0000000004000558        0x1 C:\Users\ADMINI~1\AppData\Local\Temp\ccuL4uDM.ltrans23.ltrans.o
 *fill*         0x0000000004000559        0x3 00
 .data          0x000000000400055c       0xbc C:\Users\ADMINI~1\AppData\Local\Temp\ccuL4uDM.ltrans27.ltrans.o
 .data          0x0000000004000618        0x1 C:\Users\ADMINI~1\AppData\Local\Temp\ccuL4uDM.ltrans31.ltrans.o
 *(.data.*)
                0x000000000400061c                . = ALIGN (0x4)
 *fill*         0x0000000004000619        0x3 00
                0x000000000400061c                _ram_data_end = ABSOLUTE (.)

.bss            0x000000000400061c     0x44b0 load address 0x00000000000a3120
                0x000000000400061c                _bss_start = ABSOLUTE (.)
 *(.bss*)
 .bss.s_asNPduPool
                0x000000000400061c      0xc00 e:/NXP/Sensor/WL_DoorLock/Build/pdum_gen.o
 .bss.s_au8apduZCLInstance0Storage
                0x000000000400121c       0x64 e:/NXP/Sensor/WL_DoorLock/Build/pdum_gen.o
 .bss.s_au8apduZCLInstance1Storage
                0x0000000004001280       0x64 e:/NXP/Sensor/WL_DoorLock/Build/pdum_gen.o
 .bss.s_au8apduZCLInstance2Storage
                0x00000000040012e4       0x64 e:/NXP/Sensor/WL_DoorLock/Build/pdum_gen.o
 .bss.s_au8apduZCLInstance3Storage
                0x0000000004001348       0x64 e:/NXP/Sensor/WL_DoorLock/Build/pdum_gen.o
 .bss.s_au8apduZCLInstance4Storage
                0x00000000040013ac       0x64 e:/NXP/Sensor/WL_DoorLock/Build/pdum_gen.o
 .bss.s_au8apduZCLInstance5Storage
                0x0000000004001410       0x64 e:/NXP/Sensor/WL_DoorLock/Build/pdum_gen.o
 .bss.s_au8apduZCLInstance6Storage
                0x0000000004001474       0x64 e:/NXP/Sensor/WL_DoorLock/Build/pdum_gen.o
 .bss.s_au8apduZCLInstance7Storage
                0x00000000040014d8       0x64 e:/NXP/Sensor/WL_DoorLock/Build/pdum_gen.o
 .bss.s_au8apduZCLInstance8Storage
                0x000000000400153c       0x64 e:/NXP/Sensor/WL_DoorLock/Build/pdum_gen.o
 .bss.s_au8apduZCLInstance9Storage
                0x00000000040015a0       0x64 e:/NXP/Sensor/WL_DoorLock/Build/pdum_gen.o
 .bss.s_au8apduZCLInstance10Storage
                0x0000000004001604       0x64 e:/NXP/Sensor/WL_DoorLock/Build/pdum_gen.o
 .bss.s_au8apduZCLInstance11Storage
                0x0000000004001668       0x64 e:/NXP/Sensor/WL_DoorLock/Build/pdum_gen.o
 .bss.s_au8apduZCLInstance12Storage
                0x00000000040016cc       0x64 e:/NXP/Sensor/WL_DoorLock/Build/pdum_gen.o
 .bss.s_au8apduZCLInstance13Storage
                0x0000000004001730       0x64 e:/NXP/Sensor/WL_DoorLock/Build/pdum_gen.o
 .bss.s_au8apduZCLInstance14Storage
                0x0000000004001794       0x64 e:/NXP/Sensor/WL_DoorLock/Build/pdum_gen.o
 .bss.s_au8apduZDPInstance0Storage
                0x00000000040017f8       0x64 e:/NXP/Sensor/WL_DoorLock/Build/pdum_gen.o
 .bss.s_au8apduZDPInstance1Storage
                0x000000000400185c       0x64 e:/NXP/Sensor/WL_DoorLock/Build/pdum_gen.o
 .bss.s_au8apduZDPInstance2Storage
                0x00000000040018c0       0x64 e:/NXP/Sensor/WL_DoorLock/Build/pdum_gen.o
 .bss.s_au8apduZDPInstance3Storage
                0x0000000004001924       0x64 e:/NXP/Sensor/WL_DoorLock/Build/pdum_gen.o
 .bss.s_au8apduZDPInstance4Storage
                0x0000000004001988       0x64 e:/NXP/Sensor/WL_DoorLock/Build/pdum_gen.o
 .bss.s_au8apduZDPInstance5Storage
                0x00000000040019ec       0x64 e:/NXP/Sensor/WL_DoorLock/Build/pdum_gen.o
 .bss.s_au8apduZDPInstance6Storage
                0x0000000004001a50       0x64 e:/NXP/Sensor/WL_DoorLock/Build/pdum_gen.o
 .bss.s_au8apduZDPInstance7Storage
                0x0000000004001ab4       0x64 e:/NXP/Sensor/WL_DoorLock/Build/pdum_gen.o
 .bss.s_au8apduZDPInstance8Storage
                0x0000000004001b18       0x64 e:/NXP/Sensor/WL_DoorLock/Build/pdum_gen.o
 .bss.s_au8apduZDPInstance9Storage
                0x0000000004001b7c       0x64 e:/NXP/Sensor/WL_DoorLock/Build/pdum_gen.o
 .bss.s_au8apduZDPInstance10Storage
                0x0000000004001be0       0x64 e:/NXP/Sensor/WL_DoorLock/Build/pdum_gen.o
 .bss.s_au8apduZDPInstance11Storage
                0x0000000004001c44       0x64 e:/NXP/Sensor/WL_DoorLock/Build/pdum_gen.o
 .bss.s_au8apduZDPInstance12Storage
                0x0000000004001ca8       0x64 e:/NXP/Sensor/WL_DoorLock/Build/pdum_gen.o
 .bss.s_au8apduZDPInstance13Storage
                0x0000000004001d0c       0x64 e:/NXP/Sensor/WL_DoorLock/Build/pdum_gen.o
 .bss.s_au8apduZDPInstance14Storage
                0x0000000004001d70       0x64 e:/NXP/Sensor/WL_DoorLock/Build/pdum_gen.o
 .bss.s_au8apduZDPInstance15Storage
                0x0000000004001dd4       0x64 e:/NXP/Sensor/WL_DoorLock/Build/pdum_gen.o
 .bss.s_groupPdmTable
                0x0000000004001e38        0x8 e:/NXP/Sensor/WL_DoorLock/Build/zps_gen.o
                0x0000000004001e38                s_groupPdmTable
 .bss.g_psGreenPowerContext
                0x0000000004001e40        0x4 e:/NXP/Sensor/WL_DoorLock/Build/zps_gen.o
                0x0000000004001e40                g_psGreenPowerContext
 .bss.g_pbZpsMutex
                0x0000000004001e44        0x1 e:/NXP/Sensor/WL_DoorLock/Build/zps_gen.o
                0x0000000004001e44                g_pbZpsMutex
 *fill*         0x0000000004001e45        0x3 00
 .bss.s_sDefaultServerContext
                0x0000000004001e48        0x8 e:/NXP/Sensor/WL_DoorLock/Build/zps_gen.o
 .bss.s_sZdoClientContext
                0x0000000004001e50        0x8 e:/NXP/Sensor/WL_DoorLock/Build/zps_gen.o
 .bss.s_sDeviceAnnceServerContext
                0x0000000004001e58        0x0 e:/NXP/Sensor/WL_DoorLock/Build/zps_gen.o
 .bss.s_sActiveEpServerContext
                0x0000000004001e58        0x8 e:/NXP/Sensor/WL_DoorLock/Build/zps_gen.o
 .bss.s_sNwkAddrServerContext
                0x0000000004001e60        0x8 e:/NXP/Sensor/WL_DoorLock/Build/zps_gen.o
 .bss.s_sIeeeAddrServerContext
                0x0000000004001e68        0x8 e:/NXP/Sensor/WL_DoorLock/Build/zps_gen.o
 .bss.s_sSystemServerDiscoveryServerContext
                0x0000000004001e70        0x8 e:/NXP/Sensor/WL_DoorLock/Build/zps_gen.o
 .bss.s_sNodeDescServerContext
                0x0000000004001e78        0x8 e:/NXP/Sensor/WL_DoorLock/Build/zps_gen.o
 .bss.s_sPowerDescServerContext
                0x0000000004001e80        0x8 e:/NXP/Sensor/WL_DoorLock/Build/zps_gen.o
 .bss.s_sMatchDescServerContext
                0x0000000004001e88        0x8 e:/NXP/Sensor/WL_DoorLock/Build/zps_gen.o
 .bss.s_sSimpleDescServerContext
                0x0000000004001e90        0x8 e:/NXP/Sensor/WL_DoorLock/Build/zps_gen.o
 .bss.s_sMgmtLqiServerContext
                0x0000000004001e98        0x8 e:/NXP/Sensor/WL_DoorLock/Build/zps_gen.o
 .bss.s_sMgmtLeaveServerContext
                0x0000000004001ea0       0x28 e:/NXP/Sensor/WL_DoorLock/Build/zps_gen.o
 .bss.s_sMgmtNWKUpdateServerContext
                0x0000000004001ec8       0x40 e:/NXP/Sensor/WL_DoorLock/Build/zps_gen.o
 .bss.s_sBindUnbindServerContext
                0x0000000004001f08       0x30 e:/NXP/Sensor/WL_DoorLock/Build/zps_gen.o
 .bss.s_sBindRequestServerContext
                0x0000000004001f38       0x40 e:/NXP/Sensor/WL_DoorLock/Build/zps_gen.o
 .bss.s_sBindRequestServerAcksDcfmContext
                0x0000000004001f78       0x28 e:/NXP/Sensor/WL_DoorLock/Build/zps_gen.o
 .bss.s_sMgmtBindServerContext
                0x0000000004001fa0        0x8 e:/NXP/Sensor/WL_DoorLock/Build/zps_gen.o
 .bss.s_sNwkContext
                0x0000000004001fa8      0x590 e:/NXP/Sensor/WL_DoorLock/Build/zps_gen.o
 .bss.s_asRequestKeyRequests
                0x0000000004002538       0x40 e:/NXP/Sensor/WL_DoorLock/Build/zps_gen.o
 .bss.s_asApsSyncMsgPool
                0x0000000004002578      0x140 e:/NXP/Sensor/WL_DoorLock/Build/zps_gen.o
 .bss.s_asApsDcfmRecordPool
                0x00000000040026b8       0x40 e:/NXP/Sensor/WL_DoorLock/Build/zps_gen.o
 .bss.s_asNwkNtDisc
                0x00000000040026f8      0x180 e:/NXP/Sensor/WL_DoorLock/Build/zps_gen.o
 .bss.s_asNwkNtActv
                0x0000000004002878       0x10 e:/NXP/Sensor/WL_DoorLock/Build/zps_gen.o
 .bss.s_asNwkRtDisc
                0x0000000004002888       0x28 e:/NXP/Sensor/WL_DoorLock/Build/zps_gen.o
 .bss.s_asNwkRt
                0x00000000040028b0        0xc e:/NXP/Sensor/WL_DoorLock/Build/zps_gen.o
 .bss.s_asNwkBtt
                0x00000000040028bc       0x10 e:/NXP/Sensor/WL_DoorLock/Build/zps_gen.o
 .bss.s_asNwkRct
                0x00000000040028cc       0x40 e:/NXP/Sensor/WL_DoorLock/Build/zps_gen.o
 *fill*         0x000000000400290c        0x4 00
 .bss.s_asNwkSecMatSet
                0x0000000004002910       0x40 e:/NXP/Sensor/WL_DoorLock/Build/zps_gen.o
 .bss.s_au16NwkAddrMapNwk
                0x0000000004002950       0x28 e:/NXP/Sensor/WL_DoorLock/Build/zps_gen.o
 .bss.s_au16NwkAddrMapLookup
                0x0000000004002978       0x28 e:/NXP/Sensor/WL_DoorLock/Build/zps_gen.o
 .bss.s_asNwkInFCSet
                0x00000000040029a0        0x4 e:/NXP/Sensor/WL_DoorLock/Build/zps_gen.o
 *fill*         0x00000000040029a4        0x4 00
 .bss.s_au64NwkAddrMapExt
                0x00000000040029a8      0x140 e:/NXP/Sensor/WL_DoorLock/Build/zps_gen.o
 .bss.s_au32ZedTimeoutCount
                0x0000000004002ae8        0x4 e:/NXP/Sensor/WL_DoorLock/Build/zps_gen.o
 .bss.s_au8KeepAliveFlags
                0x0000000004002aec        0x1 e:/NXP/Sensor/WL_DoorLock/Build/zps_gen.o
 *fill*         0x0000000004002aed        0x3 00
 .bss.au32IncomingFrameCounter
                0x0000000004002af0        0xc e:/NXP/Sensor/WL_DoorLock/Build/zps_gen.o
 .bss.s_au8Endpoint0InputClusterDiscFlags
                0x0000000004002afc        0xb e:/NXP/Sensor/WL_DoorLock/Build/zps_gen.o
 .bss.s_au8Endpoint0OutputClusterDiscFlags
                0x0000000004002b07        0xb e:/NXP/Sensor/WL_DoorLock/Build/zps_gen.o
 .bss.s_au16ApsDuplicateTableAddrs
                0x0000000004002b12        0x6 e:/NXP/Sensor/WL_DoorLock/Build/zps_gen.o
 .bss.s_au32ApsDuplicateTableHash
                0x0000000004002b18        0xc e:/NXP/Sensor/WL_DoorLock/Build/zps_gen.o
 .bss.s_au8ApsDuplicateTableSeqCnts
                0x0000000004002b24        0x3 e:/NXP/Sensor/WL_DoorLock/Build/zps_gen.o
 *fill*         0x0000000004002b27        0x1 00
 .bss.s_bindingTableStorage
                0x0000000004002b28      0x100 e:/NXP/Sensor/WL_DoorLock/Build/zps_gen.o
 .bss.s_sApsmeCmdContainer_4
                0x0000000004002c28       0x38 e:/NXP/Sensor/WL_DoorLock/Build/zps_gen.o
 .bss           0x0000000004002c60     0x1390 C:\Users\ADMINI~1\AppData\Local\Temp\ccuL4uDM.ltrans0.ltrans.o
                0x0000000004002c60                s_psPreSleepCallbacks.106525
                0x0000000004002c64                u8AhiUart.176962
                0x0000000004002c68                APP_msgBdbEvents
                0x0000000004002c80                u8TimerOtaStart
                0x0000000004002c81                u8TimerRemoteUnlockPemit
                0x0000000004002c82                u8TimerWakeUpTimeOut
                0x0000000004002c83                u8TimerSerialEvent
                0x0000000004002c84                u8TimerLeaveInd
                0x0000000004002c85                u8TimerSerialTimeout
                0x0000000004002c86                u8TimerWriteSerial
                0x0000000004002c87                u8TimerSerialDioSet
                0x0000000004002c88                u8TimerStartJoinNWK
                0x0000000004002c89                u8TimerButtonScan
                0x0000000004002c8a                u8TimerPoll
                0x0000000004002c8b                u8TimerMinWake
                0x0000000004002c8c                psNextWake.106521
                0x0000000004002c90                s_bWakeTimerActive.106522
                0x0000000004002c94                u32CalibrationValue.106520
                0x0000000004002c98                s_ePowerMode.106523
                0x0000000004002c9a                gu16NumberOfSegments.199908
                0x0000000004002c9c                psPDM_Common
                0x0000000004002ca0                pfExtendedStatusCallBack.181111
                0x0000000004002ca4                sZpsIntStore
                0x0000000004002ca8                u8RunningTimerType.13462
                0x0000000004002cb0                sSensor
                0x0000000004003568                App_PollRateCnt
                0x0000000004003569                u8TimerBdbRejoin
                0x000000000400356a                u8RejoinCycles
                0x000000000400356c                HeartBeatCount
                0x000000000400356e                RxSerial.9231
                0x0000000004003590                tsSerialBuffer.12203
                0x0000000004003618                RxSerialMsg
                0x0000000004003638                APP_msgSerialRx
                0x0000000004003650                sBDB
                0x00000000040036a8                sDeviceDesc
                0x00000000040036ac                bBDBJoinFailed
                0x00000000040036b0                APP_msgAppEvents
                0x00000000040036c8                ZTIMER_sCommon.99398
                0x00000000040036d0                u8TimerTick
                0x00000000040036d2                s_u16ActivityCounter
                0x00000000040036d4                pwrm_psWakeupCallbacks
 .bss           0x0000000004003ff0       0x50 C:\Users\ADMINI~1\AppData\Local\Temp\ccuL4uDM.ltrans1.ltrans.o
 .bss.initinboot
                0x0000000004004040        0x1 C:\Users\ADMINI~1\AppData\Local\Temp\ccuL4uDM.ltrans1.ltrans.o
 *fill*         0x0000000004004041        0x3 00
 .bss           0x0000000004004044       0x4c C:\Users\ADMINI~1\AppData\Local\Temp\ccuL4uDM.ltrans2.ltrans.o
                0x0000000004004044                u8ApduCount.106866
 .bss           0x0000000004004090       0x40 C:\Users\ADMINI~1\AppData\Local\Temp\ccuL4uDM.ltrans3.ltrans.o
 .bss           0x00000000040040d0       0x50 C:\Users\ADMINI~1\AppData\Local\Temp\ccuL4uDM.ltrans4.ltrans.o
                0x00000000040040d0                u8UARTWriteCnt.9237
                0x00000000040040d1                TxSerialMsg.9229
                0x00000000040040f1                TxSerial.9232
                0x0000000004004111                gbTimeOutFlag.198951
 .bss           0x0000000004004120       0x3c C:\Users\ADMINI~1\AppData\Local\Temp\ccuL4uDM.ltrans5.ltrans.o
                0x0000000004004120                u8AppRemotePinCode.5491
                0x000000000400412a                bAppRemoteUnlockPemit.5492
 .bss           0x000000000400415c        0x8 C:\Users\ADMINI~1\AppData\Local\Temp\ccuL4uDM.ltrans6.ltrans.o
                0x000000000400415c                sStoredMacData.195952
 .bss           0x0000000004004164       0x3c C:\Users\ADMINI~1\AppData\Local\Temp\ccuL4uDM.ltrans7.ltrans.o
                0x0000000004004164                a16NwkPdmRecordSizes
                0x0000000004004170                apvAplPdmRecordsAddress
                0x0000000004004184                au16AplPdmRecordsSize
 .bss           0x00000000040041a0       0x24 C:\Users\ADMINI~1\AppData\Local\Temp\ccuL4uDM.ltrans9.ltrans.o
                0x00000000040041a0                u32PollTime.11862
                0x00000000040041a4                sScanAttemptTimer
                0x00000000040041c0                sMiniMacPhyPib
 *fill*         0x00000000040041c4        0x4 00
 .bss           0x00000000040041c8       0xb0 C:\Users\ADMINI~1\AppData\Local\Temp\ccuL4uDM.ltrans10.ltrans.o
                0x00000000040041c8                psTimerServerList
                0x00000000040041cc                aprTimerCallback
                0x00000000040041ec                au32TimerCounter
                0x000000000400420c                sMiniMacInternal
 .bss           0x0000000004004278        0xc C:\Users\ADMINI~1\AppData\Local\Temp\ccuL4uDM.ltrans11.ltrans.o
                0x0000000004004278                u8ScanBeaconsSeen.106292
                0x000000000400427c                sThisDeviceMacAddr
 *fill*         0x0000000004004284        0x4 00
 .bss           0x0000000004004288       0x10 C:\Users\ADMINI~1\AppData\Local\Temp\ccuL4uDM.ltrans12.ltrans.o
 .bss           0x0000000004004298       0x18 C:\Users\ADMINI~1\AppData\Local\Temp\ccuL4uDM.ltrans15.ltrans.o
                0x0000000004004298                vFlushFn.176907
                0x000000000400429c                vPutchFn.176902
                0x00000000040042a0                bAHI_ExtendedTemperatureOperation
                0x00000000040042a4                g_tSpiConfiguration
                0x00000000040042a8                sMiniMacIntStore.106239
                0x00000000040042ac                bIgnoreBroadcast
 .bss.initinboot
                0x00000000040042b0        0x1 C:\Users\ADMINI~1\AppData\Local\Temp\ccuL4uDM.ltrans15.ltrans.o
 .bss           0x00000000040042b1        0x1 C:\Users\ADMINI~1\AppData\Local\Temp\ccuL4uDM.ltrans16.ltrans.o
 *fill*         0x00000000040042b2        0x6 00
 .bss           0x00000000040042b8      0x510 C:\Users\ADMINI~1\AppData\Local\Temp\ccuL4uDM.ltrans17.ltrans.o
                0x00000000040042b8                s_u32x.174617
                0x00000000040042bc                s_prExpireFn.200135
                0x00000000040042c0                psShadowRxBuffer
                0x00000000040042c4                pvRxStore
                0x00000000040042c8                pvTxStore
                0x00000000040042cc                gMAC_u8MaxBuffers
                0x00000000040042d0                g_pvAplHandle
                0x00000000040042d4                s_sDcfmIndMgr.106256
                0x00000000040042dc                prAppMcpsGetBuffer
                0x00000000040042e0                prAppMlmeGetBuffer
                0x00000000040042e4                prAppMcpsCallback
                0x00000000040042e8                prAppMlmeCallback
                0x00000000040042ec                s_pvAplHandle.105519
                0x00000000040042f0                s_prMcpsCallBack.105517
                0x00000000040042f4                s_prMlmeCallBack.105518
                0x00000000040042f8                zps_psNwk
                0x00000000040042fc                u8MiniMac_RunTimeOptions
                0x0000000004004300                psFreeMsgListHead
                0x0000000004004304                psActiveMsgListHead
                0x0000000004004308                sNvmDefsStruct
                0x0000000004004320                bWaitUgradeTime.10302
                0x0000000004004324                u32OTARetry.10309
                0x0000000004004328                sOTA_PersistedData
                0x00000000040043d0                psZCL_Common
                0x00000000040043d8                asSavedReports.2643
                0x0000000004004418                eInitState
                0x0000000004004419                u8TimerBdbFb
                0x000000000400441a                u8TimerBdbNs
                0x000000000400441b                eOTA_State.10303
                0x000000000400441c                prvZdoLeaveActionDecider
                0x0000000004004420                apfTimerAppCallback.199164
                0x0000000004004434                au16TimerSettings.199113
                0x0000000004004440                sZllState
 .bss           0x00000000040047c8        0xc C:\Users\ADMINI~1\AppData\Local\Temp\ccuL4uDM.ltrans18.ltrans.o
                0x00000000040047c8                APP_bPersistantPolling
                0x00000000040047cc                psBeaconFilter
 .bss           0x00000000040047d4        0x4 C:\Users\ADMINI~1\AppData\Local\Temp\ccuL4uDM.ltrans19.ltrans.o
 .bss           0x00000000040047d8        0x8 C:\Users\ADMINI~1\AppData\Local\Temp\ccuL4uDM.ltrans20.ltrans.o
                0x00000000040047d8                bCheckChild
                0x00000000040047dc                bDefaultServerIgnoreHandleMgmtUpdate
 .bss           0x00000000040047e0        0x4 C:\Users\ADMINI~1\AppData\Local\Temp\ccuL4uDM.ltrans21.ltrans.o
                0x00000000040047e0                psAplDefaultZLLAPSLinkKey
 *fill*         0x00000000040047e4        0x4 00
 .bss           0x00000000040047e8       0x90 C:\Users\ADMINI~1\AppData\Local\Temp\ccuL4uDM.ltrans22.ltrans.o
                0x00000000040047e8                psNwkDescriptors.119705
                0x00000000040047ec                g_u8Networks.119706
                0x00000000040047ed                u8ScanChannel
                0x00000000040047f0                u32ScanChannels
                0x00000000040047f4                bDoPrimaryScan
                0x00000000040047f8                sBeaconFilter
                0x0000000004004804                eNS_State
                0x0000000004004808                sFindAndBind.104876
 .bss           0x0000000004004878       0x14 C:\Users\ADMINI~1\AppData\Local\Temp\ccuL4uDM.ltrans23.ltrans.o
                0x0000000004004878                u8WakeUpFlg.13380
                0x000000000400487c                u8JoinNWKCycle
                0x000000000400487d                bZpsMyLastJoinWasRejoin.119708
 .bss           0x000000000400488c        0x4 C:\Users\ADMINI~1\AppData\Local\Temp\ccuL4uDM.ltrans24.ltrans.o
 .bss           0x0000000004004890       0x88 C:\Users\ADMINI~1\AppData\Local\Temp\ccuL4uDM.ltrans25.ltrans.o
                0x0000000004004890                sDstAddr
 .bss           0x0000000004004918       0x3c C:\Users\ADMINI~1\AppData\Local\Temp\ccuL4uDM.ltrans27.ltrans.o
                0x0000000004004918                bTimerRegistered.10085.22498
                0x000000000400491c                u32BlinkTickTime.15084
                0x0000000004004920                u32TimeOut.10301
 .bss           0x0000000004004954       0x44 C:\Users\ADMINI~1\AppData\Local\Temp\ccuL4uDM.ltrans28.ltrans.o
                0x0000000004004954                pwrm_CPUContext
                0x0000000004004978                u8MaxNpdu.106769
                0x0000000004004979                u8Count.106768
                0x000000000400497c                s_psNPduPoolEnd.106766
                0x0000000004004980                s_psNPduPoolStart.106765
                0x0000000004004984                s_psFreeListHead.106767
                0x0000000004004988                s_asAPduPool.106865
                0x000000000400498c                s_psVsMcpsDcfmInd.128919
                0x0000000004004990                s_psMacDcfmInd.128918
 .bss           0x0000000004004998       0x9c C:\Users\ADMINI~1\AppData\Local\Temp\ccuL4uDM.ltrans29.ltrans.o
                0x0000000004004998                sMiniMacPib
 .bss           0x0000000004004a34        0x4 C:\Users\ADMINI~1\AppData\Local\Temp\ccuL4uDM.ltrans30.ltrans.o
                0x0000000004004a34                u32NumberOfZCLTicksSinceLastReport.14605
 .bss           0x0000000004004a38        0xc C:\Users\ADMINI~1\AppData\Local\Temp\ccuL4uDM.ltrans31.ltrans.o
                0x0000000004004a38                bDebouncing.8633
                0x0000000004004a3c                u32DioInterrupts.8629
                0x0000000004004a40                eRxState.9240
 .bss.dontinitinboot
                0x0000000004004a44       0x40 e:/NXP/bstudio_nxp/sdk/JN-SW-4170/Components/Library\libBoot_JN516x.a(ExceptionHandler.o)
                0x0000000004004a44                isr_handlers
 *(.bss.*)
 *(.scommon*)
 *(.scommon.*)
 *(COMMON)
 COMMON         0x0000000004004a84       0x48 e:/NXP/Sensor/WL_DoorLock/Build/zps_gen.o
                0x0000000004004a84                zps_TimeEvents
                0x0000000004004a9c                zps_msgMlmeDcfmInd
                0x0000000004004ab4                zps_msgMcpsDcfmInd
                0x0000000004004acc                . = ALIGN (0x4)
                0x0000000004004acc                _bss_end = ABSOLUTE (.)

.heap           0x0000000004004acc      0x7d0 load address 0x00000000000a75d0
                0x0000000004004acc                _heap_start = ABSOLUTE (.)
                0x000000000400529c                . = (. + __minimum_heap_size)
 *fill*         0x0000000004004acc      0x7d0 00

.stack          0x0000000004006890     0x1770 load address 0x00000000000a9394
                0x0000000004006890                _heap_end = ABSOLUTE (.)
                0x0000000004006890                _stack_low_water_mark = ABSOLUTE (.)
                0x0000000004008000                . = (. + __stack_size)
 *fill*         0x0000000004006890     0x1770 00

.test           0x00000000000a3120        0x1
                0x00000000000a3120        0x1 BYTE 0xff
                0x00000000000a2b50                _flash_data_start = LOADADDR (.data)
                0x00000000000005d0                _ram_data_len = (((_ram_data_end - _ram_data_start) + 0x3) & 0xfffffffffffffffc)
                0x00000000000044b0                _bss_len = (((_bss_end - _bss_start) + 0x3) & 0xfffffffffffffffc)
                0x0000000000023120                _image_len = ((((_flash_end - _flash_start) + _ram_data_len) + 0x3) & 0xfffffffffffffffc)
                0x0000000004008000                _ram_top = (ABSOLUTE (ORIGIN (ram)) + 0x7fb4)
                0x0000000004008000                ram_top = (ABSOLUTE (ORIGIN (ram)) + 0x7fb4)
                0x0000000001001580                _app_ram_start = 0x1001580
                0x00000000040004f8                PROVIDE (_heap_location, u32HeapStart)
                0x00000000040004f8                PROVIDE (heap_location, u32HeapStart)
OUTPUT(e:/NXP/Sensor/WL_DoorLock/Build/WL_DoorLock_JN5169_DR1199.elf elf32-ba)

.comment        0x0000000000000000       0x11
 .comment       0x0000000000000000       0x11 e:/NXP/Sensor/WL_DoorLock/Build/pdum_gen.o
                                         0x12 (size before relaxing)
 .comment       0x0000000000000000       0x12 e:/NXP/Sensor/WL_DoorLock/Build/zps_gen.o
 .comment       0x0000000000000000       0x12 C:\Users\ADMINI~1\AppData\Local\Temp\ccuL4uDM.ltrans0.ltrans.o
 .comment       0x0000000000000000       0x12 C:\Users\ADMINI~1\AppData\Local\Temp\ccuL4uDM.ltrans1.ltrans.o
 .comment       0x0000000000000000       0x12 C:\Users\ADMINI~1\AppData\Local\Temp\ccuL4uDM.ltrans2.ltrans.o
 .comment       0x0000000000000000       0x12 C:\Users\ADMINI~1\AppData\Local\Temp\ccuL4uDM.ltrans3.ltrans.o
 .comment       0x0000000000000000       0x12 C:\Users\ADMINI~1\AppData\Local\Temp\ccuL4uDM.ltrans4.ltrans.o
 .comment       0x0000000000000000       0x12 C:\Users\ADMINI~1\AppData\Local\Temp\ccuL4uDM.ltrans5.ltrans.o
 .comment       0x0000000000000000       0x12 C:\Users\ADMINI~1\AppData\Local\Temp\ccuL4uDM.ltrans6.ltrans.o
 .comment       0x0000000000000000       0x12 C:\Users\ADMINI~1\AppData\Local\Temp\ccuL4uDM.ltrans7.ltrans.o
 .comment       0x0000000000000000       0x12 C:\Users\ADMINI~1\AppData\Local\Temp\ccuL4uDM.ltrans8.ltrans.o
 .comment       0x0000000000000000       0x12 C:\Users\ADMINI~1\AppData\Local\Temp\ccuL4uDM.ltrans9.ltrans.o
 .comment       0x0000000000000000       0x12 C:\Users\ADMINI~1\AppData\Local\Temp\ccuL4uDM.ltrans10.ltrans.o
 .comment       0x0000000000000000       0x12 C:\Users\ADMINI~1\AppData\Local\Temp\ccuL4uDM.ltrans11.ltrans.o
 .comment       0x0000000000000000       0x12 C:\Users\ADMINI~1\AppData\Local\Temp\ccuL4uDM.ltrans12.ltrans.o
 .comment       0x0000000000000000       0x12 C:\Users\ADMINI~1\AppData\Local\Temp\ccuL4uDM.ltrans13.ltrans.o
 .comment       0x0000000000000000       0x12 C:\Users\ADMINI~1\AppData\Local\Temp\ccuL4uDM.ltrans14.ltrans.o
 .comment       0x0000000000000000       0x12 C:\Users\ADMINI~1\AppData\Local\Temp\ccuL4uDM.ltrans15.ltrans.o
 .comment       0x0000000000000000       0x12 C:\Users\ADMINI~1\AppData\Local\Temp\ccuL4uDM.ltrans16.ltrans.o
 .comment       0x0000000000000000       0x12 C:\Users\ADMINI~1\AppData\Local\Temp\ccuL4uDM.ltrans17.ltrans.o
 .comment       0x0000000000000000       0x12 C:\Users\ADMINI~1\AppData\Local\Temp\ccuL4uDM.ltrans18.ltrans.o
 .comment       0x0000000000000000       0x12 C:\Users\ADMINI~1\AppData\Local\Temp\ccuL4uDM.ltrans19.ltrans.o
 .comment       0x0000000000000000       0x12 C:\Users\ADMINI~1\AppData\Local\Temp\ccuL4uDM.ltrans20.ltrans.o
 .comment       0x0000000000000000       0x12 C:\Users\ADMINI~1\AppData\Local\Temp\ccuL4uDM.ltrans21.ltrans.o
 .comment       0x0000000000000000       0x12 C:\Users\ADMINI~1\AppData\Local\Temp\ccuL4uDM.ltrans22.ltrans.o
 .comment       0x0000000000000000       0x12 C:\Users\ADMINI~1\AppData\Local\Temp\ccuL4uDM.ltrans23.ltrans.o
 .comment       0x0000000000000000       0x12 C:\Users\ADMINI~1\AppData\Local\Temp\ccuL4uDM.ltrans24.ltrans.o
 .comment       0x0000000000000000       0x12 C:\Users\ADMINI~1\AppData\Local\Temp\ccuL4uDM.ltrans25.ltrans.o
 .comment       0x0000000000000000       0x12 C:\Users\ADMINI~1\AppData\Local\Temp\ccuL4uDM.ltrans26.ltrans.o
 .comment       0x0000000000000000       0x12 C:\Users\ADMINI~1\AppData\Local\Temp\ccuL4uDM.ltrans27.ltrans.o
 .comment       0x0000000000000000       0x12 C:\Users\ADMINI~1\AppData\Local\Temp\ccuL4uDM.ltrans28.ltrans.o
 .comment       0x0000000000000000       0x12 C:\Users\ADMINI~1\AppData\Local\Temp\ccuL4uDM.ltrans29.ltrans.o
 .comment       0x0000000000000000       0x12 C:\Users\ADMINI~1\AppData\Local\Temp\ccuL4uDM.ltrans30.ltrans.o
 .comment       0x0000000000000000       0x12 C:\Users\ADMINI~1\AppData\Local\Temp\ccuL4uDM.ltrans31.ltrans.o
 .comment       0x0000000000000000       0x12 e:/nxp/bstudio_nxp/sdk/tools/ba-elf-ba2-r36379/bin/../lib/gcc/ba-elf/4.7.4/../../../../ba-elf/lib/mcpu_jn51xx_sizeopt\libc.a(lib_a-memcmp.o)
 .comment       0x0000000000000000       0x12 e:/nxp/bstudio_nxp/sdk/tools/ba-elf-ba2-r36379/bin/../lib/gcc/ba-elf/4.7.4/../../../../ba-elf/lib/mcpu_jn51xx_sizeopt\libc.a(lib_a-memcpy.o)
 .comment       0x0000000000000000       0x12 e:/nxp/bstudio_nxp/sdk/tools/ba-elf-ba2-r36379/bin/../lib/gcc/ba-elf/4.7.4/../../../../ba-elf/lib/mcpu_jn51xx_sizeopt\libc.a(lib_a-memset.o)
 .comment       0x0000000000000000       0x12 e:/nxp/bstudio_nxp/sdk/tools/ba-elf-ba2-r36379/bin/../lib/gcc/ba-elf/4.7.4/mcpu_jn51xx_sizeopt\libgcc.a(_muldi3.o)
 .comment       0x0000000000000000       0x12 e:/nxp/bstudio_nxp/sdk/tools/ba-elf-ba2-r36379/bin/../lib/gcc/ba-elf/4.7.4/mcpu_jn51xx_sizeopt\libgcc.a(_udivdi3.o)
 .comment       0x0000000000000000       0x12 e:/NXP/bstudio_nxp/sdk/JN-SW-4170/Components/Library\libMicroSpecific_JN516x.a(MicroSyscall_ba.o)

.debug_info     0x0000000000000000      0xe63
 .debug_info    0x0000000000000000       0xf3 e:/nxp/bstudio_nxp/sdk/tools/ba-elf-ba2-r36379/bin/../lib/gcc/ba-elf/4.7.4/../../../../ba-elf/lib/mcpu_jn51xx_sizeopt\libc.a(lib_a-memcmp.o)
 .debug_info    0x00000000000000f3      0x106 e:/nxp/bstudio_nxp/sdk/tools/ba-elf-ba2-r36379/bin/../lib/gcc/ba-elf/4.7.4/../../../../ba-elf/lib/mcpu_jn51xx_sizeopt\libc.a(lib_a-memcpy.o)
 .debug_info    0x00000000000001f9       0xd7 e:/nxp/bstudio_nxp/sdk/tools/ba-elf-ba2-r36379/bin/../lib/gcc/ba-elf/4.7.4/../../../../ba-elf/lib/mcpu_jn51xx_sizeopt\libc.a(lib_a-memset.o)
 .debug_info    0x00000000000002d0       0xb4 e:/nxp/bstudio_nxp/sdk/tools/ba-elf-ba2-r36379/bin/../lib/gcc/ba-elf/4.7.4/mcpu_jn51xx_sizeopt\libgcc.a(__udivsi3.o)
 .debug_info    0x0000000000000384       0xb4 e:/nxp/bstudio_nxp/sdk/tools/ba-elf-ba2-r36379/bin/../lib/gcc/ba-elf/4.7.4/mcpu_jn51xx_sizeopt\libgcc.a(__divsi3.o)
 .debug_info    0x0000000000000438       0xb4 e:/nxp/bstudio_nxp/sdk/tools/ba-elf-ba2-r36379/bin/../lib/gcc/ba-elf/4.7.4/mcpu_jn51xx_sizeopt\libgcc.a(__umodsi3.o)
 .debug_info    0x00000000000004ec       0xb4 e:/nxp/bstudio_nxp/sdk/tools/ba-elf-ba2-r36379/bin/../lib/gcc/ba-elf/4.7.4/mcpu_jn51xx_sizeopt\libgcc.a(__modsi3.o)
 .debug_info    0x00000000000005a0      0x1f9 e:/nxp/bstudio_nxp/sdk/tools/ba-elf-ba2-r36379/bin/../lib/gcc/ba-elf/4.7.4/mcpu_jn51xx_sizeopt\libgcc.a(_muldi3.o)
 .debug_info    0x0000000000000799      0x648 e:/nxp/bstudio_nxp/sdk/tools/ba-elf-ba2-r36379/bin/../lib/gcc/ba-elf/4.7.4/mcpu_jn51xx_sizeopt\libgcc.a(_udivdi3.o)
 .debug_info    0x0000000000000de1       0x82 e:/NXP/bstudio_nxp/sdk/JN-SW-4170/Components/Library\libBoot_JN516x.a(ExceptionHandler.o)

.debug_abbrev   0x0000000000000000      0x461
 .debug_abbrev  0x0000000000000000       0x8e e:/nxp/bstudio_nxp/sdk/tools/ba-elf-ba2-r36379/bin/../lib/gcc/ba-elf/4.7.4/../../../../ba-elf/lib/mcpu_jn51xx_sizeopt\libc.a(lib_a-memcmp.o)
 .debug_abbrev  0x000000000000008e       0xa4 e:/nxp/bstudio_nxp/sdk/tools/ba-elf-ba2-r36379/bin/../lib/gcc/ba-elf/4.7.4/../../../../ba-elf/lib/mcpu_jn51xx_sizeopt\libc.a(lib_a-memcpy.o)
 .debug_abbrev  0x0000000000000132       0x8e e:/nxp/bstudio_nxp/sdk/tools/ba-elf-ba2-r36379/bin/../lib/gcc/ba-elf/4.7.4/../../../../ba-elf/lib/mcpu_jn51xx_sizeopt\libc.a(lib_a-memset.o)
 .debug_abbrev  0x00000000000001c0       0x14 e:/nxp/bstudio_nxp/sdk/tools/ba-elf-ba2-r36379/bin/../lib/gcc/ba-elf/4.7.4/mcpu_jn51xx_sizeopt\libgcc.a(__udivsi3.o)
 .debug_abbrev  0x00000000000001d4       0x14 e:/nxp/bstudio_nxp/sdk/tools/ba-elf-ba2-r36379/bin/../lib/gcc/ba-elf/4.7.4/mcpu_jn51xx_sizeopt\libgcc.a(__divsi3.o)
 .debug_abbrev  0x00000000000001e8       0x14 e:/nxp/bstudio_nxp/sdk/tools/ba-elf-ba2-r36379/bin/../lib/gcc/ba-elf/4.7.4/mcpu_jn51xx_sizeopt\libgcc.a(__umodsi3.o)
 .debug_abbrev  0x00000000000001fc       0x14 e:/nxp/bstudio_nxp/sdk/tools/ba-elf-ba2-r36379/bin/../lib/gcc/ba-elf/4.7.4/mcpu_jn51xx_sizeopt\libgcc.a(__modsi3.o)
 .debug_abbrev  0x0000000000000210       0xe0 e:/nxp/bstudio_nxp/sdk/tools/ba-elf-ba2-r36379/bin/../lib/gcc/ba-elf/4.7.4/mcpu_jn51xx_sizeopt\libgcc.a(_muldi3.o)
 .debug_abbrev  0x00000000000002f0      0x15d e:/nxp/bstudio_nxp/sdk/tools/ba-elf-ba2-r36379/bin/../lib/gcc/ba-elf/4.7.4/mcpu_jn51xx_sizeopt\libgcc.a(_udivdi3.o)
 .debug_abbrev  0x000000000000044d       0x14 e:/NXP/bstudio_nxp/sdk/JN-SW-4170/Components/Library\libBoot_JN516x.a(ExceptionHandler.o)

.debug_loc      0x0000000000000000      0xd86
 .debug_loc     0x0000000000000000       0x73 e:/nxp/bstudio_nxp/sdk/tools/ba-elf-ba2-r36379/bin/../lib/gcc/ba-elf/4.7.4/../../../../ba-elf/lib/mcpu_jn51xx_sizeopt\libc.a(lib_a-memcmp.o)
 .debug_loc     0x0000000000000073       0x39 e:/nxp/bstudio_nxp/sdk/tools/ba-elf-ba2-r36379/bin/../lib/gcc/ba-elf/4.7.4/../../../../ba-elf/lib/mcpu_jn51xx_sizeopt\libc.a(lib_a-memcpy.o)
 .debug_loc     0x00000000000000ac       0x3f e:/nxp/bstudio_nxp/sdk/tools/ba-elf-ba2-r36379/bin/../lib/gcc/ba-elf/4.7.4/../../../../ba-elf/lib/mcpu_jn51xx_sizeopt\libc.a(lib_a-memset.o)
 .debug_loc     0x00000000000000eb      0x220 e:/nxp/bstudio_nxp/sdk/tools/ba-elf-ba2-r36379/bin/../lib/gcc/ba-elf/4.7.4/mcpu_jn51xx_sizeopt\libgcc.a(_muldi3.o)
 .debug_loc     0x000000000000030b      0xa7b e:/nxp/bstudio_nxp/sdk/tools/ba-elf-ba2-r36379/bin/../lib/gcc/ba-elf/4.7.4/mcpu_jn51xx_sizeopt\libgcc.a(_udivdi3.o)

.debug_aranges  0x0000000000000000      0x140
 .debug_aranges
                0x0000000000000000       0x20 e:/nxp/bstudio_nxp/sdk/tools/ba-elf-ba2-r36379/bin/../lib/gcc/ba-elf/4.7.4/../../../../ba-elf/lib/mcpu_jn51xx_sizeopt\libc.a(lib_a-memcmp.o)
 .debug_aranges
                0x0000000000000020       0x20 e:/nxp/bstudio_nxp/sdk/tools/ba-elf-ba2-r36379/bin/../lib/gcc/ba-elf/4.7.4/../../../../ba-elf/lib/mcpu_jn51xx_sizeopt\libc.a(lib_a-memcpy.o)
 .debug_aranges
                0x0000000000000040       0x20 e:/nxp/bstudio_nxp/sdk/tools/ba-elf-ba2-r36379/bin/../lib/gcc/ba-elf/4.7.4/../../../../ba-elf/lib/mcpu_jn51xx_sizeopt\libc.a(lib_a-memset.o)
 .debug_aranges
                0x0000000000000060       0x20 e:/nxp/bstudio_nxp/sdk/tools/ba-elf-ba2-r36379/bin/../lib/gcc/ba-elf/4.7.4/mcpu_jn51xx_sizeopt\libgcc.a(__udivsi3.o)
 .debug_aranges
                0x0000000000000080       0x20 e:/nxp/bstudio_nxp/sdk/tools/ba-elf-ba2-r36379/bin/../lib/gcc/ba-elf/4.7.4/mcpu_jn51xx_sizeopt\libgcc.a(__divsi3.o)
 .debug_aranges
                0x00000000000000a0       0x20 e:/nxp/bstudio_nxp/sdk/tools/ba-elf-ba2-r36379/bin/../lib/gcc/ba-elf/4.7.4/mcpu_jn51xx_sizeopt\libgcc.a(__umodsi3.o)
 .debug_aranges
                0x00000000000000c0       0x20 e:/nxp/bstudio_nxp/sdk/tools/ba-elf-ba2-r36379/bin/../lib/gcc/ba-elf/4.7.4/mcpu_jn51xx_sizeopt\libgcc.a(__modsi3.o)
 .debug_aranges
                0x00000000000000e0       0x20 e:/nxp/bstudio_nxp/sdk/tools/ba-elf-ba2-r36379/bin/../lib/gcc/ba-elf/4.7.4/mcpu_jn51xx_sizeopt\libgcc.a(_muldi3.o)
 .debug_aranges
                0x0000000000000100       0x20 e:/nxp/bstudio_nxp/sdk/tools/ba-elf-ba2-r36379/bin/../lib/gcc/ba-elf/4.7.4/mcpu_jn51xx_sizeopt\libgcc.a(_udivdi3.o)
 .debug_aranges
                0x0000000000000120       0x20 e:/NXP/bstudio_nxp/sdk/JN-SW-4170/Components/Library\libBoot_JN516x.a(ExceptionHandler.o)

.debug_line     0x0000000000000000     0x1147
 .debug_line    0x0000000000000000      0x154 e:/nxp/bstudio_nxp/sdk/tools/ba-elf-ba2-r36379/bin/../lib/gcc/ba-elf/4.7.4/../../../../ba-elf/lib/mcpu_jn51xx_sizeopt\libc.a(lib_a-memcmp.o)
 .debug_line    0x0000000000000154      0x148 e:/nxp/bstudio_nxp/sdk/tools/ba-elf-ba2-r36379/bin/../lib/gcc/ba-elf/4.7.4/../../../../ba-elf/lib/mcpu_jn51xx_sizeopt\libc.a(lib_a-memcpy.o)
 .debug_line    0x000000000000029c      0x13e e:/nxp/bstudio_nxp/sdk/tools/ba-elf-ba2-r36379/bin/../lib/gcc/ba-elf/4.7.4/../../../../ba-elf/lib/mcpu_jn51xx_sizeopt\libc.a(lib_a-memset.o)
 .debug_line    0x00000000000003da      0x47b e:/nxp/bstudio_nxp/sdk/tools/ba-elf-ba2-r36379/bin/../lib/gcc/ba-elf/4.7.4/mcpu_jn51xx_sizeopt\libgcc.a(__udivsi3.o)
 .debug_line    0x0000000000000855       0xbb e:/nxp/bstudio_nxp/sdk/tools/ba-elf-ba2-r36379/bin/../lib/gcc/ba-elf/4.7.4/mcpu_jn51xx_sizeopt\libgcc.a(__divsi3.o)
 .debug_line    0x0000000000000910      0x3c7 e:/nxp/bstudio_nxp/sdk/tools/ba-elf-ba2-r36379/bin/../lib/gcc/ba-elf/4.7.4/mcpu_jn51xx_sizeopt\libgcc.a(__umodsi3.o)
 .debug_line    0x0000000000000cd7       0xa3 e:/nxp/bstudio_nxp/sdk/tools/ba-elf-ba2-r36379/bin/../lib/gcc/ba-elf/4.7.4/mcpu_jn51xx_sizeopt\libgcc.a(__modsi3.o)
 .debug_line    0x0000000000000d7a       0x93 e:/nxp/bstudio_nxp/sdk/tools/ba-elf-ba2-r36379/bin/../lib/gcc/ba-elf/4.7.4/mcpu_jn51xx_sizeopt\libgcc.a(_muldi3.o)
 .debug_line    0x0000000000000e0d      0x1b7 e:/nxp/bstudio_nxp/sdk/tools/ba-elf-ba2-r36379/bin/../lib/gcc/ba-elf/4.7.4/mcpu_jn51xx_sizeopt\libgcc.a(_udivdi3.o)
 .debug_line    0x0000000000000fc4      0x183 e:/NXP/bstudio_nxp/sdk/JN-SW-4170/Components/Library\libBoot_JN516x.a(ExceptionHandler.o)

.debug_str      0x0000000000000000      0x2f1
 .debug_str     0x0000000000000000      0x119 e:/nxp/bstudio_nxp/sdk/tools/ba-elf-ba2-r36379/bin/../lib/gcc/ba-elf/4.7.4/../../../../ba-elf/lib/mcpu_jn51xx_sizeopt\libc.a(lib_a-memcmp.o)
                                        0x152 (size before relaxing)
 .debug_str     0x0000000000000119       0x5d e:/nxp/bstudio_nxp/sdk/tools/ba-elf-ba2-r36379/bin/../lib/gcc/ba-elf/4.7.4/../../../../ba-elf/lib/mcpu_jn51xx_sizeopt\libc.a(lib_a-memcpy.o)
                                        0x166 (size before relaxing)
 .debug_str     0x0000000000000176       0x49 e:/nxp/bstudio_nxp/sdk/tools/ba-elf-ba2-r36379/bin/../lib/gcc/ba-elf/4.7.4/../../../../ba-elf/lib/mcpu_jn51xx_sizeopt\libc.a(lib_a-memset.o)
                                        0x152 (size before relaxing)
 .debug_str     0x00000000000001bf       0xf5 e:/nxp/bstudio_nxp/sdk/tools/ba-elf-ba2-r36379/bin/../lib/gcc/ba-elf/4.7.4/mcpu_jn51xx_sizeopt\libgcc.a(_muldi3.o)
                                        0x1a0 (size before relaxing)
 .debug_str     0x00000000000002b4       0x3d e:/nxp/bstudio_nxp/sdk/tools/ba-elf-ba2-r36379/bin/../lib/gcc/ba-elf/4.7.4/mcpu_jn51xx_sizeopt\libgcc.a(_udivdi3.o)
                                        0x1d4 (size before relaxing)

.debug_frame    0x0000000000000000       0x8c
 .debug_frame   0x0000000000000000       0x20 e:/nxp/bstudio_nxp/sdk/tools/ba-elf-ba2-r36379/bin/../lib/gcc/ba-elf/4.7.4/../../../../ba-elf/lib/mcpu_jn51xx_sizeopt\libc.a(lib_a-memcmp.o)
 .debug_frame   0x0000000000000020       0x20 e:/nxp/bstudio_nxp/sdk/tools/ba-elf-ba2-r36379/bin/../lib/gcc/ba-elf/4.7.4/../../../../ba-elf/lib/mcpu_jn51xx_sizeopt\libc.a(lib_a-memcpy.o)
 .debug_frame   0x0000000000000040       0x20 e:/nxp/bstudio_nxp/sdk/tools/ba-elf-ba2-r36379/bin/../lib/gcc/ba-elf/4.7.4/../../../../ba-elf/lib/mcpu_jn51xx_sizeopt\libc.a(lib_a-memset.o)
 .debug_frame   0x0000000000000060       0x2c e:/nxp/bstudio_nxp/sdk/tools/ba-elf-ba2-r36379/bin/../lib/gcc/ba-elf/4.7.4/mcpu_jn51xx_sizeopt\libgcc.a(_muldi3.o)

.debug_ranges   0x0000000000000000       0xd0
 .debug_ranges  0x0000000000000000       0x30 e:/nxp/bstudio_nxp/sdk/tools/ba-elf-ba2-r36379/bin/../lib/gcc/ba-elf/4.7.4/mcpu_jn51xx_sizeopt\libgcc.a(_muldi3.o)
 .debug_ranges  0x0000000000000030       0xa0 e:/nxp/bstudio_nxp/sdk/tools/ba-elf-ba2-r36379/bin/../lib/gcc/ba-elf/4.7.4/mcpu_jn51xx_sizeopt\libgcc.a(_udivdi3.o)
