///////////////////////////////////////////////////////////////////////////////
//                                                                            /
// IAR C/C++ Compiler V8.10.1.10194/W32 for 8051        12/Dec/2016  16:45:11 /
// Copyright 2004-2011 IAR Systems AB.                                        /
//                                                                            /
//    Core               =  plain                                             /
//    Code model         =  banked                                            /
//    Data model         =  large                                             /
//    Calling convention =  xdata reentrant                                   /
//    Constant location  =  data_rom                                          /
//    Dptr setup         =  1,16                                              /
//    Source file        =  D:\work space\Smart Product\SmartLightSwitch\one  /
//                          key\v1.00.0\ZStack-CC2530-2.5.1a\ZStack-CC2530-2. /
//                          5.1a\Projects\zstack\HomeAutomation\SmartSwitchLi /
//                          ght\Source\zcl_onofflight.c                       /
//    Command line       =  -f "D:\work space\Smart                           /
//                          Product\SmartLightSwitch\one                      /
//                          key\v1.00.0\ZStack-CC2530-2.5.1a\ZStack-CC2530-2. /
//                          5.1a\Projects\zstack\HomeAutomation\SmartSwitchLi /
//                          ght\CC2530DB\..\Tools\CC2530DB\f8wRouter.cfg"     /
//                          (-DCPU32MHZ -DROOT=__near_func                    /
//                          -DMAC_CFG_APP_PENDING_QUEUE=TRUE                  /
//                          -DMAC_CFG_TX_DATA_MAX=5 -DMAC_CFG_TX_MAX=8        /
//                          -DMAC_CFG_RX_MAX=5 -DRTR_NWK -DNV_RESTORE         /
//                          -DNV_INIT -DHAL_KEY=FALSE -DHAL_LED=FALSE         /
//                          -DHAL_LCD=FALSE -DHAL_ADC=FALSE                   /
//                          -DTC_LINKKEY_JOIN -DMAX_NEIGHBOR_ENTRIES=48       /
//                          -DTVSA_DATA_CNF=1 -DPACKET_FILTER_STATS           /
//                          -DNWK_LINK_STATUS_PERIOD=60) -f "D:\work          /
//                          space\Smart Product\SmartLightSwitch\one          /
//                          key\v1.00.0\ZStack-CC2530-2.5.1a\ZStack-CC2530-2. /
//                          5.1a\Projects\zstack\HomeAutomation\SmartSwitchLi /
//                          ght\CC2530DB\..\Tools\CC2530DB\f8wConfig.cfg"     /
//                          (-DZIGBEEPRO -DSECURE=1 -DZG_SECURE_DYNAMIC=0     /
//                          -DREFLECTOR -DDEFAULT_CHANLIST=0x00000800         /
//                          -DZDAPP_CONFIG_PAN_ID=0xFFFF                      /
//                          -DNWK_START_DELAY=100 -DEXTENDED_JOINING_RANDOM_M /
//                          ASK=0x007F -DBEACON_REQUEST_DELAY=5000            /
//                          -DBEACON_REQ_DELAY_MASK=0x00FF                    /
//                          -DLINK_STATUS_JITTER_MASK=0x007F                  /
//                          -DROUTE_EXPIRY_TIME=30 -DAPSC_ACK_WAIT_DURATION_P /
//                          OLLED=3000 -DNWK_INDIRECT_MSG_TIMEOUT=7           /
//                          -DMAX_RREQ_ENTRIES=8 -DAPSC_MAX_FRAME_RETRIES=3   /
//                          -DNWK_MAX_DATA_RETRIES=2                          /
//                          -DMAX_POLL_FAILURE_RETRIES=2 -DMAX_BCAST=9        /
//                          -DAPS_MAX_GROUPS=16 -DMAX_RTG_ENTRIES=40          /
//                          -DNWK_MAX_BINDING_ENTRIES=4                       /
//                          -DMAX_BINDING_CLUSTER_IDS=4                       /
//                          -DDEFAULT_KEY={0x79,0x69,0x20,0x68,0x75,0x69,     /
//                          0x20,0x79,0x75,0x6E,0x20,0x73,0x6D,0x61,0x72,     /
//                          0x74} -DMAC_MAX_FRAME_SIZE=116                    /
//                          -DZDNWKMGR_MIN_TRANSMISSIONS=20 "-DCONST=const    /
//                          __code" -DGENERIC=__generic                       /
//                          -DRFD_RCVC_ALWAYS_ON=TRUE -DPOLL_RATE=0           /
//                          -DQUEUED_POLL_RATE=0 -DRESPONSE_POLL_RATE=0       /
//                          -DREJOIN_POLL_RATE=440) -f "D:\work space\Smart   /
//                          Product\SmartLightSwitch\one                      /
//                          key\v1.00.0\ZStack-CC2530-2.5.1a\ZStack-CC2530-2. /
//                          5.1a\Projects\zstack\HomeAutomation\SmartSwitchLi /
//                          ght\CC2530DB\..\Tools\CC2530DB\f8wZCL.cfg"        /
//                          (-DZCL_READ -DZCL_WRITE -DZCL_REPORT -DZCL_BASIC  /
//                          -DZCL_IDENTIFY -DZCL_ON_OFF -DZCL_KEY_ESTABLISH   /
//                          -DZCL_KEY_ESTABLISHMENT_KEY_GENERATE_TIMEOUT=4    /
//                          -DZCL_KEY_ESTABLISHMENT_MAC_GENERATE_TIMEOUT=10   /
//                          -DZCL_KEY_ESTABLISHMENT_EKEY_GENERATE_TIMEOUT=10  /
//                          -DZCL_LOAD_CONTROL -DZCL_SIMPLE_METERING          /
//                          -DZCL_PRICING -DZCL_MESSAGE -DZCL_TUNNELING       /
//                          -DZCL_TOU) -DZCL_DEVICE_MGMT "D:\work             /
//                          space\Smart Product\SmartLightSwitch\one          /
//                          key\v1.00.0\ZStack-CC2530-2.5.1a\ZStack-CC2530-2. /
//                          5.1a\Projects\zstack\HomeAutomation\SmartSwitchLi /
//                          ght\Source\zcl_onofflight.c" -lC "D:\work         /
//                          space\Smart Product\SmartLightSwitch\one          /
//                          key\v1.00.0\ZStack-CC2530-2.5.1a\ZStack-CC2530-2. /
//                          5.1a\Projects\zstack\HomeAutomation\SmartSwitchLi /
//                          ght\CC2530DB\RouterDeviceEB\List\" -lA "D:\work   /
//                          space\Smart Product\SmartLightSwitch\one          /
//                          key\v1.00.0\ZStack-CC2530-2.5.1a\ZStack-CC2530-2. /
//                          5.1a\Projects\zstack\HomeAutomation\SmartSwitchLi /
//                          ght\CC2530DB\RouterDeviceEB\List\"                /
//                          --diag_suppress Pe001,Pa010 -o "D:\work           /
//                          space\Smart Product\SmartLightSwitch\one          /
//                          key\v1.00.0\ZStack-CC2530-2.5.1a\ZStack-CC2530-2. /
//                          5.1a\Projects\zstack\HomeAutomation\SmartSwitchLi /
//                          ght\CC2530DB\RouterDeviceEB\Obj\" -e --debug      /
//                          --core=plain --dptr=16,1 --data_model=large       /
//                          --code_model=banked --calling_convention=xdata_re /
//                          entrant --place_constants=data_rom                /
//                          --nr_virtual_regs 16 -I "D:\work space\Smart      /
//                          Product\SmartLightSwitch\one                      /
//                          key\v1.00.0\ZStack-CC2530-2.5.1a\ZStack-CC2530-2. /
//                          5.1a\Projects\zstack\HomeAutomation\SmartSwitchLi /
//                          ght\CC2530DB\" -I "D:\work space\Smart            /
//                          Product\SmartLightSwitch\one                      /
//                          key\v1.00.0\ZStack-CC2530-2.5.1a\ZStack-CC2530-2. /
//                          5.1a\Projects\zstack\HomeAutomation\SmartSwitchLi /
//                          ght\CC2530DB\..\Source\" -I "D:\work space\Smart  /
//                          Product\SmartLightSwitch\one                      /
//                          key\v1.00.0\ZStack-CC2530-2.5.1a\ZStack-CC2530-2. /
//                          5.1a\Projects\zstack\HomeAutomation\SmartSwitchLi /
//                          ght\CC2530DB\..\..\Source\" -I "D:\work           /
//                          space\Smart Product\SmartLightSwitch\one          /
//                          key\v1.00.0\ZStack-CC2530-2.5.1a\ZStack-CC2530-2. /
//                          5.1a\Projects\zstack\HomeAutomation\SmartSwitchLi /
//                          ght\CC2530DB\..\..\..\ZMain\TI2530DB\" -I         /
//                          "D:\work space\Smart Product\SmartLightSwitch\one /
//                           key\v1.00.0\ZStack-CC2530-2.5.1a\ZStack-CC2530-2 /
//                          .5.1a\Projects\zstack\HomeAutomation\SmartSwitchL /
//                          ight\CC2530DB\..\..\..\..\..\Components\hal\inclu /
//                          de\" -I "D:\work space\Smart                      /
//                          Product\SmartLightSwitch\one                      /
//                          key\v1.00.0\ZStack-CC2530-2.5.1a\ZStack-CC2530-2. /
//                          5.1a\Projects\zstack\HomeAutomation\SmartSwitchLi /
//                          ght\CC2530DB\..\..\..\..\..\Components\hal\target /
//                          \CC2530EB\" -I "D:\work space\Smart               /
//                          Product\SmartLightSwitch\one                      /
//                          key\v1.00.0\ZStack-CC2530-2.5.1a\ZStack-CC2530-2. /
//                          5.1a\Projects\zstack\HomeAutomation\SmartSwitchLi /
//                          ght\CC2530DB\..\..\..\..\..\Components\mac\includ /
//                          e\" -I "D:\work space\Smart                       /
//                          Product\SmartLightSwitch\one                      /
//                          key\v1.00.0\ZStack-CC2530-2.5.1a\ZStack-CC2530-2. /
//                          5.1a\Projects\zstack\HomeAutomation\SmartSwitchLi /
//                          ght\CC2530DB\..\..\..\..\..\Components\mac\high_l /
//                          evel\" -I "D:\work space\Smart                    /
//                          Product\SmartLightSwitch\one                      /
//                          key\v1.00.0\ZStack-CC2530-2.5.1a\ZStack-CC2530-2. /
//                          5.1a\Projects\zstack\HomeAutomation\SmartSwitchLi /
//                          ght\CC2530DB\..\..\..\..\..\Components\mac\low_le /
//                          vel\srf04\" -I "D:\work space\Smart               /
//                          Product\SmartLightSwitch\one                      /
//                          key\v1.00.0\ZStack-CC2530-2.5.1a\ZStack-CC2530-2. /
//                          5.1a\Projects\zstack\HomeAutomation\SmartSwitchLi /
//                          ght\CC2530DB\..\..\..\..\..\Components\mac\low_le /
//                          vel\srf04\single_chip\" -I "D:\work space\Smart   /
//                          Product\SmartLightSwitch\one                      /
//                          key\v1.00.0\ZStack-CC2530-2.5.1a\ZStack-CC2530-2. /
//                          5.1a\Projects\zstack\HomeAutomation\SmartSwitchLi /
//                          ght\CC2530DB\..\..\..\..\..\Components\mt\" -I    /
//                          "D:\work space\Smart Product\SmartLightSwitch\one /
//                           key\v1.00.0\ZStack-CC2530-2.5.1a\ZStack-CC2530-2 /
//                          .5.1a\Projects\zstack\HomeAutomation\SmartSwitchL /
//                          ight\CC2530DB\..\..\..\..\..\Components\osal\incl /
//                          ude\" -I "D:\work space\Smart                     /
//                          Product\SmartLightSwitch\one                      /
//                          key\v1.00.0\ZStack-CC2530-2.5.1a\ZStack-CC2530-2. /
//                          5.1a\Projects\zstack\HomeAutomation\SmartSwitchLi /
//                          ght\CC2530DB\..\..\..\..\..\Components\services\s /
//                          addr\" -I "D:\work space\Smart                    /
//                          Product\SmartLightSwitch\one                      /
//                          key\v1.00.0\ZStack-CC2530-2.5.1a\ZStack-CC2530-2. /
//                          5.1a\Projects\zstack\HomeAutomation\SmartSwitchLi /
//                          ght\CC2530DB\..\..\..\..\..\Components\services\s /
//                          data\" -I "D:\work space\Smart                    /
//                          Product\SmartLightSwitch\one                      /
//                          key\v1.00.0\ZStack-CC2530-2.5.1a\ZStack-CC2530-2. /
//                          5.1a\Projects\zstack\HomeAutomation\SmartSwitchLi /
//                          ght\CC2530DB\..\..\..\..\..\Components\stack\af\" /
//                           -I "D:\work space\Smart                          /
//                          Product\SmartLightSwitch\one                      /
//                          key\v1.00.0\ZStack-CC2530-2.5.1a\ZStack-CC2530-2. /
//                          5.1a\Projects\zstack\HomeAutomation\SmartSwitchLi /
//                          ght\CC2530DB\..\..\..\..\..\Components\stack\nwk\ /
//                          " -I "D:\work space\Smart                         /
//                          Product\SmartLightSwitch\one                      /
//                          key\v1.00.0\ZStack-CC2530-2.5.1a\ZStack-CC2530-2. /
//                          5.1a\Projects\zstack\HomeAutomation\SmartSwitchLi /
//                          ght\CC2530DB\..\..\..\..\..\Components\stack\sapi /
//                          \" -I "D:\work space\Smart                        /
//                          Product\SmartLightSwitch\one                      /
//                          key\v1.00.0\ZStack-CC2530-2.5.1a\ZStack-CC2530-2. /
//                          5.1a\Projects\zstack\HomeAutomation\SmartSwitchLi /
//                          ght\CC2530DB\..\..\..\..\..\Components\stack\sec\ /
//                          " -I "D:\work space\Smart                         /
//                          Product\SmartLightSwitch\one                      /
//                          key\v1.00.0\ZStack-CC2530-2.5.1a\ZStack-CC2530-2. /
//                          5.1a\Projects\zstack\HomeAutomation\SmartSwitchLi /
//                          ght\CC2530DB\..\..\..\..\..\Components\stack\sys\ /
//                          " -I "D:\work space\Smart                         /
//                          Product\SmartLightSwitch\one                      /
//                          key\v1.00.0\ZStack-CC2530-2.5.1a\ZStack-CC2530-2. /
//                          5.1a\Projects\zstack\HomeAutomation\SmartSwitchLi /
//                          ght\CC2530DB\..\..\..\..\..\Components\stack\zcl\ /
//                          " -I "D:\work space\Smart                         /
//                          Product\SmartLightSwitch\one                      /
//                          key\v1.00.0\ZStack-CC2530-2.5.1a\ZStack-CC2530-2. /
//                          5.1a\Projects\zstack\HomeAutomation\SmartSwitchLi /
//                          ght\CC2530DB\..\..\..\..\..\Components\stack\zdo\ /
//                          " -I "D:\work space\Smart                         /
//                          Product\SmartLightSwitch\one                      /
//                          key\v1.00.0\ZStack-CC2530-2.5.1a\ZStack-CC2530-2. /
//                          5.1a\Projects\zstack\HomeAutomation\SmartSwitchLi /
//                          ght\CC2530DB\..\..\..\..\..\Components\zmac\" -I  /
//                          "D:\work space\Smart Product\SmartLightSwitch\one /
//                           key\v1.00.0\ZStack-CC2530-2.5.1a\ZStack-CC2530-2 /
//                          .5.1a\Projects\zstack\HomeAutomation\SmartSwitchL /
//                          ight\CC2530DB\..\..\..\..\..\Components\zmac\f8w\ /
//                          " -Oh --require_prototypes                        /
//    List file          =  D:\work space\Smart Product\SmartLightSwitch\one  /
//                          key\v1.00.0\ZStack-CC2530-2.5.1a\ZStack-CC2530-2. /
//                          5.1a\Projects\zstack\HomeAutomation\SmartSwitchLi /
//                          ght\CC2530DB\RouterDeviceEB\List\zcl_onofflight.s /
//                          51                                                /
//                                                                            /
//                                                                            /
///////////////////////////////////////////////////////////////////////////////

        NAME zcl_onofflight

        RTMODEL "__SystemLibrary", "CLib"
        RTMODEL "__calling_convention", "xdata_reentrant"
        RTMODEL "__code_model", "banked"
        RTMODEL "__core", "plain"
        RTMODEL "__data_model", "large"
        RTMODEL "__dptr_size", "16"
        RTMODEL "__extended_stack", "disabled"
        RTMODEL "__location_for_constants", "data"
        RTMODEL "__number_of_dptrs", "1"
        RTMODEL "__rt_version", "1"

        RSEG DOVERLAY:DATA:NOROOT(0)
        RSEG IOVERLAY:IDATA:NOROOT(0)
        RSEG ISTACK:IDATA:NOROOT(0)
        RSEG PSTACK:XDATA:NOROOT(0)
        RSEG XSTACK:XDATA:NOROOT(0)

        EXTERN ?BANKED_ENTER_XDATA
        EXTERN ?BANKED_LEAVE_XDATA
        EXTERN ?BDISPATCH
        EXTERN ?BRET
        EXTERN ?US_SWITCH_SPARSE
        EXTERN ?V0
        EXTERN __INIT_XDATA_I
        EXTERN __INIT_XDATA_Z

        PUBLIC ??Device_App_MessageMSGCB?relay
        FUNCTION ??Device_App_MessageMSGCB?relay,0203H
        FUNCTION ??zclOnOffLight0_OnOffCB?relay,0203H
        FUNCTION ??zclOnOffLight_BasicResetCB?relay,0203H
        FUNCTION ??zclOnOffLight_IdentifyCB?relay,0203H
        FUNCTION ??zclOnOffLight_IdentifyQueryRspCB?relay,0203H
        PUBLIC ??zclOnOffLight_Init?relay
        FUNCTION ??zclOnOffLight_Init?relay,0203H
        PUBLIC ??zclOnOffLight_event_loop?relay
        FUNCTION ??zclOnOffLight_event_loop?relay,0203H
        PUBLIC DeviceApp_epDesc
        PUBLIC Device_App_MessageMSGCB
        FUNCTION Device_App_MessageMSGCB,0a1203H
        ARGFRAME XSTACK, 12, STACK
        ARGFRAME IOVERLAY, 0, STATIC
        ARGFRAME DOVERLAY, 0, STATIC
        LOCFRAME XSTACK, 10, STACK
        PUBWEAK _A_P1
        PUBLIC abno_led
        PUBLIC g_u8JoinNwkOnce
        PUBLIC g_u8restFlag
        PUBLIC ledcontorl
        PUBLIC zclDevice_InitDone
        PUBLIC zclDevice_JoinNetworkOk
        PUBLIC zclDevice_NwkState
        PUBLIC zclDevice_RejoinCounter
        FUNCTION zclOnOffLight0_OnOffCB,021603H
        ARGFRAME XSTACK, 0, STACK
        LOCFRAME XSTACK, 9, STACK
        FUNCTION zclOnOffLight_BasicResetCB,0603H
        ARGFRAME XSTACK, 0, STACK
        FUNCTION zclOnOffLight_IdentifyCB,021603H
        ARGFRAME XSTACK, 0, STACK
        LOCFRAME ISTACK, 2, STACK
        FUNCTION zclOnOffLight_IdentifyQueryRspCB,0603H
        ARGFRAME XSTACK, 0, STACK
        PUBLIC zclOnOffLight_Init
        FUNCTION zclOnOffLight_Init,021203H
        ARGFRAME XSTACK, 0, STACK
        LOCFRAME XSTACK, 9, STACK
        PUBLIC zclOnOffLight_TaskID
        PUBLIC zclOnOffLight_event_loop
        FUNCTION zclOnOffLight_event_loop,021203H
        ARGFRAME XSTACK, 0, STACK
        LOCFRAME XSTACK, 12, STACK
        PUBLIC zcl_Led_Blink
        
        CFI Names cfiNames0
        CFI StackFrame CFA_SP SP IDATA
        CFI StackFrame CFA_PSP16 PSP16 XDATA
        CFI StackFrame CFA_XSP16 XSP16 XDATA
        CFI StaticOverlayFrame CFA_IOVERLAY IOVERLAY
        CFI StaticOverlayFrame CFA_DOVERLAY DOVERLAY
        CFI Resource `PSW.CY`:1, `B.BR0`:1, `B.BR1`:1, `B.BR2`:1, `B.BR3`:1
        CFI Resource `B.BR4`:1, `B.BR5`:1, `B.BR6`:1, `B.BR7`:1, `VB.BR8`:1
        CFI Resource `VB.BR9`:1, `VB.BR10`:1, `VB.BR11`:1, `VB.BR12`:1
        CFI Resource `VB.BR13`:1, `VB.BR14`:1, `VB.BR15`:1, VB:8, B:8, A:8
        CFI Resource PSW:8, DPL0:8, DPH0:8, R0:8, R1:8, R2:8, R3:8, R4:8, R5:8
        CFI Resource R6:8, R7:8, V0:8, V1:8, V2:8, V3:8, V4:8, V5:8, V6:8, V7:8
        CFI Resource V8:8, V9:8, V10:8, V11:8, V12:8, V13:8, V14:8, V15:8, SP:8
        CFI Resource PSPH:8, PSPL:8, PSP16:16, XSPH:8, XSPL:8, XSP16:16
        CFI VirtualResource ?RET:24
        CFI Resource ?BRET_EXT:8
        CFI VirtualResource ?RET_HIGH:8, ?RET_LOW:8
        CFI ResourceParts PSP16 PSPH, PSPL
        CFI ResourceParts XSP16 XSPH, XSPL
        CFI ResourceParts ?RET ?BRET_EXT, ?RET_HIGH, ?RET_LOW
        CFI EndNames cfiNames0
        
        CFI Common cfiCommon0 Using cfiNames0
        CFI CodeAlign 1
        CFI DataAlign -1
        CFI ReturnAddress ?RET CODE
        CFI CFA_DOVERLAY Used
        CFI CFA_IOVERLAY Used
        CFI CFA_SP SP+-3
        CFI CFA_PSP16 PSP16+0
        CFI CFA_XSP16 XSP16+0
        CFI `PSW.CY` SameValue
        CFI `B.BR0` SameValue
        CFI `B.BR1` SameValue
        CFI `B.BR2` SameValue
        CFI `B.BR3` SameValue
        CFI `B.BR4` SameValue
        CFI `B.BR5` SameValue
        CFI `B.BR6` SameValue
        CFI `B.BR7` SameValue
        CFI `VB.BR8` SameValue
        CFI `VB.BR9` SameValue
        CFI `VB.BR10` SameValue
        CFI `VB.BR11` SameValue
        CFI `VB.BR12` SameValue
        CFI `VB.BR13` SameValue
        CFI `VB.BR14` SameValue
        CFI `VB.BR15` SameValue
        CFI VB SameValue
        CFI B Undefined
        CFI A Undefined
        CFI PSW SameValue
        CFI DPL0 SameValue
        CFI DPH0 SameValue
        CFI R0 Undefined
        CFI R1 Undefined
        CFI R2 Undefined
        CFI R3 Undefined
        CFI R4 Undefined
        CFI R5 Undefined
        CFI R6 SameValue
        CFI R7 SameValue
        CFI V0 SameValue
        CFI V1 SameValue
        CFI V2 SameValue
        CFI V3 SameValue
        CFI V4 SameValue
        CFI V5 SameValue
        CFI V6 SameValue
        CFI V7 SameValue
        CFI V8 SameValue
        CFI V9 SameValue
        CFI V10 SameValue
        CFI V11 SameValue
        CFI V12 SameValue
        CFI V13 SameValue
        CFI V14 SameValue
        CFI V15 SameValue
        CFI PSPH Undefined
        CFI PSPL Undefined
        CFI XSPH Undefined
        CFI XSPL Undefined
        CFI ?RET Concat
        CFI ?BRET_EXT Frame(CFA_SP, 3)
        CFI ?RET_HIGH Frame(CFA_SP, 2)
        CFI ?RET_LOW Frame(CFA_SP, 1)
        CFI EndCommon cfiCommon0
        
        
        CFI Common cfiCommon1 Using cfiNames0
        CFI CodeAlign 1
        CFI DataAlign -1
        CFI ReturnAddress ?RET CODE
        CFI CFA_DOVERLAY Used
        CFI CFA_IOVERLAY Used
        CFI CFA_SP SP+-2
        CFI CFA_PSP16 PSP16+0
        CFI CFA_XSP16 XSP16+0
        CFI `PSW.CY` SameValue
        CFI `B.BR0` SameValue
        CFI `B.BR1` SameValue
        CFI `B.BR2` SameValue
        CFI `B.BR3` SameValue
        CFI `B.BR4` SameValue
        CFI `B.BR5` SameValue
        CFI `B.BR6` SameValue
        CFI `B.BR7` SameValue
        CFI `VB.BR8` SameValue
        CFI `VB.BR9` SameValue
        CFI `VB.BR10` SameValue
        CFI `VB.BR11` SameValue
        CFI `VB.BR12` SameValue
        CFI `VB.BR13` SameValue
        CFI `VB.BR14` SameValue
        CFI `VB.BR15` SameValue
        CFI VB SameValue
        CFI B SameValue
        CFI A SameValue
        CFI PSW SameValue
        CFI DPL0 SameValue
        CFI DPH0 SameValue
        CFI R0 SameValue
        CFI R1 SameValue
        CFI R2 SameValue
        CFI R3 SameValue
        CFI R4 SameValue
        CFI R5 SameValue
        CFI R6 SameValue
        CFI R7 SameValue
        CFI V0 SameValue
        CFI V1 SameValue
        CFI V2 SameValue
        CFI V3 SameValue
        CFI V4 SameValue
        CFI V5 SameValue
        CFI V6 SameValue
        CFI V7 SameValue
        CFI V8 SameValue
        CFI V9 SameValue
        CFI V10 SameValue
        CFI V11 SameValue
        CFI V12 SameValue
        CFI V13 SameValue
        CFI V14 SameValue
        CFI V15 SameValue
        CFI PSPH Undefined
        CFI PSPL Undefined
        CFI XSPH Undefined
        CFI XSPL Undefined
        CFI ?RET Concat
        CFI ?BRET_EXT SameValue
        CFI ?RET_HIGH Frame(CFA_SP, 2)
        CFI ?RET_LOW Frame(CFA_SP, 1)
        CFI EndCommon cfiCommon1
        
afRegister          SYMBOL "afRegister"
zclHA_Init          SYMBOL "zclHA_Init"
zclGeneral_RegisterCmdCallbacks SYMBOL "zclGeneral_RegisterCmdCallbacks"
zcl_registerAttrList SYMBOL "zcl_registerAttrList"
zcl_registerForMsg  SYMBOL "zcl_registerForMsg"
RegisterForKeys     SYMBOL "RegisterForKeys"
zclDeviceInfoInit   SYMBOL "zclDeviceInfoInit"
zclLightControlInit SYMBOL "zclLightControlInit"
osal_start_timerEx  SYMBOL "osal_start_timerEx"
NLME_PermitJoiningRequest SYMBOL "NLME_PermitJoiningRequest"
osal_rand           SYMBOL "osal_rand"
osal_msg_deallocate SYMBOL "osal_msg_deallocate"
osal_msg_receive    SYMBOL "osal_msg_receive"
osal_mem_free       SYMBOL "osal_mem_free"
osal_stop_timerEx   SYMBOL "osal_stop_timerEx"
zclLightReportEvent SYMBOL "zclLightReportEvent"
zclSendHeartbeat    SYMBOL "zclSendHeartbeat"
zclLightControlTouchPanelEnable SYMBOL "zclLightControlTouchPanelEnable"
zclSendDeviceInfo   SYMBOL "zclSendDeviceInfo"
zclTouchPanelEvent  SYMBOL "zclTouchPanelEvent"
zclRestoreInterruptEvent SYMBOL "zclRestoreInterruptEvent"
zclFactoryResetEvent SYMBOL "zclFactoryResetEvent"
zclFactoryReset     SYMBOL "zclFactoryReset"
??NLME_PermitJoiningRequest?relay SYMBOL "?relay", NLME_PermitJoiningRequest
??RegisterForKeys?relay SYMBOL "?relay", RegisterForKeys
??afRegister?relay  SYMBOL "?relay", afRegister
??osal_mem_free?relay SYMBOL "?relay", osal_mem_free
??osal_msg_deallocate?relay SYMBOL "?relay", osal_msg_deallocate
??osal_msg_receive?relay SYMBOL "?relay", osal_msg_receive
??osal_rand?relay   SYMBOL "?relay", osal_rand
??osal_start_timerEx?relay SYMBOL "?relay", osal_start_timerEx
??osal_stop_timerEx?relay SYMBOL "?relay", osal_stop_timerEx
??zclDeviceInfoInit?relay SYMBOL "?relay", zclDeviceInfoInit
??zclFactoryReset?relay SYMBOL "?relay", zclFactoryReset
??zclFactoryResetEvent?relay SYMBOL "?relay", zclFactoryResetEvent
??zclGeneral_RegisterCmdCallbacks?relay SYMBOL "?relay", zclGeneral_RegisterCmdCallbacks
??zclHA_Init?relay  SYMBOL "?relay", zclHA_Init
??zclLightControlInit?relay SYMBOL "?relay", zclLightControlInit
??zclLightControlTouchPanelEnable?relay SYMBOL "?relay", zclLightControlTouchPanelEnable
??zclLightReportEvent?relay SYMBOL "?relay", zclLightReportEvent
??zclRestoreInterruptEvent?relay SYMBOL "?relay", zclRestoreInterruptEvent
??zclSendDeviceInfo?relay SYMBOL "?relay", zclSendDeviceInfo
??zclSendHeartbeat?relay SYMBOL "?relay", zclSendHeartbeat
??zclTouchPanelEvent?relay SYMBOL "?relay", zclTouchPanelEvent
??zcl_registerAttrList?relay SYMBOL "?relay", zcl_registerAttrList
??zcl_registerForMsg?relay SYMBOL "?relay", zcl_registerForMsg
Device_App_MessageMSGCB SYMBOL "Device_App_MessageMSGCB"
??Device_App_MessageMSGCB?relay SYMBOL "?relay", Device_App_MessageMSGCB
zclOnOffLight_Init  SYMBOL "zclOnOffLight_Init"
??zclOnOffLight_Init?relay SYMBOL "?relay", zclOnOffLight_Init
zclOnOffLight_event_loop SYMBOL "zclOnOffLight_event_loop"
??zclOnOffLight_event_loop?relay SYMBOL "?relay", zclOnOffLight_event_loop

        EXTERN afRegister
        FUNCTION afRegister,0202H
        ARGFRAME ISTACK, 0, STACK
        ARGFRAME PSTACK, 0, STACK
        ARGFRAME XSTACK, 9, STACK
        ARGFRAME IOVERLAY, 0, STATIC
        ARGFRAME DOVERLAY, 0, STATIC
        EXTERN zclHA_Init
        FUNCTION zclHA_Init,0202H
        ARGFRAME ISTACK, 0, STACK
        ARGFRAME PSTACK, 0, STACK
        ARGFRAME XSTACK, 9, STACK
        ARGFRAME IOVERLAY, 0, STATIC
        ARGFRAME DOVERLAY, 0, STATIC
        EXTERN zclGeneral_RegisterCmdCallbacks
        FUNCTION zclGeneral_RegisterCmdCallbacks,0202H
        ARGFRAME ISTACK, 0, STACK
        ARGFRAME PSTACK, 0, STACK
        ARGFRAME XSTACK, 9, STACK
        ARGFRAME IOVERLAY, 0, STATIC
        ARGFRAME DOVERLAY, 0, STATIC
        EXTERN zcl_registerAttrList
        FUNCTION zcl_registerAttrList,0202H
        ARGFRAME ISTACK, 0, STACK
        ARGFRAME PSTACK, 0, STACK
        ARGFRAME XSTACK, 9, STACK
        ARGFRAME IOVERLAY, 0, STATIC
        ARGFRAME DOVERLAY, 0, STATIC
        EXTERN zcl_registerForMsg
        FUNCTION zcl_registerForMsg,0202H
        ARGFRAME ISTACK, 0, STACK
        ARGFRAME PSTACK, 0, STACK
        ARGFRAME XSTACK, 9, STACK
        ARGFRAME IOVERLAY, 0, STATIC
        ARGFRAME DOVERLAY, 0, STATIC
        EXTERN RegisterForKeys
        FUNCTION RegisterForKeys,0202H
        ARGFRAME ISTACK, 0, STACK
        ARGFRAME PSTACK, 0, STACK
        ARGFRAME XSTACK, 9, STACK
        ARGFRAME IOVERLAY, 0, STATIC
        ARGFRAME DOVERLAY, 0, STATIC
        EXTERN zclDeviceInfoInit
        FUNCTION zclDeviceInfoInit,0202H
        ARGFRAME ISTACK, 0, STACK
        ARGFRAME PSTACK, 0, STACK
        ARGFRAME XSTACK, 9, STACK
        ARGFRAME IOVERLAY, 0, STATIC
        ARGFRAME DOVERLAY, 0, STATIC
        EXTERN zclLightControlInit
        FUNCTION zclLightControlInit,0202H
        ARGFRAME ISTACK, 0, STACK
        ARGFRAME PSTACK, 0, STACK
        ARGFRAME XSTACK, 9, STACK
        ARGFRAME IOVERLAY, 0, STATIC
        ARGFRAME DOVERLAY, 0, STATIC
        EXTERN osal_start_timerEx
        FUNCTION osal_start_timerEx,0202H
        ARGFRAME ISTACK, 2, STACK
        ARGFRAME PSTACK, 0, STACK
        ARGFRAME XSTACK, 12, STACK
        ARGFRAME IOVERLAY, 0, STATIC
        ARGFRAME DOVERLAY, 0, STATIC
        EXTERN NLME_PermitJoiningRequest
        FUNCTION NLME_PermitJoiningRequest,0202H
        ARGFRAME ISTACK, 0, STACK
        ARGFRAME PSTACK, 0, STACK
        ARGFRAME XSTACK, 12, STACK
        ARGFRAME IOVERLAY, 0, STATIC
        ARGFRAME DOVERLAY, 0, STATIC
        EXTERN osal_rand
        FUNCTION osal_rand,0202H
        ARGFRAME ISTACK, 0, STACK
        ARGFRAME PSTACK, 0, STACK
        ARGFRAME XSTACK, 12, STACK
        ARGFRAME IOVERLAY, 0, STATIC
        ARGFRAME DOVERLAY, 0, STATIC
        EXTERN osal_msg_deallocate
        FUNCTION osal_msg_deallocate,0202H
        ARGFRAME ISTACK, 0, STACK
        ARGFRAME PSTACK, 0, STACK
        ARGFRAME XSTACK, 12, STACK
        ARGFRAME IOVERLAY, 0, STATIC
        ARGFRAME DOVERLAY, 0, STATIC
        EXTERN osal_msg_receive
        FUNCTION osal_msg_receive,0202H
        ARGFRAME ISTACK, 0, STACK
        ARGFRAME PSTACK, 0, STACK
        ARGFRAME XSTACK, 12, STACK
        ARGFRAME IOVERLAY, 0, STATIC
        ARGFRAME DOVERLAY, 0, STATIC
        EXTERN osal_mem_free
        FUNCTION osal_mem_free,0202H
        ARGFRAME ISTACK, 0, STACK
        ARGFRAME PSTACK, 0, STACK
        ARGFRAME XSTACK, 12, STACK
        ARGFRAME IOVERLAY, 0, STATIC
        ARGFRAME DOVERLAY, 0, STATIC
        EXTERN osal_stop_timerEx
        FUNCTION osal_stop_timerEx,0202H
        ARGFRAME ISTACK, 2, STACK
        ARGFRAME PSTACK, 0, STACK
        ARGFRAME XSTACK, 12, STACK
        ARGFRAME IOVERLAY, 0, STATIC
        ARGFRAME DOVERLAY, 0, STATIC
        EXTERN zclLightReportEvent
        FUNCTION zclLightReportEvent,0202H
        ARGFRAME ISTACK, 0, STACK
        ARGFRAME PSTACK, 0, STACK
        ARGFRAME XSTACK, 12, STACK
        ARGFRAME IOVERLAY, 0, STATIC
        ARGFRAME DOVERLAY, 0, STATIC
        EXTERN zclSendHeartbeat
        FUNCTION zclSendHeartbeat,0202H
        ARGFRAME ISTACK, 0, STACK
        ARGFRAME PSTACK, 0, STACK
        ARGFRAME XSTACK, 12, STACK
        ARGFRAME IOVERLAY, 0, STATIC
        ARGFRAME DOVERLAY, 0, STATIC
        EXTERN zclLightControlTouchPanelEnable
        FUNCTION zclLightControlTouchPanelEnable,0202H
        ARGFRAME ISTACK, 0, STACK
        ARGFRAME PSTACK, 0, STACK
        ARGFRAME XSTACK, 12, STACK
        ARGFRAME IOVERLAY, 0, STATIC
        ARGFRAME DOVERLAY, 0, STATIC
        EXTERN zclSendDeviceInfo
        FUNCTION zclSendDeviceInfo,0202H
        ARGFRAME ISTACK, 0, STACK
        ARGFRAME PSTACK, 0, STACK
        ARGFRAME XSTACK, 12, STACK
        ARGFRAME IOVERLAY, 0, STATIC
        ARGFRAME DOVERLAY, 0, STATIC
        EXTERN zclTouchPanelEvent
        FUNCTION zclTouchPanelEvent,0202H
        ARGFRAME ISTACK, 0, STACK
        ARGFRAME PSTACK, 0, STACK
        ARGFRAME XSTACK, 12, STACK
        ARGFRAME IOVERLAY, 0, STATIC
        ARGFRAME DOVERLAY, 0, STATIC
        EXTERN zclRestoreInterruptEvent
        FUNCTION zclRestoreInterruptEvent,0202H
        ARGFRAME ISTACK, 0, STACK
        ARGFRAME PSTACK, 0, STACK
        ARGFRAME XSTACK, 12, STACK
        ARGFRAME IOVERLAY, 0, STATIC
        ARGFRAME DOVERLAY, 0, STATIC
        EXTERN zclFactoryResetEvent
        FUNCTION zclFactoryResetEvent,0202H
        ARGFRAME ISTACK, 0, STACK
        ARGFRAME PSTACK, 0, STACK
        ARGFRAME XSTACK, 12, STACK
        ARGFRAME IOVERLAY, 0, STATIC
        ARGFRAME DOVERLAY, 0, STATIC
        EXTERN zclFactoryReset
        FUNCTION zclFactoryReset,0202H
        ARGFRAME ISTACK, 0, STACK
        ARGFRAME PSTACK, 0, STACK
        ARGFRAME XSTACK, 12, STACK
        ARGFRAME IOVERLAY, 0, STATIC
        ARGFRAME DOVERLAY, 0, STATIC
        EXTERN ??NLME_PermitJoiningRequest?relay
        FUNCTION ??NLME_PermitJoiningRequest?relay,00H
        EXTERN ??RegisterForKeys?relay
        FUNCTION ??RegisterForKeys?relay,00H
        EXTERN ??afRegister?relay
        FUNCTION ??afRegister?relay,00H
        EXTERN ??osal_mem_free?relay
        FUNCTION ??osal_mem_free?relay,00H
        EXTERN ??osal_msg_deallocate?relay
        FUNCTION ??osal_msg_deallocate?relay,00H
        EXTERN ??osal_msg_receive?relay
        FUNCTION ??osal_msg_receive?relay,00H
        EXTERN ??osal_rand?relay
        FUNCTION ??osal_rand?relay,00H
        EXTERN ??osal_start_timerEx?relay
        FUNCTION ??osal_start_timerEx?relay,00H
        EXTERN ??osal_stop_timerEx?relay
        FUNCTION ??osal_stop_timerEx?relay,00H
        EXTERN ??zclDeviceInfoInit?relay
        FUNCTION ??zclDeviceInfoInit?relay,00H
        EXTERN ??zclFactoryReset?relay
        FUNCTION ??zclFactoryReset?relay,00H
        EXTERN ??zclFactoryResetEvent?relay
        FUNCTION ??zclFactoryResetEvent?relay,00H
        EXTERN ??zclGeneral_RegisterCmdCallbacks?relay
        FUNCTION ??zclGeneral_RegisterCmdCallbacks?relay,00H
        EXTERN ??zclHA_Init?relay
        FUNCTION ??zclHA_Init?relay,00H
        EXTERN ??zclLightControlInit?relay
        FUNCTION ??zclLightControlInit?relay,00H
        EXTERN ??zclLightControlTouchPanelEnable?relay
        FUNCTION ??zclLightControlTouchPanelEnable?relay,00H
        EXTERN ??zclLightReportEvent?relay
        FUNCTION ??zclLightReportEvent?relay,00H
        EXTERN ??zclRestoreInterruptEvent?relay
        FUNCTION ??zclRestoreInterruptEvent?relay,00H
        EXTERN ??zclSendDeviceInfo?relay
        FUNCTION ??zclSendDeviceInfo?relay,00H
        EXTERN ??zclSendHeartbeat?relay
        FUNCTION ??zclSendHeartbeat?relay,00H
        EXTERN ??zclTouchPanelEvent?relay
        FUNCTION ??zclTouchPanelEvent?relay,00H
        EXTERN ??zcl_registerAttrList?relay
        FUNCTION ??zcl_registerAttrList?relay,00H
        EXTERN ??zcl_registerForMsg?relay
        FUNCTION ??zcl_registerForMsg?relay,00H
        EXTERN zclOnOffLight0_Attrs
        EXTERN zclOnOffLight0_OnOff
        EXTERN zclOnOffLight0_SimpleDesc
        EXTERN zclOnOffLight_IdentifyTime

// D:\work space\Smart Product\SmartLightSwitch\one key\v1.00.0\ZStack-CC2530-2.5.1a\ZStack-CC2530-2.5.1a\Projects\zstack\HomeAutomation\SmartSwitchLight\Source\zcl_onofflight.c
//    1 /**************************************************************************************************
//    2   Filename:       zcl_sampleLight.c
//    3   Revised:        $Date: 2009-03-18 15:56:27 -0700 (Wed, 18 Mar 2009) $
//    4   Revision:       $Revision: 19453 $
//    5 
//    6 
//    7   Description:    Zigbee Cluster Library - sample device application.
//    8 
//    9 
//   10   Copyright 2006-2009 Texas Instruments Incorporated. All rights reserved.
//   11 
//   12   IMPORTANT: Your use of this Software is limited to those specific rights
//   13   granted under the terms of a software license agreement between the user
//   14   who downloaded the software, his/her employer (which must be your employer)
//   15   and Texas Instruments Incorporated (the "License").  You may not use this
//   16   Software unless you agree to abide by the terms of the License. The License
//   17   limits your use, and you acknowledge, that the Software may not be modified,
//   18   copied or distributed unless embedded on a Texas Instruments microcontroller
//   19   or used solely and exclusively in conjunction with a Texas Instruments radio
//   20   frequency transceiver, which is integrated into your product.  Other than for
//   21   the foregoing purpose, you may not use, reproduce, copy, prepare derivative
//   22   works of, modify, distribute, perform, display or sell this Software and/or
//   23   its documentation for any purpose.
//   24 
//   25   YOU FURTHER ACKNOWLEDGE AND AGREE THAT THE SOFTWARE AND DOCUMENTATION ARE
//   26   PROVIDED “AS IS?WITHOUT WARRANTY OF ANY KIND, EITHER EXPRESS OR IMPLIED, 
//   27   INCLUDING WITHOUT LIMITATION, ANY WARRANTY OF MERCHANTABILITY, TITLE, 
//   28   NON-INFRINGEMENT AND FITNESS FOR A PARTICULAR PURPOSE. IN NO EVENT SHALL
//   29   TEXAS INSTRUMENTS OR ITS LICENSORS BE LIABLE OR OBLIGATED UNDER CONTRACT,
//   30   NEGLIGENCE, STRICT LIABILITY, CONTRIBUTION, BREACH OF WARRANTY, OR OTHER
//   31   LEGAL EQUITABLE THEORY ANY DIRECT OR INDIRECT DAMAGES OR EXPENSES
//   32   INCLUDING BUT NOT LIMITED TO ANY INCIDENTAL, SPECIAL, INDIRECT, PUNITIVE
//   33   OR CONSEQUENTIAL DAMAGES, LOST PROFITS OR LOST DATA, COST OF PROCUREMENT
//   34   OF SUBSTITUTE GOODS, TECHNOLOGY, SERVICES, OR ANY CLAIMS BY THIRD PARTIES
//   35   (INCLUDING BUT NOT LIMITED TO ANY DEFENSE THEREOF), OR OTHER SIMILAR COSTS.
//   36 
//   37   Should you have any questions regarding your right to use this Software,
//   38   contact Texas Instruments Incorporated at www.TI.com. 
//   39 **************************************************************************************************/
//   40 
//   41 /*********************************************************************
//   42   This device will be like a Light device.  This application is not
//   43   intended to be a Light device, but will use the device description
//   44   to implement this sample code.
//   45 *********************************************************************/
//   46 
//   47 /*********************************************************************
//   48  * INCLUDES
//   49  */
//   50 #include "ZComDef.h"
//   51 #include "OSAL.h"
//   52 #include "AF.h"
//   53 #include "ZDApp.h"
//   54 
//   55 #include "zcl.h"
//   56 #include "zcl_general.h"
//   57 #include "zcl_ha.h"
//   58 
//   59 #include "zcl_onofflight.h"
//   60 
//   61 #include "onboard.h"

        ASEGN SFR_AN:DATA:NOROOT,090H
// union <unnamed> volatile __sfr _A_P1
_A_P1:
        DATA8
        DS 1
//   62 
//   63 /* HAL */
//   64 #include "hal_lcd.h"
//   65 #include "hal_led.h"
//   66 #include "hal_key.h"
//   67 
//   68 #include "zcl_light_control.h"
//   69 #include "zcl_device_info.h"
//   70 
//   71 
//   72 /*********************************************************************
//   73  * MACROS
//   74  */
//   75 
//   76 /*********************************************************************
//   77  * CONSTANTS
//   78  */
//   79 /*********************************************************************
//   80  * TYPEDEFS
//   81  */
//   82 
//   83 /*********************************************************************
//   84  * GLOBAL VARIABLES
//   85  */

        RSEG XDATA_Z:XDATA:NOROOT(0)
        DATA8
//   86 byte zclOnOffLight_TaskID;
zclOnOffLight_TaskID:
        DS 1
        REQUIRE __INIT_XDATA_Z

        RSEG XDATA_Z:XDATA:NOROOT(0)
        DATA8
//   87 devStates_t zclDevice_NwkState;
zclDevice_NwkState:
        DS 1
        REQUIRE __INIT_XDATA_Z

        RSEG XDATA_Z:XDATA:NOROOT(0)
        DATA8
//   88 uint8 zclDevice_RejoinCounter = 0;
zclDevice_RejoinCounter:
        DS 1
        REQUIRE __INIT_XDATA_Z

        RSEG XDATA_I:XDATA:NOROOT(0)
//   89 int8 zclDevice_JoinNetworkOk = 6;
zclDevice_JoinNetworkOk:
        DATA8
        DS 1
        REQUIRE `?<Initializer for zclDevice_JoinNetworkOk>`
        REQUIRE __INIT_XDATA_I

        RSEG XDATA_Z:XDATA:NOROOT(0)
        DATA8
//   90 int8 zclDevice_InitDone = 0;
zclDevice_InitDone:
        DS 1
        REQUIRE __INIT_XDATA_Z

        RSEG XDATA_Z:XDATA:NOROOT(0)
        DATA8
//   91 uint8 zcl_Led_Blink = 0;
zcl_Led_Blink:
        DS 1
        REQUIRE __INIT_XDATA_Z

        RSEG XDATA_Z:XDATA:NOROOT(0)
        DATA8
//   92 endPointDesc_t DeviceApp_epDesc;
DeviceApp_epDesc:
        DS 6
        REQUIRE __INIT_XDATA_Z

        RSEG XDATA_Z:XDATA:NOROOT(0)
        DATA8
//   93 uint8 g_u8JoinNwkOnce = 0;
g_u8JoinNwkOnce:
        DS 1
        REQUIRE __INIT_XDATA_Z

        RSEG XDATA_Z:XDATA:NOROOT(0)
        DATA8
//   94 uint8 g_u8restFlag = 0;
g_u8restFlag:
        DS 1
        REQUIRE __INIT_XDATA_Z

        RSEG XDATA_Z:XDATA:NOROOT(0)
        DATA8
//   95 uint8 abno_led = 0;
abno_led:
        DS 1
        REQUIRE __INIT_XDATA_Z

        RSEG XDATA_Z:XDATA:NOROOT(0)
        DATA8
//   96 uint8 ledcontorl = 0;
ledcontorl:
        DS 1
        REQUIRE __INIT_XDATA_Z
//   97 /*********************************************************************
//   98  * GLOBAL FUNCTIONS
//   99  */
//  100 
//  101 /*********************************************************************
//  102  * LOCAL VARIABLES
//  103  */
//  104 //static afAddrType_t zclOnOffLight_DstAddr;
//  105 
//  106 /*********************************************************************
//  107  * LOCAL FUNCTIONS
//  108  */
//  109 static void zclOnOffLight_HandleKeys( byte shift, byte keys );
//  110 static void zclOnOffLight_BasicResetCB( void );
//  111 static void zclOnOffLight_IdentifyCB( zclIdentify_t *pCmd );
//  112 static void zclOnOffLight_IdentifyQueryRspCB( zclIdentifyQueryRsp_t *pRsp );
//  113 static void zclOnOffLight0_OnOffCB(uint8 cmd );
//  114 //static void zclOnOffLight1_OnOffCB(uint8 cmd );
//  115 static void zclOnOffLight_OnOffCB(uint8 light, uint8 cmd );
//  116 static void zclOnOffLight_ProcessIdentifyTimeChange( void );
//  117 
//  118 // Functions to process ZCL Foundation incoming Command/Response messages 
//  119 static void zclOnOffLight_ProcessIncomingMsg( zclIncomingMsg_t *msg );
//  120 #ifdef ZCL_READ
//  121 static uint8 zclOnOffLight_ProcessInReadRspCmd( zclIncomingMsg_t *pInMsg );
//  122 #endif
//  123 #ifdef ZCL_WRITE
//  124 static uint8 zclOnOffLight_ProcessInWriteRspCmd( zclIncomingMsg_t *pInMsg );
//  125 #endif
//  126 static uint8 zclOnOffLight_ProcessInDefaultRspCmd( zclIncomingMsg_t *pInMsg );
//  127 #ifdef ZCL_DISCOVER
//  128 static uint8 zclOnOffLight_ProcessInDiscRspCmd( zclIncomingMsg_t *pInMsg );
//  129 #endif
//  130 
//  131 /*********************************************************************
//  132  * ZCL General Profile Callback table
//  133  */

        RSEG XDATA_I:XDATA:NOROOT(0)
//  134 static zclGeneral_AppCallbacks_t zclOnOffLight0_CmdCallbacks =
zclOnOffLight0_CmdCallbacks:
        DATA8
        DS 30
        REQUIRE `?<Initializer for zclOnOffLight0_CmdCallbacks>`
        REQUIRE __INIT_XDATA_I
//  135 {
//  136   zclOnOffLight_BasicResetCB,              // Basic Cluster Reset command
//  137   zclOnOffLight_IdentifyCB,                // Identify command  
//  138   zclOnOffLight_IdentifyQueryRspCB,        // Identify Query Response command
//  139   zclOnOffLight0_OnOffCB,                   // On/Off cluster command
//  140   NULL,                                     // Level Control Move to Level command
//  141   NULL,                                     // Level Control Move command
//  142   NULL,                                     // Level Control Step command
//  143   NULL,                                     // Group Response commands
//  144   NULL,                                     // Scene Store Request command
//  145   NULL,                                     // Scene Recall Request command
//  146   NULL,                                     // Scene Response command
//  147   NULL,                                     // Alarm (Response) command
//  148   NULL,                                     // RSSI Location commands
//  149   NULL,                                     // RSSI Location Response commands
//  150 };
//  151 
//  152 /*********************************************************************
//  153  * @fn          zclOnOffLight_Init
//  154  *
//  155  * @brief       Initialization function for the zclGeneral layer.
//  156  *
//  157  * @param       none
//  158  *
//  159  * @return      none
//  160  */

        RSEG BANKED_CODE:CODE:NOROOT(0)
//  161 void zclOnOffLight_Init( byte task_id )
zclOnOffLight_Init:
        CFI Block cfiBlock0 Using cfiCommon0
        CFI Function zclOnOffLight_Init
        CODE
//  162 {
        FUNCALL zclOnOffLight_Init, afRegister
        LOCFRAME ISTACK, 0, STACK
        LOCFRAME PSTACK, 0, STACK
        LOCFRAME XSTACK, 9, STACK
        LOCFRAME IOVERLAY, 0, STATIC
        LOCFRAME DOVERLAY, 0, STATIC
        ARGFRAME ISTACK, 0, STACK
        ARGFRAME PSTACK, 0, STACK
        ARGFRAME XSTACK, 9, STACK
        ARGFRAME IOVERLAY, 0, STATIC
        ARGFRAME DOVERLAY, 0, STATIC
        FUNCALL zclOnOffLight_Init, zclHA_Init
        LOCFRAME ISTACK, 0, STACK
        LOCFRAME PSTACK, 0, STACK
        LOCFRAME XSTACK, 9, STACK
        LOCFRAME IOVERLAY, 0, STATIC
        LOCFRAME DOVERLAY, 0, STATIC
        ARGFRAME ISTACK, 0, STACK
        ARGFRAME PSTACK, 0, STACK
        ARGFRAME XSTACK, 9, STACK
        ARGFRAME IOVERLAY, 0, STATIC
        ARGFRAME DOVERLAY, 0, STATIC
        FUNCALL zclOnOffLight_Init, zclGeneral_RegisterCmdCallbacks
        LOCFRAME ISTACK, 0, STACK
        LOCFRAME PSTACK, 0, STACK
        LOCFRAME XSTACK, 9, STACK
        LOCFRAME IOVERLAY, 0, STATIC
        LOCFRAME DOVERLAY, 0, STATIC
        ARGFRAME ISTACK, 0, STACK
        ARGFRAME PSTACK, 0, STACK
        ARGFRAME XSTACK, 9, STACK
        ARGFRAME IOVERLAY, 0, STATIC
        ARGFRAME DOVERLAY, 0, STATIC
        FUNCALL zclOnOffLight_Init, zcl_registerAttrList
        LOCFRAME ISTACK, 0, STACK
        LOCFRAME PSTACK, 0, STACK
        LOCFRAME XSTACK, 9, STACK
        LOCFRAME IOVERLAY, 0, STATIC
        LOCFRAME DOVERLAY, 0, STATIC
        ARGFRAME ISTACK, 0, STACK
        ARGFRAME PSTACK, 0, STACK
        ARGFRAME XSTACK, 9, STACK
        ARGFRAME IOVERLAY, 0, STATIC
        ARGFRAME DOVERLAY, 0, STATIC
        FUNCALL zclOnOffLight_Init, zcl_registerForMsg
        LOCFRAME ISTACK, 0, STACK
        LOCFRAME PSTACK, 0, STACK
        LOCFRAME XSTACK, 9, STACK
        LOCFRAME IOVERLAY, 0, STATIC
        LOCFRAME DOVERLAY, 0, STATIC
        ARGFRAME ISTACK, 0, STACK
        ARGFRAME PSTACK, 0, STACK
        ARGFRAME XSTACK, 9, STACK
        ARGFRAME IOVERLAY, 0, STATIC
        ARGFRAME DOVERLAY, 0, STATIC
        FUNCALL zclOnOffLight_Init, RegisterForKeys
        LOCFRAME ISTACK, 0, STACK
        LOCFRAME PSTACK, 0, STACK
        LOCFRAME XSTACK, 9, STACK
        LOCFRAME IOVERLAY, 0, STATIC
        LOCFRAME DOVERLAY, 0, STATIC
        ARGFRAME ISTACK, 0, STACK
        ARGFRAME PSTACK, 0, STACK
        ARGFRAME XSTACK, 9, STACK
        ARGFRAME IOVERLAY, 0, STATIC
        ARGFRAME DOVERLAY, 0, STATIC
        FUNCALL zclOnOffLight_Init, zclDeviceInfoInit
        LOCFRAME ISTACK, 0, STACK
        LOCFRAME PSTACK, 0, STACK
        LOCFRAME XSTACK, 9, STACK
        LOCFRAME IOVERLAY, 0, STATIC
        LOCFRAME DOVERLAY, 0, STATIC
        ARGFRAME ISTACK, 0, STACK
        ARGFRAME PSTACK, 0, STACK
        ARGFRAME XSTACK, 9, STACK
        ARGFRAME IOVERLAY, 0, STATIC
        ARGFRAME DOVERLAY, 0, STATIC
        FUNCALL zclOnOffLight_Init, zclLightControlInit
        LOCFRAME ISTACK, 0, STACK
        LOCFRAME PSTACK, 0, STACK
        LOCFRAME XSTACK, 9, STACK
        LOCFRAME IOVERLAY, 0, STATIC
        LOCFRAME DOVERLAY, 0, STATIC
        ARGFRAME ISTACK, 0, STACK
        ARGFRAME PSTACK, 0, STACK
        ARGFRAME XSTACK, 9, STACK
        ARGFRAME IOVERLAY, 0, STATIC
        ARGFRAME DOVERLAY, 0, STATIC
        MOV     A,#-0x9
        LCALL   ?BANKED_ENTER_XDATA
        CFI DPH0 load(1, XDATA, add(CFA_XSP16, literal(-1)))
        CFI DPL0 load(1, XDATA, add(CFA_XSP16, literal(-2)))
        CFI ?BRET_EXT load(1, XDATA, add(CFA_XSP16, literal(-3)))
        CFI ?RET_HIGH load(1, XDATA, add(CFA_XSP16, literal(-4)))
        CFI ?RET_LOW load(1, XDATA, add(CFA_XSP16, literal(-5)))
        CFI R7 load(1, XDATA, add(CFA_XSP16, literal(-6)))
        CFI V0 load(1, XDATA, add(CFA_XSP16, literal(-7)))
        CFI VB load(1, XDATA, add(CFA_XSP16, literal(-8)))
        CFI R6 load(1, XDATA, add(CFA_XSP16, literal(-9)))
        CFI CFA_SP SP+0
        CFI CFA_XSP16 add(XSP16, 9)
        ; Saved register size: 9
        ; Auto size: 0
        MOV     A,R1
//  163   zclOnOffLight_TaskID = task_id;
        MOV     DPTR,#zclOnOffLight_TaskID
        MOVX    @DPTR,A
//  164   zclDevice_JoinNetworkOk = 6;
        MOV     DPTR,#zclDevice_JoinNetworkOk
        MOV     A,#0x6
        MOVX    @DPTR,A
//  165   zclDevice_NwkState = DEV_INIT;
        MOV     DPTR,#zclDevice_NwkState
        MOV     A,#0x1
        MOVX    @DPTR,A
//  166   zclDevice_InitDone = 0;
        MOV     DPTR,#zclDevice_InitDone
        CLR     A
        MOVX    @DPTR,A
//  167   zclDevice_RejoinCounter = 0;
        MOV     DPTR,#zclDevice_RejoinCounter
        MOVX    @DPTR,A
//  168   // Set destination address to indirect
//  169   //zclOnOffLight_DstAddr.addrMode = (afAddrMode_t)AddrNotPresent;
//  170   //zclOnOffLight_DstAddr.endPoint = 0;
//  171   //zclOnOffLight_DstAddr.addr.shortAddr = 0;
//  172     
//  173   DeviceApp_epDesc.endPoint = 0xF0;
        MOV     DPTR,#DeviceApp_epDesc
        MOV     A,#-0x10
        MOVX    @DPTR,A
//  174   DeviceApp_epDesc.task_id = &zclOnOffLight_TaskID;
        INC     DPTR
        MOV     A,#zclOnOffLight_TaskID & 0xff
        MOVX    @DPTR,A
        INC     DPTR
        MOV     A,#(zclOnOffLight_TaskID >> 8) & 0xff
        MOVX    @DPTR,A
//  175   DeviceApp_epDesc.simpleDesc
//  176             = (SimpleDescriptionFormat_t *)&zclOnOffLight0_SimpleDesc;
        INC     DPTR
        MOV     A,#zclOnOffLight0_SimpleDesc & 0xff
        MOVX    @DPTR,A
        INC     DPTR
        MOV     A,#(zclOnOffLight0_SimpleDesc >> 8) & 0xff
        MOVX    @DPTR,A
//  177   DeviceApp_epDesc.latencyReq = noLatencyReqs;
        INC     DPTR
        CLR     A
        MOVX    @DPTR,A
//  178 
//  179   // Register the endpoint description with the AF
//  180   afRegister( &DeviceApp_epDesc );
        ; Setup parameters for call to function afRegister
        MOV     R2,#DeviceApp_epDesc & 0xff
        MOV     R3,#(DeviceApp_epDesc >> 8) & 0xff
        LCALL   ??afRegister?relay
//  181 
//  182   // This app is part of the Home Automation Profile
//  183   zclHA_Init( &zclOnOffLight0_SimpleDesc );
        ; Setup parameters for call to function zclHA_Init
        MOV     R2,#zclOnOffLight0_SimpleDesc & 0xff
        MOV     R3,#(zclOnOffLight0_SimpleDesc >> 8) & 0xff
        LCALL   ??zclHA_Init?relay
//  184 
//  185   // Register the ZCL General Cluster Library callback functions
//  186   zclGeneral_RegisterCmdCallbacks( ONOFFLIGHT0_ENDPOINT, &zclOnOffLight0_CmdCallbacks );
        ; Setup parameters for call to function zclGeneral_RegisterCmdCallbacks
        MOV     R2,#zclOnOffLight0_CmdCallbacks & 0xff
        MOV     R3,#(zclOnOffLight0_CmdCallbacks >> 8) & 0xff
        MOV     R1,#0x10
        LCALL   ??zclGeneral_RegisterCmdCallbacks?relay
//  187 
//  188   // Register the application's attribute list
//  189   zcl_registerAttrList( ONOFFLIGHT0_ENDPOINT, ONOFFLIGHT_MAX_ATTRIBUTES, zclOnOffLight0_Attrs );
        ; Setup parameters for call to function zcl_registerAttrList
        MOV     R4,#zclOnOffLight0_Attrs & 0xff
        MOV     R5,#(zclOnOffLight0_Attrs >> 8) & 0xff
        MOV     R2,#0xc
        MOV     R1,#0x10
        LCALL   ??zcl_registerAttrList?relay
//  190 
//  191   // Register the Application to receive the unprocessed Foundation command/response messages
//  192   zcl_registerForMsg( zclOnOffLight_TaskID );
        ; Setup parameters for call to function zcl_registerForMsg
        MOV     DPTR,#zclOnOffLight_TaskID
        MOVX    A,@DPTR
        MOV     R1,A
        LCALL   ??zcl_registerForMsg?relay
//  193   
//  194   // Register for all key events - This app will handle all key events
//  195   RegisterForKeys( zclOnOffLight_TaskID );
        ; Setup parameters for call to function RegisterForKeys
        MOV     DPTR,#zclOnOffLight_TaskID
        MOVX    A,@DPTR
        MOV     R1,A
        LCALL   ??RegisterForKeys?relay
//  196   
//  197    
//  198   zclDeviceInfoInit();
        ; Setup parameters for call to function zclDeviceInfoInit
        LCALL   ??zclDeviceInfoInit?relay
//  199   zclLightControlInit();
        ; Setup parameters for call to function zclLightControlInit
        LCALL   ??zclLightControlInit?relay
        CFI EndBlock cfiBlock0
//  200 }
        REQUIRE ?Subroutine0
        ; // Fall through to label ?Subroutine0

        RSEG BANKED_CODE:CODE:NOROOT(0)
?Subroutine0:
        CFI Block cfiBlock1 Using cfiCommon0
        CFI NoFunction
        CFI CFA_SP SP+0
        CFI CFA_XSP16 add(XSP16, 9)
        CFI VB load(1, XDATA, add(CFA_XSP16, literal(-8)))
        CFI DPL0 load(1, XDATA, add(CFA_XSP16, literal(-2)))
        CFI DPH0 load(1, XDATA, add(CFA_XSP16, literal(-1)))
        CFI R6 load(1, XDATA, add(CFA_XSP16, literal(-9)))
        CFI R7 load(1, XDATA, add(CFA_XSP16, literal(-6)))
        CFI V0 load(1, XDATA, add(CFA_XSP16, literal(-7)))
        CFI ?BRET_EXT load(1, XDATA, add(CFA_XSP16, literal(-3)))
        CFI ?RET_HIGH load(1, XDATA, add(CFA_XSP16, literal(-4)))
        CFI ?RET_LOW load(1, XDATA, add(CFA_XSP16, literal(-5)))
        MOV     R7,#0x1
        LJMP    ?BANKED_LEAVE_XDATA
        CFI EndBlock cfiBlock1
//  201 
//  202 /*********************************************************************
//  203  * @fn          zclSample_event_loop
//  204  *
//  205  * @brief       Event Loop Processor for zclGeneral.
//  206  *
//  207  * @param       none
//  208  *
//  209  * @return      none
//  210  */

        RSEG BANKED_CODE:CODE:NOROOT(0)
//  211 uint16 zclOnOffLight_event_loop( uint8 task_id, uint16 events )
zclOnOffLight_event_loop:
        CFI Block cfiBlock2 Using cfiCommon0
        CFI Function zclOnOffLight_event_loop
        CODE
//  212 {
        FUNCALL zclOnOffLight_event_loop, osal_start_timerEx
        LOCFRAME ISTACK, 0, STACK
        LOCFRAME PSTACK, 0, STACK
        LOCFRAME XSTACK, 12, STACK
        LOCFRAME IOVERLAY, 0, STATIC
        LOCFRAME DOVERLAY, 0, STATIC
        ARGFRAME ISTACK, 0, STACK
        ARGFRAME PSTACK, 0, STACK
        ARGFRAME XSTACK, 12, STACK
        ARGFRAME IOVERLAY, 0, STATIC
        ARGFRAME DOVERLAY, 0, STATIC
        FUNCALL zclOnOffLight_event_loop, NLME_PermitJoiningRequest
        LOCFRAME ISTACK, 0, STACK
        LOCFRAME PSTACK, 0, STACK
        LOCFRAME XSTACK, 12, STACK
        LOCFRAME IOVERLAY, 0, STATIC
        LOCFRAME DOVERLAY, 0, STATIC
        ARGFRAME ISTACK, 0, STACK
        ARGFRAME PSTACK, 0, STACK
        ARGFRAME XSTACK, 12, STACK
        ARGFRAME IOVERLAY, 0, STATIC
        ARGFRAME DOVERLAY, 0, STATIC
        FUNCALL zclOnOffLight_event_loop, osal_rand
        LOCFRAME ISTACK, 0, STACK
        LOCFRAME PSTACK, 0, STACK
        LOCFRAME XSTACK, 12, STACK
        LOCFRAME IOVERLAY, 0, STATIC
        LOCFRAME DOVERLAY, 0, STATIC
        ARGFRAME ISTACK, 0, STACK
        ARGFRAME PSTACK, 0, STACK
        ARGFRAME XSTACK, 12, STACK
        ARGFRAME IOVERLAY, 0, STATIC
        ARGFRAME DOVERLAY, 0, STATIC
        FUNCALL zclOnOffLight_event_loop, osal_start_timerEx
        LOCFRAME ISTACK, 0, STACK
        LOCFRAME PSTACK, 0, STACK
        LOCFRAME XSTACK, 12, STACK
        LOCFRAME IOVERLAY, 0, STATIC
        LOCFRAME DOVERLAY, 0, STATIC
        ARGFRAME ISTACK, 0, STACK
        ARGFRAME PSTACK, 0, STACK
        ARGFRAME XSTACK, 12, STACK
        ARGFRAME IOVERLAY, 0, STATIC
        ARGFRAME DOVERLAY, 0, STATIC
        FUNCALL zclOnOffLight_event_loop, osal_msg_deallocate
        LOCFRAME ISTACK, 0, STACK
        LOCFRAME PSTACK, 0, STACK
        LOCFRAME XSTACK, 12, STACK
        LOCFRAME IOVERLAY, 0, STATIC
        LOCFRAME DOVERLAY, 0, STATIC
        ARGFRAME ISTACK, 0, STACK
        ARGFRAME PSTACK, 0, STACK
        ARGFRAME XSTACK, 12, STACK
        ARGFRAME IOVERLAY, 0, STATIC
        ARGFRAME DOVERLAY, 0, STATIC
        FUNCALL zclOnOffLight_event_loop, osal_msg_receive
        LOCFRAME ISTACK, 0, STACK
        LOCFRAME PSTACK, 0, STACK
        LOCFRAME XSTACK, 12, STACK
        LOCFRAME IOVERLAY, 0, STATIC
        LOCFRAME DOVERLAY, 0, STATIC
        ARGFRAME ISTACK, 0, STACK
        ARGFRAME PSTACK, 0, STACK
        ARGFRAME XSTACK, 12, STACK
        ARGFRAME IOVERLAY, 0, STATIC
        ARGFRAME DOVERLAY, 0, STATIC
        FUNCALL zclOnOffLight_event_loop, Device_App_MessageMSGCB
        LOCFRAME ISTACK, 0, STACK
        LOCFRAME PSTACK, 0, STACK
        LOCFRAME XSTACK, 12, STACK
        LOCFRAME IOVERLAY, 0, STATIC
        LOCFRAME DOVERLAY, 0, STATIC
        ARGFRAME ISTACK, 0, STACK
        ARGFRAME PSTACK, 0, STACK
        ARGFRAME XSTACK, 12, STACK
        ARGFRAME IOVERLAY, 0, STATIC
        ARGFRAME DOVERLAY, 0, STATIC
        FUNCALL zclOnOffLight_event_loop, osal_mem_free
        LOCFRAME ISTACK, 0, STACK
        LOCFRAME PSTACK, 0, STACK
        LOCFRAME XSTACK, 12, STACK
        LOCFRAME IOVERLAY, 0, STATIC
        LOCFRAME DOVERLAY, 0, STATIC
        ARGFRAME ISTACK, 0, STACK
        ARGFRAME PSTACK, 0, STACK
        ARGFRAME XSTACK, 12, STACK
        ARGFRAME IOVERLAY, 0, STATIC
        ARGFRAME DOVERLAY, 0, STATIC
        FUNCALL zclOnOffLight_event_loop, osal_stop_timerEx
        LOCFRAME ISTACK, 0, STACK
        LOCFRAME PSTACK, 0, STACK
        LOCFRAME XSTACK, 12, STACK
        LOCFRAME IOVERLAY, 0, STATIC
        LOCFRAME DOVERLAY, 0, STATIC
        ARGFRAME ISTACK, 0, STACK
        ARGFRAME PSTACK, 0, STACK
        ARGFRAME XSTACK, 12, STACK
        ARGFRAME IOVERLAY, 0, STATIC
        ARGFRAME DOVERLAY, 0, STATIC
        FUNCALL zclOnOffLight_event_loop, zclLightReportEvent
        LOCFRAME ISTACK, 0, STACK
        LOCFRAME PSTACK, 0, STACK
        LOCFRAME XSTACK, 12, STACK
        LOCFRAME IOVERLAY, 0, STATIC
        LOCFRAME DOVERLAY, 0, STATIC
        ARGFRAME ISTACK, 0, STACK
        ARGFRAME PSTACK, 0, STACK
        ARGFRAME XSTACK, 12, STACK
        ARGFRAME IOVERLAY, 0, STATIC
        ARGFRAME DOVERLAY, 0, STATIC
        FUNCALL zclOnOffLight_event_loop, zclSendHeartbeat
        LOCFRAME ISTACK, 0, STACK
        LOCFRAME PSTACK, 0, STACK
        LOCFRAME XSTACK, 12, STACK
        LOCFRAME IOVERLAY, 0, STATIC
        LOCFRAME DOVERLAY, 0, STATIC
        ARGFRAME ISTACK, 0, STACK
        ARGFRAME PSTACK, 0, STACK
        ARGFRAME XSTACK, 12, STACK
        ARGFRAME IOVERLAY, 0, STATIC
        ARGFRAME DOVERLAY, 0, STATIC
        FUNCALL zclOnOffLight_event_loop, osal_start_timerEx
        LOCFRAME ISTACK, 0, STACK
        LOCFRAME PSTACK, 0, STACK
        LOCFRAME XSTACK, 12, STACK
        LOCFRAME IOVERLAY, 0, STATIC
        LOCFRAME DOVERLAY, 0, STATIC
        ARGFRAME ISTACK, 0, STACK
        ARGFRAME PSTACK, 0, STACK
        ARGFRAME XSTACK, 12, STACK
        ARGFRAME IOVERLAY, 0, STATIC
        ARGFRAME DOVERLAY, 0, STATIC
        FUNCALL zclOnOffLight_event_loop, zclLightControlTouchPanelEnable
        LOCFRAME ISTACK, 0, STACK
        LOCFRAME PSTACK, 0, STACK
        LOCFRAME XSTACK, 12, STACK
        LOCFRAME IOVERLAY, 0, STATIC
        LOCFRAME DOVERLAY, 0, STATIC
        ARGFRAME ISTACK, 0, STACK
        ARGFRAME PSTACK, 0, STACK
        ARGFRAME XSTACK, 12, STACK
        ARGFRAME IOVERLAY, 0, STATIC
        ARGFRAME DOVERLAY, 0, STATIC
        FUNCALL zclOnOffLight_event_loop, osal_start_timerEx
        LOCFRAME ISTACK, 0, STACK
        LOCFRAME PSTACK, 0, STACK
        LOCFRAME XSTACK, 12, STACK
        LOCFRAME IOVERLAY, 0, STATIC
        LOCFRAME DOVERLAY, 0, STATIC
        ARGFRAME ISTACK, 0, STACK
        ARGFRAME PSTACK, 0, STACK
        ARGFRAME XSTACK, 12, STACK
        ARGFRAME IOVERLAY, 0, STATIC
        ARGFRAME DOVERLAY, 0, STATIC
        FUNCALL zclOnOffLight_event_loop, zclSendDeviceInfo
        LOCFRAME ISTACK, 0, STACK
        LOCFRAME PSTACK, 0, STACK
        LOCFRAME XSTACK, 12, STACK
        LOCFRAME IOVERLAY, 0, STATIC
        LOCFRAME DOVERLAY, 0, STATIC
        ARGFRAME ISTACK, 0, STACK
        ARGFRAME PSTACK, 0, STACK
        ARGFRAME XSTACK, 12, STACK
        ARGFRAME IOVERLAY, 0, STATIC
        ARGFRAME DOVERLAY, 0, STATIC
        FUNCALL zclOnOffLight_event_loop, zclSendHeartbeat
        LOCFRAME ISTACK, 0, STACK
        LOCFRAME PSTACK, 0, STACK
        LOCFRAME XSTACK, 12, STACK
        LOCFRAME IOVERLAY, 0, STATIC
        LOCFRAME DOVERLAY, 0, STATIC
        ARGFRAME ISTACK, 0, STACK
        ARGFRAME PSTACK, 0, STACK
        ARGFRAME XSTACK, 12, STACK
        ARGFRAME IOVERLAY, 0, STATIC
        ARGFRAME DOVERLAY, 0, STATIC
        FUNCALL zclOnOffLight_event_loop, zclTouchPanelEvent
        LOCFRAME ISTACK, 0, STACK
        LOCFRAME PSTACK, 0, STACK
        LOCFRAME XSTACK, 12, STACK
        LOCFRAME IOVERLAY, 0, STATIC
        LOCFRAME DOVERLAY, 0, STATIC
        ARGFRAME ISTACK, 0, STACK
        ARGFRAME PSTACK, 0, STACK
        ARGFRAME XSTACK, 12, STACK
        ARGFRAME IOVERLAY, 0, STATIC
        ARGFRAME DOVERLAY, 0, STATIC
        FUNCALL zclOnOffLight_event_loop, osal_start_timerEx
        LOCFRAME ISTACK, 0, STACK
        LOCFRAME PSTACK, 0, STACK
        LOCFRAME XSTACK, 12, STACK
        LOCFRAME IOVERLAY, 0, STATIC
        LOCFRAME DOVERLAY, 0, STATIC
        ARGFRAME ISTACK, 0, STACK
        ARGFRAME PSTACK, 0, STACK
        ARGFRAME XSTACK, 12, STACK
        ARGFRAME IOVERLAY, 0, STATIC
        ARGFRAME DOVERLAY, 0, STATIC
        FUNCALL zclOnOffLight_event_loop, zclRestoreInterruptEvent
        LOCFRAME ISTACK, 0, STACK
        LOCFRAME PSTACK, 0, STACK
        LOCFRAME XSTACK, 12, STACK
        LOCFRAME IOVERLAY, 0, STATIC
        LOCFRAME DOVERLAY, 0, STATIC
        ARGFRAME ISTACK, 0, STACK
        ARGFRAME PSTACK, 0, STACK
        ARGFRAME XSTACK, 12, STACK
        ARGFRAME IOVERLAY, 0, STATIC
        ARGFRAME DOVERLAY, 0, STATIC
        FUNCALL zclOnOffLight_event_loop, zclFactoryResetEvent
        LOCFRAME ISTACK, 0, STACK
        LOCFRAME PSTACK, 0, STACK
        LOCFRAME XSTACK, 12, STACK
        LOCFRAME IOVERLAY, 0, STATIC
        LOCFRAME DOVERLAY, 0, STATIC
        ARGFRAME ISTACK, 0, STACK
        ARGFRAME PSTACK, 0, STACK
        ARGFRAME XSTACK, 12, STACK
        ARGFRAME IOVERLAY, 0, STATIC
        ARGFRAME DOVERLAY, 0, STATIC
        FUNCALL zclOnOffLight_event_loop, zclFactoryReset
        LOCFRAME ISTACK, 0, STACK
        LOCFRAME PSTACK, 0, STACK
        LOCFRAME XSTACK, 12, STACK
        LOCFRAME IOVERLAY, 0, STATIC
        LOCFRAME DOVERLAY, 0, STATIC
        ARGFRAME ISTACK, 0, STACK
        ARGFRAME PSTACK, 0, STACK
        ARGFRAME XSTACK, 12, STACK
        ARGFRAME IOVERLAY, 0, STATIC
        ARGFRAME DOVERLAY, 0, STATIC
        FUNCALL zclOnOffLight_event_loop, osal_start_timerEx
        LOCFRAME ISTACK, 0, STACK
        LOCFRAME PSTACK, 0, STACK
        LOCFRAME XSTACK, 12, STACK
        LOCFRAME IOVERLAY, 0, STATIC
        LOCFRAME DOVERLAY, 0, STATIC
        ARGFRAME ISTACK, 0, STACK
        ARGFRAME PSTACK, 0, STACK
        ARGFRAME XSTACK, 12, STACK
        ARGFRAME IOVERLAY, 0, STATIC
        ARGFRAME DOVERLAY, 0, STATIC
        MOV     A,#-0xc
        LCALL   ?BANKED_ENTER_XDATA
        CFI DPH0 load(1, XDATA, add(CFA_XSP16, literal(-1)))
        CFI DPL0 load(1, XDATA, add(CFA_XSP16, literal(-2)))
        CFI ?BRET_EXT load(1, XDATA, add(CFA_XSP16, literal(-3)))
        CFI ?RET_HIGH load(1, XDATA, add(CFA_XSP16, literal(-4)))
        CFI ?RET_LOW load(1, XDATA, add(CFA_XSP16, literal(-5)))
        CFI R7 load(1, XDATA, add(CFA_XSP16, literal(-6)))
        CFI V3 load(1, XDATA, add(CFA_XSP16, literal(-7)))
        CFI V2 load(1, XDATA, add(CFA_XSP16, literal(-8)))
        CFI V1 load(1, XDATA, add(CFA_XSP16, literal(-9)))
        CFI V0 load(1, XDATA, add(CFA_XSP16, literal(-10)))
        CFI VB load(1, XDATA, add(CFA_XSP16, literal(-11)))
        CFI R6 load(1, XDATA, add(CFA_XSP16, literal(-12)))
        CFI CFA_SP SP+0
        CFI CFA_XSP16 add(XSP16, 12)
        ; Saved register size: 12
        ; Auto size: 0
        MOV     A,R2
        MOV     R6,A
        MOV     A,R3
        MOV     R7,A
//  213   afIncomingMSGPacket_t *MSGpkt;
//  214   
//  215   (void)task_id;  // Intentionally unreferenced parameter
//  216 
//  217   if ( events & SYS_EVENT_MSG )
        ANL     A,#0x80
        JNZ     ??zclOnOffLight_event_loop_0
//  218   {
//  219     while ( (MSGpkt = (afIncomingMSGPacket_t *)osal_msg_receive( zclOnOffLight_TaskID )) )
//  220     {
//  221       switch ( MSGpkt->hdr.event )
//  222       {
//  223       case AF_INCOMING_MSG_CMD:
//  224         Device_App_MessageMSGCB(MSGpkt);
//  225         break;
//  226       case ZCL_INCOMING_MSG:
//  227         // Incoming ZCL Foundation command/response messages
//  228         zclOnOffLight_ProcessIncomingMsg( (zclIncomingMsg_t *)MSGpkt );
//  229         break;
//  230       case KEY_CHANGE:
//  231         zclOnOffLight_HandleKeys( ((keyChange_t *)MSGpkt)->state, ((keyChange_t *)MSGpkt)->keys );
//  232         break;
//  233         break;
//  234       case ZDO_STATE_CHANGE:
//  235         zclDevice_NwkState = (devStates_t)(MSGpkt->hdr.status);
//  236         if (zclDevice_NwkState == DEV_ROUTER ) {
//  237           NLME_PermitJoiningRequest(0x00);//ÉÏµç¹Ø±ÕÍøÂçÔÊÐí¼ÓÈë
//  238           osal_start_timerEx(zclOnOffLight_TaskID, 
//  239                              ZCL_DEVICE_INFO_SEND_EVENT,
//  240                              ZCL_DEVICE_SEND_INIF_TIME_5S);
//  241           zclDevice_RejoinCounter = 0;
//  242           g_u8JoinNwkOnce = 1;
//  243         } else {
//  244           
//  245         }
//  246         //LED_ON();//LED
//  247         break;
//  248       default:
//  249         break;
//  250       }
//  251 
//  252       // Release the memory
//  253       osal_msg_deallocate( (uint8 *)MSGpkt );
//  254     }
//  255 
//  256     // return unprocessed events
//  257     return (events ^ SYS_EVENT_MSG);
//  258   }
//  259   
//  260 //  if (events & ZCL_DEVICE_REJOIN_EVENT) {
//  261 //    ZDApp_StartJoiningCycle();
//  262 //  }
//  263   
//  264   if ( events & ONOFFLIGHT_IDENTIFY_TIMEOUT_EVT )
        MOV     A,R6
        MOV     C,0xE0 /* A   */.0
        JC      $+5
        LJMP    ??zclOnOffLight_event_loop_1 & 0xFFFF
//  265   {
//  266     if ( zclOnOffLight_IdentifyTime > 0 )
        MOV     DPTR,#zclOnOffLight_IdentifyTime
        LCALL   ??Subroutine5_0 & 0xFFFF
??CrossCallReturnLabel_4:
        MOV     A,R0
        ORL     A,R1
        JNZ     $+5
        LJMP    ??zclOnOffLight_event_loop_2 & 0xFFFF
//  267       zclOnOffLight_IdentifyTime--;
        MOV     DPTR,#zclOnOffLight_IdentifyTime
        MOVX    A,@DPTR
        ADD     A,#-0x1
        MOVX    @DPTR,A
        INC     DPTR
        MOVX    A,@DPTR
        ADDC    A,#-0x1
        MOVX    @DPTR,A
//  268     zclOnOffLight_ProcessIdentifyTimeChange();
        DEC     R0
        MOV     R1,A
        MOV     A,R0
        ORL     A,R1
        JNZ     $+5
        LJMP    ??zclOnOffLight_event_loop_2 & 0xFFFF
        ; Setup parameters for call to function osal_start_timerEx
        LCALL   ?Subroutine2 & 0xFFFF
//  269     
//  270     //return ( events ^ ONOFFLIGHT_IDENTIFY_TIMEOUT_EVT );
//  271   }
??CrossCallReturnLabel_15:
        LJMP    ??zclOnOffLight_event_loop_1 & 0xFFFF
??zclOnOffLight_event_loop_3:
        INC     DPTR
        MOVX    A,@DPTR
        MOV     DPTR,#zclDevice_NwkState
        MOVX    @DPTR,A
        XRL     A,#0x7
        JNZ     ??zclOnOffLight_event_loop_4
        ; Setup parameters for call to function NLME_PermitJoiningRequest
        MOV     R1,#0x0
        LCALL   ??NLME_PermitJoiningRequest?relay
        ; Setup parameters for call to function osal_rand
        LCALL   ??osal_rand?relay
        ; Setup parameters for call to function osal_start_timerEx
        MOV     A,R2
        MOV     B,#0x14
        MUL     AB
        ADD     A,#0x10
        MOV     R4,A
        MOV     A,B
        ADDC    A,#0x27
        MOV     R5,A
        MOV     R2,#0x0
        MOV     R3,#0x1
        LCALL   ??Subroutine7_0 & 0xFFFF
??CrossCallReturnLabel_11:
        MOV     DPTR,#zclDevice_RejoinCounter
        CLR     A
        MOVX    @DPTR,A
        MOV     DPTR,#g_u8JoinNwkOnce
        INC     A
        MOVX    @DPTR,A
??zclOnOffLight_event_loop_4:
        ; Setup parameters for call to function osal_msg_deallocate
        MOV     R2,?V0 + 0
        MOV     R3,?V0 + 1
        LCALL   ??osal_msg_deallocate?relay
??zclOnOffLight_event_loop_0:
        ; Setup parameters for call to function osal_msg_receive
        MOV     DPTR,#zclOnOffLight_TaskID
        MOVX    A,@DPTR
        MOV     R1,A
        LCALL   ??osal_msg_receive?relay
        MOV     ?V0 + 0,R2
        MOV     ?V0 + 1,R3
        MOV     A,R2
        ORL     A,?V0 + 1
        JZ      ??zclOnOffLight_event_loop_5
        MOV     DPL,R2
        MOV     DPH,R3
        MOVX    A,@DPTR
        ADD     A,#-0x1a
        JZ      ??zclOnOffLight_event_loop_6
        ADD     A,#-0x1a
        JZ      ??zclOnOffLight_event_loop_7
        ADD     A,#0x63
        JZ      ??zclOnOffLight_event_loop_3
        SJMP    ??zclOnOffLight_event_loop_4
??zclOnOffLight_event_loop_6:
        ; Setup parameters for call to function Device_App_MessageMSGCB
        LCALL   ??Device_App_MessageMSGCB?relay
        SJMP    ??zclOnOffLight_event_loop_4
??zclOnOffLight_event_loop_7:
        INC     DPTR
        INC     DPTR
        INC     DPTR
        INC     DPTR
        INC     DPTR
        INC     DPTR
        INC     DPTR
        MOVX    A,@DPTR
        DEC     A
        JZ      ??zclOnOffLight_event_loop_8
        ADD     A,#-0x3
        JNZ     ??zclOnOffLight_event_loop_9
        LCALL   ?Subroutine1 & 0xFFFF
??CrossCallReturnLabel_0:
        JZ      ??zclOnOffLight_event_loop_9
??zclOnOffLight_event_loop_10:
        INC     R0
        MOV     A,R0
        CLR     C
        SUBB    A,R1
        JNC     ??zclOnOffLight_event_loop_9
        SJMP    ??zclOnOffLight_event_loop_10
??zclOnOffLight_event_loop_8:
        LCALL   ?Subroutine1 & 0xFFFF
??CrossCallReturnLabel_1:
        JZ      ??zclOnOffLight_event_loop_9
??zclOnOffLight_event_loop_11:
        INC     R0
        MOV     A,R0
        CLR     C
        SUBB    A,R1
        JC      ??zclOnOffLight_event_loop_11
??zclOnOffLight_event_loop_9:
        LCALL   ?Subroutine4 & 0xFFFF
??CrossCallReturnLabel_2:
        MOV     R2,A
        INC     DPTR
        MOVX    A,@DPTR
        MOV     R3,A
        MOV     A,R2
        ORL     A,R3
        JZ      ??zclOnOffLight_event_loop_4
        ; Setup parameters for call to function osal_mem_free
        LCALL   ??osal_mem_free?relay
        SJMP    ??zclOnOffLight_event_loop_4
??zclOnOffLight_event_loop_5:
        MOV     A,R6
        MOV     R2,A
        MOV     A,R7
        XRL     A,#0x80
        MOV     R3,A
        LJMP    ??zclOnOffLight_event_loop_12 & 0xFFFF
??zclOnOffLight_event_loop_2:
        ; Setup parameters for call to function osal_stop_timerEx
        MOV     R2,#0x1
        MOV     R3,#0x0
        MOV     DPTR,#zclOnOffLight_TaskID
        MOVX    A,@DPTR
        MOV     R1,A
        LCALL   ??osal_stop_timerEx?relay
//  272   
//  273   if (events & ZCL_DEVICE_SEND_ONOFF_STATE_EVENT) 
??zclOnOffLight_event_loop_1:
        MOV     A,R6
        ANL     A,#0x2
        JZ      ??zclOnOffLight_event_loop_13
//  274   {
//  275     zclLightReportEvent(ONOFFLIGHT_ENDPONT_0xF0, &zclOnOffLight0_OnOff);  
        ; Setup parameters for call to function zclLightReportEvent
        MOV     R4,#zclOnOffLight0_OnOff & 0xff
        MOV     R5,#(zclOnOffLight0_OnOff >> 8) & 0xff
        MOV     R2,#-0x10
        MOV     R3,#0x0
        LCALL   ??zclLightReportEvent?relay
//  276   }
//  277   
//  278   if (events & ZCL_DEVICE_HEARTBEAT_EVENT)
??zclOnOffLight_event_loop_13:
        MOV     A,R7
        ANL     A,#0x2
        MOV     ?V0 + 1,A
        JZ      ??zclOnOffLight_event_loop_14
//  279   {
//  280     zclSendHeartbeat();
        ; Setup parameters for call to function zclSendHeartbeat
        LCALL   ??zclSendHeartbeat?relay
//  281 //    if(afStatus_SUCCESS != zclSendHeartbeat())
//  282 //    {
//  283 //      SystemResetSoft();
//  284 //    }
//  285   }
//  286   
//  287   if (events & ZCL_DEVICE_EXIT_NETWORK_EVENT) {
??zclOnOffLight_event_loop_14:
        MOV     A,R7
        ANL     A,#0x10
        JZ      ??CrossCallReturnLabel_12
//  288     if( !ledcontorl ){
        MOV     DPTR,#ledcontorl
        MOVX    A,@DPTR
        JNZ     ??CrossCallReturnLabel_12
//  289       abno_led ++;
        MOV     DPTR,#abno_led
        MOVX    A,@DPTR
        INC     A
        MOVX    @DPTR,A
//  290       if((abno_led) % 2 == 0)
        MOV     C,0xE0 /* A   */.0
        JC      ??zclOnOffLight_event_loop_15
//  291       {
//  292         LED_RED_OFF();
        CLR     0x90.7
        SJMP    ??zclOnOffLight_event_loop_16
//  293       }else{
//  294         LED_RED_ON();
??zclOnOffLight_event_loop_15:
        SETB    0x90.7
//  295       }
//  296       
//  297       if(abno_led >= 255)
??zclOnOffLight_event_loop_16:
        CPL     A
        JNZ     ??zclOnOffLight_event_loop_17
//  298         abno_led = 0;
        CLR     A
        MOVX    @DPTR,A
//  299       osal_start_timerEx(zclOnOffLight_TaskID, 
//  300                          ZCL_DEVICE_EXIT_NETWORK_EVENT,
//  301                          2000);
??zclOnOffLight_event_loop_17:
        ; Setup parameters for call to function osal_start_timerEx
        MOV     R4,#-0x30
        MOV     R5,#0x7
        MOV     R2,#0x0
        MOV     R3,#0x10
        LCALL   ??Subroutine7_0 & 0xFFFF
//  302     }
//  303   }
//  304   
//  305   if (events & ZCL_DEVICE_INIT_DONE_EVENT) {
??CrossCallReturnLabel_12:
        MOV     A,R6
        ANL     A,#0x8
        JZ      ??CrossCallReturnLabel_13
//  306     zclDevice_InitDone = 1;
        MOV     DPTR,#zclDevice_InitDone
        MOV     A,#0x1
        MOVX    @DPTR,A
//  307     LED_RED_OFF();
        CLR     0x90.7
//  308     zclLightControlTouchPanelEnable();
        ; Setup parameters for call to function zclLightControlTouchPanelEnable
        LCALL   ??zclLightControlTouchPanelEnable?relay
//  309     if( !ledcontorl ){
        MOV     DPTR,#ledcontorl
        MOVX    A,@DPTR
        JNZ     ??CrossCallReturnLabel_13
//  310       osal_start_timerEx(zclOnOffLight_TaskID,
//  311                          ZCL_DEVICE_EXIT_NETWORK_EVENT,
//  312                          1000);
        ; Setup parameters for call to function osal_start_timerEx
        MOV     R4,#-0x18
        MOV     R5,#0x3
        MOV     R2,#0x0
        MOV     R3,#0x10
        LCALL   ??Subroutine7_0 & 0xFFFF
//  313     }
//  314     //return (events ^ ZCL_DEVICE_INIT_DONE_EVENT);
//  315   }
//  316 
//  317   if (events & ZCL_DEVICE_INFO_SEND_EVENT) {
??CrossCallReturnLabel_13:
        MOV     A,R7
        ANL     A,#0x1
        JZ      ??zclOnOffLight_event_loop_18
//  318     zclSendDeviceInfo();
        ; Setup parameters for call to function zclSendDeviceInfo
        LCALL   ??zclSendDeviceInfo?relay
//  319   }
//  320   
//  321   if (events & ZCL_DEVICE_HEARTBEAT_EVENT) {
??zclOnOffLight_event_loop_18:
        MOV     A,?V0 + 1
        JZ      ??zclOnOffLight_event_loop_19
//  322     zclSendHeartbeat();
        ; Setup parameters for call to function zclSendHeartbeat
        LCALL   ??zclSendHeartbeat?relay
//  323   }
//  324   
//  325   if (events & ZCL_DEVICE_TOUCHPANEL_EVENT) {
??zclOnOffLight_event_loop_19:
        MOV     A,R6
        ANL     A,#0x10
        JZ      ??CrossCallReturnLabel_14
//  326     zclTouchPanelEvent();
        ; Setup parameters for call to function zclTouchPanelEvent
        LCALL   ??zclTouchPanelEvent?relay
//  327     if(g_u8restFlag == 0)
        MOV     DPTR,#g_u8restFlag
        MOVX    A,@DPTR
        JNZ     ??CrossCallReturnLabel_14
//  328     {
//  329       g_u8restFlag = 1;
        MOV     A,#0x1
        MOVX    @DPTR,A
//  330       osal_start_timerEx(zclOnOffLight_TaskID, 
//  331                          ZCL_DEVICE_RESET_EVENT,
//  332                          3000);
        ; Setup parameters for call to function osal_start_timerEx
        MOV     R4,#-0x48
        MOV     R5,#0xb
        MOV     R2,#0x0
        MOV     R3,#0x4
        LCALL   ??Subroutine7_0 & 0xFFFF
//  333     }
//  334     //return (events ^ ZCL_DEVICE_LIGHT0_TOUCHPANEL_EVENT);
//  335   }
//  336   if (events & ZCL_DEVICE_RESTORE_INTERRUPT_EVENT) {
??CrossCallReturnLabel_14:
        MOV     A,R6
        ANL     A,#0x20
        JZ      ??zclOnOffLight_event_loop_20
//  337     zclRestoreInterruptEvent();
        ; Setup parameters for call to function zclRestoreInterruptEvent
        LCALL   ??zclRestoreInterruptEvent?relay
//  338     //return (events ^ ZCL_DEVICE_LIGHT1_TOUCHPANEL_EVENT);
//  339   }
//  340   
//  341   if (events & ZCL_DEVICE_RESET_EVENT) {
??zclOnOffLight_event_loop_20:
        MOV     A,R7
        ANL     A,#0x4
        JZ      ??zclOnOffLight_event_loop_21
//  342     
//  343     zclFactoryResetEvent();
        ; Setup parameters for call to function zclFactoryResetEvent
        LCALL   ??zclFactoryResetEvent?relay
//  344   }
//  345   
//  346   if(events & ZCL_DEVICE_SOFT_RESTART_EVENT)
??zclOnOffLight_event_loop_21:
        MOV     A,R6
        ANL     A,#0x40
        JZ      ??CrossCallReturnLabel_9
//  347   {
//  348     if(zcl_Led_Blink >= 60)
        MOV     DPTR,#zcl_Led_Blink
        MOVX    A,@DPTR
        CLR     C
        SUBB    A,#0x3c
        JC      ??zclOnOffLight_event_loop_22
//  349     {
//  350       zclFactoryReset(TRUE);
        ; Setup parameters for call to function zclFactoryReset
        MOV     R1,#0x1
        LCALL   ??zclFactoryReset?relay
        SJMP    ??CrossCallReturnLabel_9
//  351     }
//  352     else
//  353     {
//  354       if(zcl_Led_Blink %2 == 0)
??zclOnOffLight_event_loop_22:
        MOVX    A,@DPTR
        MOV     C,0xE0 /* A   */.0
        JC      ??zclOnOffLight_event_loop_23
//  355       {
//  356         LED_RED_OFF();
        CLR     0x90.7
        SJMP    ??zclOnOffLight_event_loop_24
//  357       } else {
//  358         LED_RED_ON();
??zclOnOffLight_event_loop_23:
        SETB    0x90.7
//  359       }
//  360       zcl_Led_Blink++;
??zclOnOffLight_event_loop_24:
        INC     A
        MOVX    @DPTR,A
//  361       osal_start_timerEx(zclOnOffLight_TaskID, 
//  362                          ZCL_DEVICE_SOFT_RESTART_EVENT,
//  363                          ZCL_FACTORY_RESET_HINT);
        ; Setup parameters for call to function osal_start_timerEx
        MOV     R4,#-0x38
        MOV     R5,#0x0
        MOV     R2,#0x40
        LCALL   ??Subroutine6_0 & 0xFFFF
//  364     }
//  365   }
//  366   
//  367   // Discard unknown events
//  368   return 0;
??CrossCallReturnLabel_9:
        MOV     R2,#0x0
        MOV     R3,#0x0
??zclOnOffLight_event_loop_12:
        MOV     R7,#0x4
        LJMP    ?BANKED_LEAVE_XDATA
        CFI EndBlock cfiBlock2
        REQUIRE _A_P1
//  369 }

        RSEG BANKED_CODE:CODE:NOROOT(0)
?Subroutine1:
        CFI Block cfiCond3 Using cfiCommon0
        CFI NoFunction
        CFI Conditional ??CrossCallReturnLabel_0
        CFI R6 load(1, XDATA, add(CFA_XSP16, literal(-12)))
        CFI VB load(1, XDATA, add(CFA_XSP16, literal(-11)))
        CFI V0 load(1, XDATA, add(CFA_XSP16, literal(-10)))
        CFI V1 load(1, XDATA, add(CFA_XSP16, literal(-9)))
        CFI V2 load(1, XDATA, add(CFA_XSP16, literal(-8)))
        CFI V3 load(1, XDATA, add(CFA_XSP16, literal(-7)))
        CFI R7 load(1, XDATA, add(CFA_XSP16, literal(-6)))
        CFI ?RET_LOW load(1, XDATA, add(CFA_XSP16, literal(-5)))
        CFI ?RET_HIGH load(1, XDATA, add(CFA_XSP16, literal(-4)))
        CFI ?BRET_EXT load(1, XDATA, add(CFA_XSP16, literal(-3)))
        CFI DPL0 load(1, XDATA, add(CFA_XSP16, literal(-2)))
        CFI DPH0 load(1, XDATA, add(CFA_XSP16, literal(-1)))
        CFI CFA_SP SP+0
        CFI CFA_XSP16 add(XSP16, 12)
        CFI Block cfiCond4 Using cfiCommon0
        CFI (cfiCond4) NoFunction
        CFI (cfiCond4) Conditional ??CrossCallReturnLabel_1
        CFI (cfiCond4) R6 load(1, XDATA, add(CFA_XSP16, literal(-12)))
        CFI (cfiCond4) VB load(1, XDATA, add(CFA_XSP16, literal(-11)))
        CFI (cfiCond4) V0 load(1, XDATA, add(CFA_XSP16, literal(-10)))
        CFI (cfiCond4) V1 load(1, XDATA, add(CFA_XSP16, literal(-9)))
        CFI (cfiCond4) V2 load(1, XDATA, add(CFA_XSP16, literal(-8)))
        CFI (cfiCond4) V3 load(1, XDATA, add(CFA_XSP16, literal(-7)))
        CFI (cfiCond4) R7 load(1, XDATA, add(CFA_XSP16, literal(-6)))
        CFI (cfiCond4) ?RET_LOW load(1, XDATA, add(CFA_XSP16, literal(-5)))
        CFI (cfiCond4) ?RET_HIGH load(1, XDATA, add(CFA_XSP16, literal(-4)))
        CFI (cfiCond4) ?BRET_EXT load(1, XDATA, add(CFA_XSP16, literal(-3)))
        CFI (cfiCond4) DPL0 load(1, XDATA, add(CFA_XSP16, literal(-2)))
        CFI (cfiCond4) DPH0 load(1, XDATA, add(CFA_XSP16, literal(-1)))
        CFI (cfiCond4) CFA_SP SP+0
        CFI (cfiCond4) CFA_XSP16 add(XSP16, 12)
        CFI Block cfiPicker5 Using cfiCommon1
        CFI (cfiPicker5) NoFunction
        CFI (cfiPicker5) Picker
        LCALL   ?Subroutine4 & 0xFFFF
??CrossCallReturnLabel_3:
        MOV     R0,A
        INC     DPTR
        MOVX    A,@DPTR
        MOV     R1,A
        MOV     DPL,R0
        MOV     DPH,R1
        MOV     R0,#0x0
        MOVX    A,@DPTR
        MOV     R1,A
        RET
        CFI EndBlock cfiCond3
        CFI EndBlock cfiCond4
        CFI EndBlock cfiPicker5

        RSEG BANKED_CODE:CODE:NOROOT(0)
?Subroutine4:
        CFI Block cfiCond6 Using cfiCommon0
        CFI NoFunction
        CFI Conditional ??CrossCallReturnLabel_2
        CFI R6 load(1, XDATA, add(CFA_XSP16, literal(-12)))
        CFI VB load(1, XDATA, add(CFA_XSP16, literal(-11)))
        CFI V0 load(1, XDATA, add(CFA_XSP16, literal(-10)))
        CFI V1 load(1, XDATA, add(CFA_XSP16, literal(-9)))
        CFI V2 load(1, XDATA, add(CFA_XSP16, literal(-8)))
        CFI V3 load(1, XDATA, add(CFA_XSP16, literal(-7)))
        CFI R7 load(1, XDATA, add(CFA_XSP16, literal(-6)))
        CFI ?RET_LOW load(1, XDATA, add(CFA_XSP16, literal(-5)))
        CFI ?RET_HIGH load(1, XDATA, add(CFA_XSP16, literal(-4)))
        CFI ?BRET_EXT load(1, XDATA, add(CFA_XSP16, literal(-3)))
        CFI DPL0 load(1, XDATA, add(CFA_XSP16, literal(-2)))
        CFI DPH0 load(1, XDATA, add(CFA_XSP16, literal(-1)))
        CFI CFA_SP SP+0
        CFI CFA_XSP16 add(XSP16, 12)
        CFI Block cfiCond7 Using cfiCommon0
        CFI (cfiCond7) NoFunction
        CFI (cfiCond7) Conditional ??CrossCallReturnLabel_3, ??CrossCallReturnLabel_0
        CFI (cfiCond7) R6 load(1, XDATA, add(CFA_XSP16, literal(-12)))
        CFI (cfiCond7) VB load(1, XDATA, add(CFA_XSP16, literal(-11)))
        CFI (cfiCond7) V0 load(1, XDATA, add(CFA_XSP16, literal(-10)))
        CFI (cfiCond7) V1 load(1, XDATA, add(CFA_XSP16, literal(-9)))
        CFI (cfiCond7) V2 load(1, XDATA, add(CFA_XSP16, literal(-8)))
        CFI (cfiCond7) V3 load(1, XDATA, add(CFA_XSP16, literal(-7)))
        CFI (cfiCond7) R7 load(1, XDATA, add(CFA_XSP16, literal(-6)))
        CFI (cfiCond7) ?RET_LOW load(1, XDATA, add(CFA_XSP16, literal(-5)))
        CFI (cfiCond7) ?RET_HIGH load(1, XDATA, add(CFA_XSP16, literal(-4)))
        CFI (cfiCond7) ?BRET_EXT load(1, XDATA, add(CFA_XSP16, literal(-3)))
        CFI (cfiCond7) DPL0 load(1, XDATA, add(CFA_XSP16, literal(-2)))
        CFI (cfiCond7) DPH0 load(1, XDATA, add(CFA_XSP16, literal(-1)))
        CFI (cfiCond7) CFA_SP SP+0
        CFI (cfiCond7) CFA_XSP16 add(XSP16, 12)
        CFI Block cfiCond8 Using cfiCommon0
        CFI (cfiCond8) NoFunction
        CFI (cfiCond8) Conditional ??CrossCallReturnLabel_3, ??CrossCallReturnLabel_1
        CFI (cfiCond8) R6 load(1, XDATA, add(CFA_XSP16, literal(-12)))
        CFI (cfiCond8) VB load(1, XDATA, add(CFA_XSP16, literal(-11)))
        CFI (cfiCond8) V0 load(1, XDATA, add(CFA_XSP16, literal(-10)))
        CFI (cfiCond8) V1 load(1, XDATA, add(CFA_XSP16, literal(-9)))
        CFI (cfiCond8) V2 load(1, XDATA, add(CFA_XSP16, literal(-8)))
        CFI (cfiCond8) V3 load(1, XDATA, add(CFA_XSP16, literal(-7)))
        CFI (cfiCond8) R7 load(1, XDATA, add(CFA_XSP16, literal(-6)))
        CFI (cfiCond8) ?RET_LOW load(1, XDATA, add(CFA_XSP16, literal(-5)))
        CFI (cfiCond8) ?RET_HIGH load(1, XDATA, add(CFA_XSP16, literal(-4)))
        CFI (cfiCond8) ?BRET_EXT load(1, XDATA, add(CFA_XSP16, literal(-3)))
        CFI (cfiCond8) DPL0 load(1, XDATA, add(CFA_XSP16, literal(-2)))
        CFI (cfiCond8) DPH0 load(1, XDATA, add(CFA_XSP16, literal(-1)))
        CFI (cfiCond8) CFA_SP SP+0
        CFI (cfiCond8) CFA_XSP16 add(XSP16, 12)
        CFI Block cfiPicker9 Using cfiCommon1
        CFI (cfiPicker9) NoFunction
        CFI (cfiPicker9) Picker
        MOV     A,R2
        ADD     A,#0x17
        MOV     DPL,A
        MOV     A,R3
        ADDC    A,#0x0
        MOV     DPH,A
        MOVX    A,@DPTR
        RET
        CFI EndBlock cfiCond6
        CFI EndBlock cfiCond7
        CFI EndBlock cfiCond8
        CFI EndBlock cfiPicker9
//  370 
//  371 /*********************************************************************
//  372  * @fn      zclOnOffLight_HandleKeys
//  373  *
//  374  * @brief   Handles all key events for this device.
//  375  *
//  376  * @param   shift - true if in shift/alt.
//  377  * @param   keys - bit field for key events. Valid entries:
//  378  *                 HAL_KEY_SW_4
//  379  *                 HAL_KEY_SW_3
//  380  *                 HAL_KEY_SW_2
//  381  *                 HAL_KEY_SW_1
//  382  *
//  383  * @return  none
//  384  */
//  385 static void zclOnOffLight_HandleKeys( byte shift, byte keys )
//  386 {
//  387  // zAddrType_t dstAddr;
//  388   
//  389   (void)shift;  // Intentionally unreferenced parameter
//  390 
//  391   if ( keys & HAL_KEY_SW_2 )
//  392   {
//  393   }
//  394 
//  395   if ( keys & HAL_KEY_SW_3 )
//  396   {
//  397   }
//  398 
//  399   if ( keys & HAL_KEY_SW_4 )
//  400   {
//  401   }
//  402 }
//  403 
//  404 /*********************************************************************
//  405  * @fn      zclOnOffLight_ProcessIdentifyTimeChange
//  406  *
//  407  * @brief   Called to process any change to the IdentifyTime attribute.
//  408  *
//  409  * @param   none
//  410  *
//  411  * @return  none
//  412  */
//  413 static void zclOnOffLight_ProcessIdentifyTimeChange( void )
//  414 {
//  415   if ( zclOnOffLight_IdentifyTime > 0 )
//  416   {
//  417     osal_start_timerEx( zclOnOffLight_TaskID, ONOFFLIGHT_IDENTIFY_TIMEOUT_EVT, 1000 );
//  418   }
//  419   else
//  420   {
//  421     osal_stop_timerEx( zclOnOffLight_TaskID, ONOFFLIGHT_IDENTIFY_TIMEOUT_EVT );
//  422   }
//  423 }
//  424 
//  425 /*********************************************************************
//  426  * @fn      zclOnOffLight_BasicResetCB
//  427  *
//  428  * @brief   Callback from the ZCL General Cluster Library
//  429  *          to set all the Basic Cluster attributes to default values.
//  430  *
//  431  * @param   none
//  432  *
//  433  * @return  none
//  434  */

        RSEG BANKED_CODE:CODE:NOROOT(0)
//  435 static void zclOnOffLight_BasicResetCB( void )
zclOnOffLight_BasicResetCB:
        CFI Block cfiBlock10 Using cfiCommon0
        CFI Function zclOnOffLight_BasicResetCB
        CODE
//  436 {
        ; Saved register size: 0
        ; Auto size: 0
//  437   // Reset all attributes to default values
//  438 }
        LJMP    ?BRET
        CFI EndBlock cfiBlock10
//  439 
//  440 /*********************************************************************
//  441  * @fn      zclOnOffLight_IdentifyCB
//  442  *
//  443  * @brief   Callback from the ZCL General Cluster Library when
//  444  *          it received an Identity Command for this application.
//  445  *
//  446  * @param   srcAddr - source address and endpoint of the response message
//  447  * @param   identifyTime - the number of seconds to identify yourself
//  448  *
//  449  * @return  none
//  450  */

        RSEG BANKED_CODE:CODE:NOROOT(0)
//  451 static void zclOnOffLight_IdentifyCB( zclIdentify_t *pCmd )
zclOnOffLight_IdentifyCB:
        CFI Block cfiBlock11 Using cfiCommon0
        CFI Function zclOnOffLight_IdentifyCB
        CODE
//  452 {
        FUNCALL zclOnOffLight_IdentifyCB, osal_start_timerEx
        LOCFRAME ISTACK, 2, STACK
        LOCFRAME PSTACK, 0, STACK
        LOCFRAME XSTACK, 0, STACK
        LOCFRAME IOVERLAY, 0, STATIC
        LOCFRAME DOVERLAY, 0, STATIC
        ARGFRAME ISTACK, 2, STACK
        ARGFRAME PSTACK, 0, STACK
        ARGFRAME XSTACK, 0, STACK
        ARGFRAME IOVERLAY, 0, STATIC
        ARGFRAME DOVERLAY, 0, STATIC
        FUNCALL zclOnOffLight_IdentifyCB, osal_stop_timerEx
        LOCFRAME ISTACK, 2, STACK
        LOCFRAME PSTACK, 0, STACK
        LOCFRAME XSTACK, 0, STACK
        LOCFRAME IOVERLAY, 0, STATIC
        LOCFRAME DOVERLAY, 0, STATIC
        ARGFRAME ISTACK, 2, STACK
        ARGFRAME PSTACK, 0, STACK
        ARGFRAME XSTACK, 0, STACK
        ARGFRAME IOVERLAY, 0, STATIC
        ARGFRAME DOVERLAY, 0, STATIC
        PUSH    DPL
        CFI DPL0 Frame(CFA_SP, 4)
        CFI CFA_SP SP+-4
        PUSH    DPH
        CFI DPH0 Frame(CFA_SP, 5)
        CFI CFA_SP SP+-5
        ; Saved register size: 2
        ; Auto size: 0
//  453   zclOnOffLight_IdentifyTime = pCmd->identifyTime;
        MOV     DPL,R2
        MOV     DPH,R3
        INC     DPTR
        INC     DPTR
        LCALL   ??Subroutine5_0 & 0xFFFF
??CrossCallReturnLabel_5:
        MOV     DPTR,#zclOnOffLight_IdentifyTime
        MOV     A,R0
        MOVX    @DPTR,A
        INC     DPTR
        MOV     A,R1
        MOVX    @DPTR,A
//  454   zclOnOffLight_ProcessIdentifyTimeChange();
        MOV     A,R0
        ORL     A,R1
        JZ      ??zclOnOffLight_IdentifyCB_0
        ; Setup parameters for call to function osal_start_timerEx
        LCALL   ?Subroutine2 & 0xFFFF
??CrossCallReturnLabel_8:
        SJMP    ??zclOnOffLight_IdentifyCB_1
??zclOnOffLight_IdentifyCB_0:
        ; Setup parameters for call to function osal_stop_timerEx
        MOV     R2,#0x1
        MOV     R3,#0x0
        MOV     DPTR,#zclOnOffLight_TaskID
        MOVX    A,@DPTR
        MOV     R1,A
        LCALL   ??osal_stop_timerEx?relay
//  455 }
??zclOnOffLight_IdentifyCB_1:
        POP     DPH
        CFI DPH0 SameValue
        CFI CFA_SP SP+-4
        POP     DPL
        CFI DPL0 SameValue
        CFI CFA_SP SP+-3
        LJMP    ?BRET
        CFI EndBlock cfiBlock11

        RSEG BANKED_CODE:CODE:NOROOT(0)
?Subroutine3:
        CFI Block cfiCond12 Using cfiCommon0
        CFI NoFunction
        CFI Conditional ??CrossCallReturnLabel_6
        CFI R6 load(1, XDATA, add(CFA_XSP16, literal(-10)))
        CFI VB load(1, XDATA, add(CFA_XSP16, literal(-9)))
        CFI V0 load(1, XDATA, add(CFA_XSP16, literal(-8)))
        CFI V1 load(1, XDATA, add(CFA_XSP16, literal(-7)))
        CFI R7 load(1, XDATA, add(CFA_XSP16, literal(-6)))
        CFI ?RET_LOW load(1, XDATA, add(CFA_XSP16, literal(-5)))
        CFI ?RET_HIGH load(1, XDATA, add(CFA_XSP16, literal(-4)))
        CFI ?BRET_EXT load(1, XDATA, add(CFA_XSP16, literal(-3)))
        CFI DPL0 load(1, XDATA, add(CFA_XSP16, literal(-2)))
        CFI DPH0 load(1, XDATA, add(CFA_XSP16, literal(-1)))
        CFI CFA_SP SP+0
        CFI CFA_XSP16 add(XSP16, 10)
        CFI Block cfiCond13 Using cfiCommon0
        CFI (cfiCond13) NoFunction
        CFI (cfiCond13) Conditional ??CrossCallReturnLabel_7
        CFI (cfiCond13) R6 load(1, XDATA, add(CFA_XSP16, literal(-10)))
        CFI (cfiCond13) VB load(1, XDATA, add(CFA_XSP16, literal(-9)))
        CFI (cfiCond13) V0 load(1, XDATA, add(CFA_XSP16, literal(-8)))
        CFI (cfiCond13) V1 load(1, XDATA, add(CFA_XSP16, literal(-7)))
        CFI (cfiCond13) R7 load(1, XDATA, add(CFA_XSP16, literal(-6)))
        CFI (cfiCond13) ?RET_LOW load(1, XDATA, add(CFA_XSP16, literal(-5)))
        CFI (cfiCond13) ?RET_HIGH load(1, XDATA, add(CFA_XSP16, literal(-4)))
        CFI (cfiCond13) ?BRET_EXT load(1, XDATA, add(CFA_XSP16, literal(-3)))
        CFI (cfiCond13) DPL0 load(1, XDATA, add(CFA_XSP16, literal(-2)))
        CFI (cfiCond13) DPH0 load(1, XDATA, add(CFA_XSP16, literal(-1)))
        CFI (cfiCond13) CFA_SP SP+0
        CFI (cfiCond13) CFA_XSP16 add(XSP16, 10)
        CFI Block cfiPicker14 Using cfiCommon1
        CFI (cfiPicker14) NoFunction
        CFI (cfiPicker14) Picker
        MOV     R3,A
        MOV     DPL,R2
        MOV     DPH,R3
        CFI EndBlock cfiCond12
        CFI EndBlock cfiCond13
        CFI EndBlock cfiPicker14
        REQUIRE ??Subroutine5_0
        ; // Fall through to label ??Subroutine5_0

        RSEG BANKED_CODE:CODE:NOROOT(0)
??Subroutine5_0:
        CFI Block cfiCond15 Using cfiCommon0
        CFI NoFunction
        CFI Conditional ??CrossCallReturnLabel_4
        CFI R6 load(1, XDATA, add(CFA_XSP16, literal(-12)))
        CFI VB load(1, XDATA, add(CFA_XSP16, literal(-11)))
        CFI V0 load(1, XDATA, add(CFA_XSP16, literal(-10)))
        CFI V1 load(1, XDATA, add(CFA_XSP16, literal(-9)))
        CFI V2 load(1, XDATA, add(CFA_XSP16, literal(-8)))
        CFI V3 load(1, XDATA, add(CFA_XSP16, literal(-7)))
        CFI R7 load(1, XDATA, add(CFA_XSP16, literal(-6)))
        CFI ?RET_LOW load(1, XDATA, add(CFA_XSP16, literal(-5)))
        CFI ?RET_HIGH load(1, XDATA, add(CFA_XSP16, literal(-4)))
        CFI ?BRET_EXT load(1, XDATA, add(CFA_XSP16, literal(-3)))
        CFI DPL0 load(1, XDATA, add(CFA_XSP16, literal(-2)))
        CFI DPH0 load(1, XDATA, add(CFA_XSP16, literal(-1)))
        CFI CFA_SP SP+0
        CFI CFA_XSP16 add(XSP16, 12)
        CFI Block cfiCond16 Using cfiCommon0
        CFI (cfiCond16) NoFunction
        CFI (cfiCond16) Conditional ??CrossCallReturnLabel_5
        CFI (cfiCond16) DPL0 Frame(CFA_SP, 4)
        CFI (cfiCond16) DPH0 Frame(CFA_SP, 5)
        CFI (cfiCond16) CFA_SP SP+-5
        CFI Block cfiCond17 Using cfiCommon0
        CFI (cfiCond17) NoFunction
        CFI (cfiCond17) Conditional ??CrossCallReturnLabel_6
        CFI (cfiCond17) R6 load(1, XDATA, add(CFA_XSP16, literal(-10)))
        CFI (cfiCond17) VB load(1, XDATA, add(CFA_XSP16, literal(-9)))
        CFI (cfiCond17) V0 load(1, XDATA, add(CFA_XSP16, literal(-8)))
        CFI (cfiCond17) V1 load(1, XDATA, add(CFA_XSP16, literal(-7)))
        CFI (cfiCond17) R7 load(1, XDATA, add(CFA_XSP16, literal(-6)))
        CFI (cfiCond17) ?RET_LOW load(1, XDATA, add(CFA_XSP16, literal(-5)))
        CFI (cfiCond17) ?RET_HIGH load(1, XDATA, add(CFA_XSP16, literal(-4)))
        CFI (cfiCond17) ?BRET_EXT load(1, XDATA, add(CFA_XSP16, literal(-3)))
        CFI (cfiCond17) DPL0 load(1, XDATA, add(CFA_XSP16, literal(-2)))
        CFI (cfiCond17) DPH0 load(1, XDATA, add(CFA_XSP16, literal(-1)))
        CFI (cfiCond17) CFA_SP SP+0
        CFI (cfiCond17) CFA_XSP16 add(XSP16, 10)
        CFI Block cfiCond18 Using cfiCommon0
        CFI (cfiCond18) NoFunction
        CFI (cfiCond18) Conditional ??CrossCallReturnLabel_7
        CFI (cfiCond18) R6 load(1, XDATA, add(CFA_XSP16, literal(-10)))
        CFI (cfiCond18) VB load(1, XDATA, add(CFA_XSP16, literal(-9)))
        CFI (cfiCond18) V0 load(1, XDATA, add(CFA_XSP16, literal(-8)))
        CFI (cfiCond18) V1 load(1, XDATA, add(CFA_XSP16, literal(-7)))
        CFI (cfiCond18) R7 load(1, XDATA, add(CFA_XSP16, literal(-6)))
        CFI (cfiCond18) ?RET_LOW load(1, XDATA, add(CFA_XSP16, literal(-5)))
        CFI (cfiCond18) ?RET_HIGH load(1, XDATA, add(CFA_XSP16, literal(-4)))
        CFI (cfiCond18) ?BRET_EXT load(1, XDATA, add(CFA_XSP16, literal(-3)))
        CFI (cfiCond18) DPL0 load(1, XDATA, add(CFA_XSP16, literal(-2)))
        CFI (cfiCond18) DPH0 load(1, XDATA, add(CFA_XSP16, literal(-1)))
        CFI (cfiCond18) CFA_SP SP+0
        CFI (cfiCond18) CFA_XSP16 add(XSP16, 10)
        CFI Block cfiPicker19 Using cfiCommon1
        CFI (cfiPicker19) NoFunction
        CFI (cfiPicker19) Picker
        MOVX    A,@DPTR
        MOV     R0,A
        INC     DPTR
        MOVX    A,@DPTR
        MOV     R1,A
        RET
        CFI EndBlock cfiCond15
        CFI EndBlock cfiCond16
        CFI EndBlock cfiCond17
        CFI EndBlock cfiCond18
        CFI EndBlock cfiPicker19
//  456 
//  457 /*********************************************************************
//  458  * @fn      zclOnOffLight_IdentifyQueryRspCB
//  459  *
//  460  * @brief   Callback from the ZCL General Cluster Library when
//  461  *          it received an Identity Query Response Command for this application.
//  462  *
//  463  * @param   srcAddr - requestor's address
//  464  * @param   timeout - number of seconds to identify yourself (valid for query response)
//  465  *
//  466  * @return  none
//  467  */

        RSEG BANKED_CODE:CODE:NOROOT(0)
//  468 static void zclOnOffLight_IdentifyQueryRspCB(  zclIdentifyQueryRsp_t *pRsp )
zclOnOffLight_IdentifyQueryRspCB:
        CFI Block cfiBlock20 Using cfiCommon0
        CFI Function zclOnOffLight_IdentifyQueryRspCB
        CODE
//  469 {
        ; Saved register size: 0
        ; Auto size: 0
//  470   // Query Response (with timeout value)
//  471   (void)pRsp;
//  472 }
        LJMP    ?BRET
        CFI EndBlock cfiBlock20
//  473 
//  474 

        RSEG BANKED_CODE:CODE:NOROOT(0)
//  475 static void zclOnOffLight0_OnOffCB(uint8 cmd )
zclOnOffLight0_OnOffCB:
        CFI Block cfiBlock21 Using cfiCommon0
        CFI Function zclOnOffLight0_OnOffCB
        CODE
//  476 {
        FUNCALL zclOnOffLight0_OnOffCB, zclLightReportEvent
        LOCFRAME ISTACK, 0, STACK
        LOCFRAME PSTACK, 0, STACK
        LOCFRAME XSTACK, 9, STACK
        LOCFRAME IOVERLAY, 0, STATIC
        LOCFRAME DOVERLAY, 0, STATIC
        ARGFRAME ISTACK, 0, STACK
        ARGFRAME PSTACK, 0, STACK
        ARGFRAME XSTACK, 9, STACK
        ARGFRAME IOVERLAY, 0, STATIC
        ARGFRAME DOVERLAY, 0, STATIC
        MOV     A,#-0x9
        LCALL   ?BANKED_ENTER_XDATA
        CFI DPH0 load(1, XDATA, add(CFA_XSP16, literal(-1)))
        CFI DPL0 load(1, XDATA, add(CFA_XSP16, literal(-2)))
        CFI ?BRET_EXT load(1, XDATA, add(CFA_XSP16, literal(-3)))
        CFI ?RET_HIGH load(1, XDATA, add(CFA_XSP16, literal(-4)))
        CFI ?RET_LOW load(1, XDATA, add(CFA_XSP16, literal(-5)))
        CFI R7 load(1, XDATA, add(CFA_XSP16, literal(-6)))
        CFI V0 load(1, XDATA, add(CFA_XSP16, literal(-7)))
        CFI VB load(1, XDATA, add(CFA_XSP16, literal(-8)))
        CFI R6 load(1, XDATA, add(CFA_XSP16, literal(-9)))
        CFI CFA_SP SP+0
        CFI CFA_XSP16 add(XSP16, 9)
        ; Saved register size: 9
        ; Auto size: 0
        MOV     A,R1
        MOV     R6,A
//  477   zclOnOffLight_OnOffCB(0, cmd);
        MOV     A,#0x1
        XRL     A,R6
        JZ      ??zclOnOffLight0_OnOffCB_0
        MOV     A,R6
        JZ      ??zclOnOffLight0_OnOffCB_1
        MOV     DPTR,#zclOnOffLight0_OnOff
        MOVX    A,@DPTR
        JZ      ??zclOnOffLight0_OnOffCB_0
??zclOnOffLight0_OnOffCB_1:
        MOV     DPTR,#zclOnOffLight0_OnOff
        CLR     A
        MOVX    @DPTR,A
        CLR     0x90.4
        SJMP    ??zclOnOffLight0_OnOffCB_2
??zclOnOffLight0_OnOffCB_0:
        MOV     DPTR,#zclOnOffLight0_OnOff
        MOV     A,#0x1
        MOVX    @DPTR,A
        SETB    0x90.4
??zclOnOffLight0_OnOffCB_2:
        ; Setup parameters for call to function zclLightReportEvent
        MOV     R4,#zclOnOffLight0_OnOff & 0xff
        MOV     R5,#(zclOnOffLight0_OnOff >> 8) & 0xff
        MOV     R2,#0x10
        MOV     R3,#0x0
        LCALL   ??zclLightReportEvent?relay
//  478 }
        LJMP    ?Subroutine0 & 0xFFFF
        CFI EndBlock cfiBlock21
        REQUIRE _A_P1
//  479 /*********************************************************************
//  480  * @fn      zclOnOffLight_OnOffCB
//  481  *
//  482  * @brief   Callback from the ZCL General Cluster Library when
//  483  *          it received an On/Off Command for this application.
//  484  *
//  485  * @param   cmd - COMMAND_ON, COMMAND_OFF or COMMAND_TOGGLE
//  486  *
//  487  * @return  none
//  488  */
//  489 static void zclOnOffLight_OnOffCB(uint8 light, uint8 cmd )
//  490 {
//  491   uint8 *zclOnOffLight_OnOff;
//  492   
//  493   if (light == 0)
//  494     zclOnOffLight_OnOff = &zclOnOffLight0_OnOff;
//  495 
//  496   if ( cmd == COMMAND_ON ) {
//  497     *zclOnOffLight_OnOff = LIGHT_ON;
//  498   } else if ( cmd == COMMAND_OFF ) {
//  499     *zclOnOffLight_OnOff = LIGHT_OFF;
//  500   } else {
//  501     if ( *zclOnOffLight_OnOff == LIGHT_OFF )
//  502       *zclOnOffLight_OnOff = LIGHT_ON;
//  503     else
//  504       *zclOnOffLight_OnOff = LIGHT_OFF;
//  505   }
//  506 
//  507   if ( *zclOnOffLight_OnOff == LIGHT_ON ) {
//  508     if (light == 0)
//  509       LIGHT_TURN_ON_LIGHT0();
//  510   } else {
//  511     if (light == 0)
//  512       LIGHT_TURN_OFF_LIGHT0();
//  513   }
//  514   
//  515   if (light == 0) {
//  516     zclLightReportEvent(ONOFFLIGHT0_ENDPOINT, &zclOnOffLight0_OnOff);
//  517   } 
//  518 }
//  519 
//  520 /****************************************************************************** 
//  521  * 
//  522  *  Functions for processing ZCL Foundation incoming Command/Response messages
//  523  *
//  524  *****************************************************************************/
//  525 
//  526 /*********************************************************************
//  527  * @fn      zclOnOffLight_ProcessIncomingMsg
//  528  *
//  529  * @brief   Process ZCL Foundation incoming message
//  530  *
//  531  * @param   pInMsg - pointer to the received message
//  532  *
//  533  * @return  none
//  534  */
//  535 static void zclOnOffLight_ProcessIncomingMsg( zclIncomingMsg_t *pInMsg)
//  536 {
//  537  
//  538   switch ( pInMsg->zclHdr.commandID )
//  539   {
//  540 #ifdef ZCL_READ
//  541     case ZCL_CMD_READ_RSP:
//  542       zclOnOffLight_ProcessInReadRspCmd( pInMsg );
//  543       break;
//  544 #endif
//  545 #ifdef ZCL_WRITE    
//  546     case ZCL_CMD_WRITE_RSP:
//  547       zclOnOffLight_ProcessInWriteRspCmd( pInMsg );
//  548       break;
//  549 #endif
//  550 #ifdef ZCL_REPORT
//  551     // See ZCL Test Applicaiton (zcl_testapp.c) for sample code on Attribute Reporting
//  552     case ZCL_CMD_CONFIG_REPORT:
//  553       //zclOnOffLight_ProcessInConfigReportCmd( pInMsg );
//  554       break;
//  555     
//  556     case ZCL_CMD_CONFIG_REPORT_RSP:
//  557       //zclOnOffLight_ProcessInConfigReportRspCmd( pInMsg );
//  558       break;
//  559     
//  560     case ZCL_CMD_READ_REPORT_CFG:
//  561       //zclOnOffLight_ProcessInReadReportCfgCmd( pInMsg );
//  562       break;
//  563     
//  564     case ZCL_CMD_READ_REPORT_CFG_RSP:
//  565       //zclOnOffLight_ProcessInReadReportCfgRspCmd( pInMsg );
//  566       break;
//  567     
//  568     case ZCL_CMD_REPORT:
//  569       //zclOnOffLight_ProcessInReportCmd( pInMsg );
//  570       break;
//  571 #endif   
//  572     case ZCL_CMD_DEFAULT_RSP:
//  573       zclOnOffLight_ProcessInDefaultRspCmd( pInMsg );
//  574       break;
//  575 #ifdef ZCL_DISCOVER     
//  576     case ZCL_CMD_DISCOVER_RSP:
//  577       zclOnOffLight_ProcessInDiscRspCmd( pInMsg );
//  578       break;
//  579 #endif  
//  580     default:
//  581       break;
//  582   }
//  583   
//  584   if ( pInMsg->attrCmd )
//  585     osal_mem_free( pInMsg->attrCmd );
//  586 }
//  587 
//  588 #ifdef ZCL_READ
//  589 /*********************************************************************
//  590  * @fn      zclOnOffLight_ProcessInReadRspCmd
//  591  *
//  592  * @brief   Process the "Profile" Read Response Command
//  593  *
//  594  * @param   pInMsg - incoming message to process
//  595  *
//  596  * @return  none
//  597  */
//  598 static uint8 zclOnOffLight_ProcessInReadRspCmd( zclIncomingMsg_t *pInMsg )
//  599 {
//  600   zclReadRspCmd_t *readRspCmd;
//  601   uint8 i;
//  602 
//  603   readRspCmd = (zclReadRspCmd_t *)pInMsg->attrCmd;
//  604   for (i = 0; i < readRspCmd->numAttr; i++)
//  605   {
//  606     // Notify the originator of the results of the original read attributes 
//  607     // attempt and, for each successfull request, the value of the requested 
//  608     // attribute
//  609   }
//  610 
//  611   return TRUE; 
//  612 }
//  613 #endif // ZCL_READ
//  614 
//  615 #ifdef ZCL_WRITE
//  616 /*********************************************************************
//  617  * @fn      zclOnOffLight_ProcessInWriteRspCmd
//  618  *
//  619  * @brief   Process the "Profile" Write Response Command
//  620  *
//  621  * @param   pInMsg - incoming message to process
//  622  *
//  623  * @return  none
//  624  */
//  625 static uint8 zclOnOffLight_ProcessInWriteRspCmd( zclIncomingMsg_t *pInMsg )
//  626 {
//  627   zclWriteRspCmd_t *writeRspCmd;
//  628   uint8 i;
//  629 
//  630   writeRspCmd = (zclWriteRspCmd_t *)pInMsg->attrCmd;
//  631   for (i = 0; i < writeRspCmd->numAttr; i++)
//  632   {
//  633     // Notify the device of the results of the its original write attributes
//  634     // command.
//  635   }
//  636 
//  637   return TRUE; 
//  638 }
//  639 #endif // ZCL_WRITE
//  640 
//  641 /*********************************************************************
//  642  * @fn      zclOnOffLight_ProcessInDefaultRspCmd
//  643  *
//  644  * @brief   Process the "Profile" Default Response Command
//  645  *
//  646  * @param   pInMsg - incoming message to process
//  647  *
//  648  * @return  none
//  649  */
//  650 static uint8 zclOnOffLight_ProcessInDefaultRspCmd( zclIncomingMsg_t *pInMsg )
//  651 {
//  652   // zclDefaultRspCmd_t *defaultRspCmd = (zclDefaultRspCmd_t *)pInMsg->attrCmd;
//  653    
//  654   // Device is notified of the Default Response command.
//  655   (void)pInMsg;
//  656   
//  657   return TRUE; 
//  658 }
//  659 
//  660 #ifdef ZCL_DISCOVER
//  661 /*********************************************************************
//  662  * @fn      zclOnOffLight_ProcessInDiscRspCmd
//  663  *
//  664  * @brief   Process the "Profile" Discover Response Command
//  665  *
//  666  * @param   pInMsg - incoming message to process
//  667  *
//  668  * @return  none
//  669  */
//  670 static uint8 zclOnOffLight_ProcessInDiscRspCmd( zclIncomingMsg_t *pInMsg )
//  671 {
//  672   zclDiscoverRspCmd_t *discoverRspCmd;
//  673   uint8 i;
//  674   
//  675   discoverRspCmd = (zclDiscoverRspCmd_t *)pInMsg->attrCmd;
//  676   for ( i = 0; i < discoverRspCmd->numAttr; i++ )
//  677   {
//  678     // Device is notified of the result of its attribute discovery command.
//  679   }
//  680   
//  681   return TRUE;
//  682 }
//  683 #endif // ZCL_DISCOVER
//  684 
//  685 
//  686 /****************************************************************************
//  687 ****************************************************************************/
//  688 
//  689 
//  690 /***************************************************************************
//  691 *****************************************************************************/

        RSEG BANKED_CODE:CODE:NOROOT(0)
//  692 void Device_App_MessageMSGCB(afIncomingMSGPacket_t *pkt)
Device_App_MessageMSGCB:
        CFI Block cfiBlock22 Using cfiCommon0
        CFI Function Device_App_MessageMSGCB
        CODE
//  693 {
        FUNCALL Device_App_MessageMSGCB, NLME_PermitJoiningRequest
        LOCFRAME ISTACK, 0, STACK
        LOCFRAME PSTACK, 0, STACK
        LOCFRAME XSTACK, 10, STACK
        LOCFRAME IOVERLAY, 0, STATIC
        LOCFRAME DOVERLAY, 0, STATIC
        ARGFRAME ISTACK, 0, STACK
        ARGFRAME PSTACK, 0, STACK
        ARGFRAME XSTACK, 10, STACK
        ARGFRAME IOVERLAY, 0, STATIC
        ARGFRAME DOVERLAY, 0, STATIC
        FUNCALL Device_App_MessageMSGCB, osal_rand
        LOCFRAME ISTACK, 0, STACK
        LOCFRAME PSTACK, 0, STACK
        LOCFRAME XSTACK, 10, STACK
        LOCFRAME IOVERLAY, 0, STATIC
        LOCFRAME DOVERLAY, 0, STATIC
        ARGFRAME ISTACK, 0, STACK
        ARGFRAME PSTACK, 0, STACK
        ARGFRAME XSTACK, 10, STACK
        ARGFRAME IOVERLAY, 0, STATIC
        ARGFRAME DOVERLAY, 0, STATIC
        FUNCALL Device_App_MessageMSGCB, osal_start_timerEx
        LOCFRAME ISTACK, 0, STACK
        LOCFRAME PSTACK, 0, STACK
        LOCFRAME XSTACK, 10, STACK
        LOCFRAME IOVERLAY, 0, STATIC
        LOCFRAME DOVERLAY, 0, STATIC
        ARGFRAME ISTACK, 0, STACK
        ARGFRAME PSTACK, 0, STACK
        ARGFRAME XSTACK, 10, STACK
        ARGFRAME IOVERLAY, 0, STATIC
        ARGFRAME DOVERLAY, 0, STATIC
        MOV     A,#-0xa
        LCALL   ?BANKED_ENTER_XDATA
        CFI DPH0 load(1, XDATA, add(CFA_XSP16, literal(-1)))
        CFI DPL0 load(1, XDATA, add(CFA_XSP16, literal(-2)))
        CFI ?BRET_EXT load(1, XDATA, add(CFA_XSP16, literal(-3)))
        CFI ?RET_HIGH load(1, XDATA, add(CFA_XSP16, literal(-4)))
        CFI ?RET_LOW load(1, XDATA, add(CFA_XSP16, literal(-5)))
        CFI R7 load(1, XDATA, add(CFA_XSP16, literal(-6)))
        CFI V1 load(1, XDATA, add(CFA_XSP16, literal(-7)))
        CFI V0 load(1, XDATA, add(CFA_XSP16, literal(-8)))
        CFI VB load(1, XDATA, add(CFA_XSP16, literal(-9)))
        CFI R6 load(1, XDATA, add(CFA_XSP16, literal(-10)))
        CFI CFA_SP SP+0
        CFI CFA_XSP16 add(XSP16, 10)
        ; Saved register size: 10
        ; Auto size: 0
//  694   switch(pkt->clusterId)
        MOV     DPL,R2
        MOV     DPH,R3
        INC     DPTR
        INC     DPTR
        INC     DPTR
        INC     DPTR
        MOVX    A,@DPTR
        MOV     ?V0 + 0,A
        INC     DPTR
        MOVX    A,@DPTR
        MOV     ?V0 + 1,A
        MOV     R0,#?V0 + 0
        LCALL   ?US_SWITCH_SPARSE
`?<Jumptable for Device_App_MessageMSGCB>_0`:
        DATA
        DATA16
        DATA
        DATA16
        DATA
        DATA16
        DW        0
        DATA
        DATA16
        DATA
        DATA16
        DATA
        DATA16
        DW        2
        DATA
        DATA16
        DATA
        DATA16
        DATA
        DATA16
        DW        6
        DATA
        DATA16
        DATA
        DATA16
        DATA
        DATA16
        DW        ??Device_App_MessageMSGCB_0
        DATA
        DATA16
        DATA
        DATA16
        DATA
        DATA16
        DW        2304
        DATA
        DATA16
        DATA
        DATA16
        DATA
        DATA16
        DW        ??Device_App_MessageMSGCB_1
        DATA
        DATA16
        DATA
        DATA16
        DW        ??CrossCallReturnLabel_10
        CODE
//  695   {
//  696   case ZCL_CLUSTER_ID_PREMIT_JOIN_ZB_NET:
//  697     if(pkt->cmd.Data[0] == 0xFF)
??Device_App_MessageMSGCB_1:
        MOV     A,R2
        ADD     A,#0x22
        MOV     R2,A
        MOV     A,R3
        ADDC    A,#0x0
        LCALL   ?Subroutine3 & 0xFFFF
??CrossCallReturnLabel_6:
        MOV     DPL,R0
        MOV     DPH,R1
        MOVX    A,@DPTR
        CPL     A
        JNZ     ??Device_App_MessageMSGCB_2
//  698     {
//  699       pkt->cmd.Data[0] = 120;            //pkt->cmd.Data[0] = 60;
        MOV     A,#0x78
        MOVX    @DPTR,A
//  700     }
//  701     NLME_PermitJoiningRequest(pkt->cmd.Data[0]);
??Device_App_MessageMSGCB_2:
        ; Setup parameters for call to function NLME_PermitJoiningRequest
        MOV     DPL,R2
        MOV     DPH,R3
        MOVX    A,@DPTR
        MOV     R0,A
        INC     DPTR
        MOVX    A,@DPTR
        MOV     DPH,A
        MOV     DPL,R0
        MOVX    A,@DPTR
        MOV     R1,A
        LCALL   ??NLME_PermitJoiningRequest?relay
//  702     break;
        SJMP    ??CrossCallReturnLabel_10
//  703     
//  704   case ZCL_CLUSTER_ID_GEN_ON_OFF:
//  705     {
//  706       if(pkt->cmd.Data[3]== DEVICE_All || pkt->cmd.Data[3]== DEVICE_LIGHT)
??Device_App_MessageMSGCB_0:
        MOV     A,R2
        ADD     A,#0x22
        MOV     R0,A
        MOV     A,R3
        ADDC    A,#0x0
        MOV     R1,A
        MOV     A,R0
        MOV     R2,A
        MOV     A,R1
        LCALL   ?Subroutine3 & 0xFFFF
??CrossCallReturnLabel_7:
        MOV     A,R0
        ADD     A,#0x3
        MOV     DPL,A
        MOV     A,R1
        ADDC    A,#0x0
        MOV     DPH,A
        MOVX    A,@DPTR
        JZ      ??Device_App_MessageMSGCB_3
        XRL     A,#0x1
        JNZ     ??CrossCallReturnLabel_10
//  707       {
//  708         if(pkt->cmd.Data[2] == COMMAND_ON)
??Device_App_MessageMSGCB_3:
        MOV     A,R0
        ADD     A,#0x2
        MOV     DPL,A
        MOV     A,R1
        ADDC    A,#0x0
        MOV     DPH,A
        MOVX    A,@DPTR
        XRL     A,#0x1
        JNZ     ??Device_App_MessageMSGCB_4
//  709         {
//  710           LIGHT_TURN_ON_LIGHT0();
        SETB    0x90.4
        SJMP    ??Device_App_MessageMSGCB_5
//  711          
//  712         }
//  713         else if(pkt->cmd.Data[2] == COMMAND_OFF)
??Device_App_MessageMSGCB_4:
        MOVX    A,@DPTR
        JNZ     ??Device_App_MessageMSGCB_5
//  714         {
//  715           LIGHT_TURN_OFF_LIGHT0();
        CLR     0x90.4
//  716        
//  717         }
//  718         zclOnOffLight0_OnOff = pkt->cmd.Data[2];
??Device_App_MessageMSGCB_5:
        MOV     DPL,R2
        MOV     DPH,R3
        INC     DPTR
        MOVX    A,@DPTR
        MOV     DPH,A
        MOV     DPL,R0
        INC     DPTR
        INC     DPTR
        MOVX    A,@DPTR
        MOV     DPTR,#zclOnOffLight0_OnOff
        MOVX    @DPTR,A
//  719         
//  720         osal_start_timerEx(zclOnOffLight_TaskID, 
//  721                            ZCL_DEVICE_SEND_ONOFF_STATE_EVENT,
//  722                            ZCL_DEVICE_SEND_INFO_TIME_3S);
        ; Setup parameters for call to function osal_rand
        LCALL   ??osal_rand?relay
        ; Setup parameters for call to function osal_start_timerEx
        MOV     A,R2
        ADD     A,#-0x48
        MOV     R4,A
        CLR     A
        ADDC    A,#0xb
        MOV     R5,A
        MOV     R2,#0x2
        LCALL   ??Subroutine6_0 & 0xFFFF
//  723       }
//  724     }
//  725     break;
//  726     
//  727   default:
//  728     break;
//  729   }
//  730 
//  731 }
??CrossCallReturnLabel_10:
        MOV     R7,#0x2
        LJMP    ?BANKED_LEAVE_XDATA
        CFI EndBlock cfiBlock22
        REQUIRE _A_P1

        RSEG BANKED_CODE:CODE:NOROOT(0)
?Subroutine2:
        CFI Block cfiCond23 Using cfiCommon0
        CFI NoFunction
        CFI Conditional ??CrossCallReturnLabel_15
        CFI R6 load(1, XDATA, add(CFA_XSP16, literal(-12)))
        CFI VB load(1, XDATA, add(CFA_XSP16, literal(-11)))
        CFI V0 load(1, XDATA, add(CFA_XSP16, literal(-10)))
        CFI V1 load(1, XDATA, add(CFA_XSP16, literal(-9)))
        CFI V2 load(1, XDATA, add(CFA_XSP16, literal(-8)))
        CFI V3 load(1, XDATA, add(CFA_XSP16, literal(-7)))
        CFI R7 load(1, XDATA, add(CFA_XSP16, literal(-6)))
        CFI ?RET_LOW load(1, XDATA, add(CFA_XSP16, literal(-5)))
        CFI ?RET_HIGH load(1, XDATA, add(CFA_XSP16, literal(-4)))
        CFI ?BRET_EXT load(1, XDATA, add(CFA_XSP16, literal(-3)))
        CFI DPL0 load(1, XDATA, add(CFA_XSP16, literal(-2)))
        CFI DPH0 load(1, XDATA, add(CFA_XSP16, literal(-1)))
        CFI CFA_SP SP+0
        CFI CFA_XSP16 add(XSP16, 12)
        CFI Block cfiCond24 Using cfiCommon0
        CFI (cfiCond24) NoFunction
        CFI (cfiCond24) Conditional ??CrossCallReturnLabel_8
        CFI (cfiCond24) DPL0 Frame(CFA_SP, 4)
        CFI (cfiCond24) DPH0 Frame(CFA_SP, 5)
        CFI (cfiCond24) CFA_SP SP+-5
        CFI Block cfiPicker25 Using cfiCommon1
        CFI (cfiPicker25) NoFunction
        CFI (cfiPicker25) Picker
        MOV     R4,#-0x18
        MOV     R5,#0x3
        MOV     R2,#0x1
        CFI EndBlock cfiCond23
        CFI EndBlock cfiCond24
        CFI EndBlock cfiPicker25
        REQUIRE ??Subroutine6_0
        ; // Fall through to label ??Subroutine6_0

        RSEG BANKED_CODE:CODE:NOROOT(0)
??Subroutine6_0:
        CFI Block cfiCond26 Using cfiCommon0
        CFI NoFunction
        CFI Conditional ??CrossCallReturnLabel_9
        CFI R6 load(1, XDATA, add(CFA_XSP16, literal(-12)))
        CFI VB load(1, XDATA, add(CFA_XSP16, literal(-11)))
        CFI V0 load(1, XDATA, add(CFA_XSP16, literal(-10)))
        CFI V1 load(1, XDATA, add(CFA_XSP16, literal(-9)))
        CFI V2 load(1, XDATA, add(CFA_XSP16, literal(-8)))
        CFI V3 load(1, XDATA, add(CFA_XSP16, literal(-7)))
        CFI R7 load(1, XDATA, add(CFA_XSP16, literal(-6)))
        CFI ?RET_LOW load(1, XDATA, add(CFA_XSP16, literal(-5)))
        CFI ?RET_HIGH load(1, XDATA, add(CFA_XSP16, literal(-4)))
        CFI ?BRET_EXT load(1, XDATA, add(CFA_XSP16, literal(-3)))
        CFI DPL0 load(1, XDATA, add(CFA_XSP16, literal(-2)))
        CFI DPH0 load(1, XDATA, add(CFA_XSP16, literal(-1)))
        CFI CFA_SP SP+0
        CFI CFA_XSP16 add(XSP16, 12)
        CFI Block cfiCond27 Using cfiCommon0
        CFI (cfiCond27) NoFunction
        CFI (cfiCond27) Conditional ??CrossCallReturnLabel_10
        CFI (cfiCond27) R6 load(1, XDATA, add(CFA_XSP16, literal(-10)))
        CFI (cfiCond27) VB load(1, XDATA, add(CFA_XSP16, literal(-9)))
        CFI (cfiCond27) V0 load(1, XDATA, add(CFA_XSP16, literal(-8)))
        CFI (cfiCond27) V1 load(1, XDATA, add(CFA_XSP16, literal(-7)))
        CFI (cfiCond27) R7 load(1, XDATA, add(CFA_XSP16, literal(-6)))
        CFI (cfiCond27) ?RET_LOW load(1, XDATA, add(CFA_XSP16, literal(-5)))
        CFI (cfiCond27) ?RET_HIGH load(1, XDATA, add(CFA_XSP16, literal(-4)))
        CFI (cfiCond27) ?BRET_EXT load(1, XDATA, add(CFA_XSP16, literal(-3)))
        CFI (cfiCond27) DPL0 load(1, XDATA, add(CFA_XSP16, literal(-2)))
        CFI (cfiCond27) DPH0 load(1, XDATA, add(CFA_XSP16, literal(-1)))
        CFI (cfiCond27) CFA_SP SP+0
        CFI (cfiCond27) CFA_XSP16 add(XSP16, 10)
        CFI Block cfiCond28 Using cfiCommon0
        CFI (cfiCond28) NoFunction
        CFI (cfiCond28) Conditional ??CrossCallReturnLabel_15
        CFI (cfiCond28) R6 load(1, XDATA, add(CFA_XSP16, literal(-12)))
        CFI (cfiCond28) VB load(1, XDATA, add(CFA_XSP16, literal(-11)))
        CFI (cfiCond28) V0 load(1, XDATA, add(CFA_XSP16, literal(-10)))
        CFI (cfiCond28) V1 load(1, XDATA, add(CFA_XSP16, literal(-9)))
        CFI (cfiCond28) V2 load(1, XDATA, add(CFA_XSP16, literal(-8)))
        CFI (cfiCond28) V3 load(1, XDATA, add(CFA_XSP16, literal(-7)))
        CFI (cfiCond28) R7 load(1, XDATA, add(CFA_XSP16, literal(-6)))
        CFI (cfiCond28) ?RET_LOW load(1, XDATA, add(CFA_XSP16, literal(-5)))
        CFI (cfiCond28) ?RET_HIGH load(1, XDATA, add(CFA_XSP16, literal(-4)))
        CFI (cfiCond28) ?BRET_EXT load(1, XDATA, add(CFA_XSP16, literal(-3)))
        CFI (cfiCond28) DPL0 load(1, XDATA, add(CFA_XSP16, literal(-2)))
        CFI (cfiCond28) DPH0 load(1, XDATA, add(CFA_XSP16, literal(-1)))
        CFI (cfiCond28) CFA_SP SP+0
        CFI (cfiCond28) CFA_XSP16 add(XSP16, 12)
        CFI Block cfiCond29 Using cfiCommon0
        CFI (cfiCond29) NoFunction
        CFI (cfiCond29) Conditional ??CrossCallReturnLabel_8
        CFI (cfiCond29) DPL0 Frame(CFA_SP, 4)
        CFI (cfiCond29) DPH0 Frame(CFA_SP, 5)
        CFI (cfiCond29) CFA_SP SP+-5
        CFI Block cfiPicker30 Using cfiCommon1
        CFI (cfiPicker30) NoFunction
        CFI (cfiPicker30) Picker
        MOV     R3,#0x0
        CFI EndBlock cfiCond26
        CFI EndBlock cfiCond27
        CFI EndBlock cfiCond28
        CFI EndBlock cfiCond29
        CFI EndBlock cfiPicker30
        REQUIRE ??Subroutine7_0
        ; // Fall through to label ??Subroutine7_0

        RSEG BANKED_CODE:CODE:NOROOT(0)
??Subroutine7_0:
        CFI Block cfiCond31 Using cfiCommon0
        CFI NoFunction
        CFI Conditional ??CrossCallReturnLabel_11
        CFI R6 load(1, XDATA, add(CFA_XSP16, literal(-12)))
        CFI VB load(1, XDATA, add(CFA_XSP16, literal(-11)))
        CFI V0 load(1, XDATA, add(CFA_XSP16, literal(-10)))
        CFI V1 load(1, XDATA, add(CFA_XSP16, literal(-9)))
        CFI V2 load(1, XDATA, add(CFA_XSP16, literal(-8)))
        CFI V3 load(1, XDATA, add(CFA_XSP16, literal(-7)))
        CFI R7 load(1, XDATA, add(CFA_XSP16, literal(-6)))
        CFI ?RET_LOW load(1, XDATA, add(CFA_XSP16, literal(-5)))
        CFI ?RET_HIGH load(1, XDATA, add(CFA_XSP16, literal(-4)))
        CFI ?BRET_EXT load(1, XDATA, add(CFA_XSP16, literal(-3)))
        CFI DPL0 load(1, XDATA, add(CFA_XSP16, literal(-2)))
        CFI DPH0 load(1, XDATA, add(CFA_XSP16, literal(-1)))
        CFI CFA_SP SP+0
        CFI CFA_XSP16 add(XSP16, 12)
        CFI Block cfiCond32 Using cfiCommon0
        CFI (cfiCond32) NoFunction
        CFI (cfiCond32) Conditional ??CrossCallReturnLabel_12
        CFI (cfiCond32) R6 load(1, XDATA, add(CFA_XSP16, literal(-12)))
        CFI (cfiCond32) VB load(1, XDATA, add(CFA_XSP16, literal(-11)))
        CFI (cfiCond32) V0 load(1, XDATA, add(CFA_XSP16, literal(-10)))
        CFI (cfiCond32) V1 load(1, XDATA, add(CFA_XSP16, literal(-9)))
        CFI (cfiCond32) V2 load(1, XDATA, add(CFA_XSP16, literal(-8)))
        CFI (cfiCond32) V3 load(1, XDATA, add(CFA_XSP16, literal(-7)))
        CFI (cfiCond32) R7 load(1, XDATA, add(CFA_XSP16, literal(-6)))
        CFI (cfiCond32) ?RET_LOW load(1, XDATA, add(CFA_XSP16, literal(-5)))
        CFI (cfiCond32) ?RET_HIGH load(1, XDATA, add(CFA_XSP16, literal(-4)))
        CFI (cfiCond32) ?BRET_EXT load(1, XDATA, add(CFA_XSP16, literal(-3)))
        CFI (cfiCond32) DPL0 load(1, XDATA, add(CFA_XSP16, literal(-2)))
        CFI (cfiCond32) DPH0 load(1, XDATA, add(CFA_XSP16, literal(-1)))
        CFI (cfiCond32) CFA_SP SP+0
        CFI (cfiCond32) CFA_XSP16 add(XSP16, 12)
        CFI Block cfiCond33 Using cfiCommon0
        CFI (cfiCond33) NoFunction
        CFI (cfiCond33) Conditional ??CrossCallReturnLabel_13
        CFI (cfiCond33) R6 load(1, XDATA, add(CFA_XSP16, literal(-12)))
        CFI (cfiCond33) VB load(1, XDATA, add(CFA_XSP16, literal(-11)))
        CFI (cfiCond33) V0 load(1, XDATA, add(CFA_XSP16, literal(-10)))
        CFI (cfiCond33) V1 load(1, XDATA, add(CFA_XSP16, literal(-9)))
        CFI (cfiCond33) V2 load(1, XDATA, add(CFA_XSP16, literal(-8)))
        CFI (cfiCond33) V3 load(1, XDATA, add(CFA_XSP16, literal(-7)))
        CFI (cfiCond33) R7 load(1, XDATA, add(CFA_XSP16, literal(-6)))
        CFI (cfiCond33) ?RET_LOW load(1, XDATA, add(CFA_XSP16, literal(-5)))
        CFI (cfiCond33) ?RET_HIGH load(1, XDATA, add(CFA_XSP16, literal(-4)))
        CFI (cfiCond33) ?BRET_EXT load(1, XDATA, add(CFA_XSP16, literal(-3)))
        CFI (cfiCond33) DPL0 load(1, XDATA, add(CFA_XSP16, literal(-2)))
        CFI (cfiCond33) DPH0 load(1, XDATA, add(CFA_XSP16, literal(-1)))
        CFI (cfiCond33) CFA_SP SP+0
        CFI (cfiCond33) CFA_XSP16 add(XSP16, 12)
        CFI Block cfiCond34 Using cfiCommon0
        CFI (cfiCond34) NoFunction
        CFI (cfiCond34) Conditional ??CrossCallReturnLabel_14
        CFI (cfiCond34) R6 load(1, XDATA, add(CFA_XSP16, literal(-12)))
        CFI (cfiCond34) VB load(1, XDATA, add(CFA_XSP16, literal(-11)))
        CFI (cfiCond34) V0 load(1, XDATA, add(CFA_XSP16, literal(-10)))
        CFI (cfiCond34) V1 load(1, XDATA, add(CFA_XSP16, literal(-9)))
        CFI (cfiCond34) V2 load(1, XDATA, add(CFA_XSP16, literal(-8)))
        CFI (cfiCond34) V3 load(1, XDATA, add(CFA_XSP16, literal(-7)))
        CFI (cfiCond34) R7 load(1, XDATA, add(CFA_XSP16, literal(-6)))
        CFI (cfiCond34) ?RET_LOW load(1, XDATA, add(CFA_XSP16, literal(-5)))
        CFI (cfiCond34) ?RET_HIGH load(1, XDATA, add(CFA_XSP16, literal(-4)))
        CFI (cfiCond34) ?BRET_EXT load(1, XDATA, add(CFA_XSP16, literal(-3)))
        CFI (cfiCond34) DPL0 load(1, XDATA, add(CFA_XSP16, literal(-2)))
        CFI (cfiCond34) DPH0 load(1, XDATA, add(CFA_XSP16, literal(-1)))
        CFI (cfiCond34) CFA_SP SP+0
        CFI (cfiCond34) CFA_XSP16 add(XSP16, 12)
        CFI Block cfiCond35 Using cfiCommon0
        CFI (cfiCond35) NoFunction
        CFI (cfiCond35) Conditional ??CrossCallReturnLabel_9
        CFI (cfiCond35) R6 load(1, XDATA, add(CFA_XSP16, literal(-12)))
        CFI (cfiCond35) VB load(1, XDATA, add(CFA_XSP16, literal(-11)))
        CFI (cfiCond35) V0 load(1, XDATA, add(CFA_XSP16, literal(-10)))
        CFI (cfiCond35) V1 load(1, XDATA, add(CFA_XSP16, literal(-9)))
        CFI (cfiCond35) V2 load(1, XDATA, add(CFA_XSP16, literal(-8)))
        CFI (cfiCond35) V3 load(1, XDATA, add(CFA_XSP16, literal(-7)))
        CFI (cfiCond35) R7 load(1, XDATA, add(CFA_XSP16, literal(-6)))
        CFI (cfiCond35) ?RET_LOW load(1, XDATA, add(CFA_XSP16, literal(-5)))
        CFI (cfiCond35) ?RET_HIGH load(1, XDATA, add(CFA_XSP16, literal(-4)))
        CFI (cfiCond35) ?BRET_EXT load(1, XDATA, add(CFA_XSP16, literal(-3)))
        CFI (cfiCond35) DPL0 load(1, XDATA, add(CFA_XSP16, literal(-2)))
        CFI (cfiCond35) DPH0 load(1, XDATA, add(CFA_XSP16, literal(-1)))
        CFI (cfiCond35) CFA_SP SP+0
        CFI (cfiCond35) CFA_XSP16 add(XSP16, 12)
        CFI Block cfiCond36 Using cfiCommon0
        CFI (cfiCond36) NoFunction
        CFI (cfiCond36) Conditional ??CrossCallReturnLabel_10
        CFI (cfiCond36) R6 load(1, XDATA, add(CFA_XSP16, literal(-10)))
        CFI (cfiCond36) VB load(1, XDATA, add(CFA_XSP16, literal(-9)))
        CFI (cfiCond36) V0 load(1, XDATA, add(CFA_XSP16, literal(-8)))
        CFI (cfiCond36) V1 load(1, XDATA, add(CFA_XSP16, literal(-7)))
        CFI (cfiCond36) R7 load(1, XDATA, add(CFA_XSP16, literal(-6)))
        CFI (cfiCond36) ?RET_LOW load(1, XDATA, add(CFA_XSP16, literal(-5)))
        CFI (cfiCond36) ?RET_HIGH load(1, XDATA, add(CFA_XSP16, literal(-4)))
        CFI (cfiCond36) ?BRET_EXT load(1, XDATA, add(CFA_XSP16, literal(-3)))
        CFI (cfiCond36) DPL0 load(1, XDATA, add(CFA_XSP16, literal(-2)))
        CFI (cfiCond36) DPH0 load(1, XDATA, add(CFA_XSP16, literal(-1)))
        CFI (cfiCond36) CFA_SP SP+0
        CFI (cfiCond36) CFA_XSP16 add(XSP16, 10)
        CFI Block cfiCond37 Using cfiCommon0
        CFI (cfiCond37) NoFunction
        CFI (cfiCond37) Conditional ??CrossCallReturnLabel_15
        CFI (cfiCond37) R6 load(1, XDATA, add(CFA_XSP16, literal(-12)))
        CFI (cfiCond37) VB load(1, XDATA, add(CFA_XSP16, literal(-11)))
        CFI (cfiCond37) V0 load(1, XDATA, add(CFA_XSP16, literal(-10)))
        CFI (cfiCond37) V1 load(1, XDATA, add(CFA_XSP16, literal(-9)))
        CFI (cfiCond37) V2 load(1, XDATA, add(CFA_XSP16, literal(-8)))
        CFI (cfiCond37) V3 load(1, XDATA, add(CFA_XSP16, literal(-7)))
        CFI (cfiCond37) R7 load(1, XDATA, add(CFA_XSP16, literal(-6)))
        CFI (cfiCond37) ?RET_LOW load(1, XDATA, add(CFA_XSP16, literal(-5)))
        CFI (cfiCond37) ?RET_HIGH load(1, XDATA, add(CFA_XSP16, literal(-4)))
        CFI (cfiCond37) ?BRET_EXT load(1, XDATA, add(CFA_XSP16, literal(-3)))
        CFI (cfiCond37) DPL0 load(1, XDATA, add(CFA_XSP16, literal(-2)))
        CFI (cfiCond37) DPH0 load(1, XDATA, add(CFA_XSP16, literal(-1)))
        CFI (cfiCond37) CFA_SP SP+0
        CFI (cfiCond37) CFA_XSP16 add(XSP16, 12)
        CFI Block cfiCond38 Using cfiCommon0
        CFI (cfiCond38) NoFunction
        CFI (cfiCond38) Conditional ??CrossCallReturnLabel_8
        CFI (cfiCond38) DPL0 Frame(CFA_SP, 4)
        CFI (cfiCond38) DPH0 Frame(CFA_SP, 5)
        CFI (cfiCond38) CFA_SP SP+-5
        CFI Block cfiPicker39 Using cfiCommon1
        CFI (cfiPicker39) NoFunction
        CFI (cfiPicker39) Picker
        MOV     DPTR,#zclOnOffLight_TaskID
        MOVX    A,@DPTR
        MOV     R1,A
        LCALL   ??osal_start_timerEx?relay
        RET
        CFI EndBlock cfiCond31
        CFI EndBlock cfiCond32
        CFI EndBlock cfiCond33
        CFI EndBlock cfiCond34
        CFI EndBlock cfiCond35
        CFI EndBlock cfiCond36
        CFI EndBlock cfiCond37
        CFI EndBlock cfiCond38
        CFI EndBlock cfiPicker39

        RSEG XDATA_ID:CODE:NOROOT(0)
`?<Initializer for zclDevice_JoinNetworkOk>`:
        DATA8
        DB 6

        RSEG XDATA_ID:CODE:NOROOT(0)
`?<Initializer for zclOnOffLight0_CmdCallbacks>`:
        DATA16
        DW ??zclOnOffLight_BasicResetCB?relay
        DW ??zclOnOffLight_IdentifyCB?relay
        DW ??zclOnOffLight_IdentifyQueryRspCB?relay
        DW ??zclOnOffLight0_OnOffCB?relay
        DW 0H
        DW 0H
        DW 0H
        DW 0H
        DW 0H
        DW 0H
        DW 0H
        DW 0H
        DW 0H
        DW 0H
        DB 0, 0

        RSEG BANK_RELAYS:CODE:REORDER:NOROOT(0)
??zclOnOffLight_Init?relay:
        LCALL   ?BDISPATCH
        DATA
        DC24    zclOnOffLight_Init

        RSEG BANK_RELAYS:CODE:REORDER:NOROOT(0)
??zclOnOffLight_event_loop?relay:
        LCALL   ?BDISPATCH
        DATA
        DC24    zclOnOffLight_event_loop

        RSEG BANK_RELAYS:CODE:REORDER:NOROOT(0)
??zclOnOffLight_BasicResetCB?relay:
        LCALL   ?BDISPATCH
        DATA
        DC24    zclOnOffLight_BasicResetCB

        RSEG BANK_RELAYS:CODE:REORDER:NOROOT(0)
??zclOnOffLight_IdentifyCB?relay:
        LCALL   ?BDISPATCH
        DATA
        DC24    zclOnOffLight_IdentifyCB

        RSEG BANK_RELAYS:CODE:REORDER:NOROOT(0)
??zclOnOffLight_IdentifyQueryRspCB?relay:
        LCALL   ?BDISPATCH
        DATA
        DC24    zclOnOffLight_IdentifyQueryRspCB

        RSEG BANK_RELAYS:CODE:REORDER:NOROOT(0)
??zclOnOffLight0_OnOffCB?relay:
        LCALL   ?BDISPATCH
        DATA
        DC24    zclOnOffLight0_OnOffCB

        RSEG BANK_RELAYS:CODE:REORDER:NOROOT(0)
??Device_App_MessageMSGCB?relay:
        LCALL   ?BDISPATCH
        DATA
        DC24    Device_App_MessageMSGCB

        END
//  732 
// 
// 898 bytes in segment BANKED_CODE
//  42 bytes in segment BANK_RELAYS
//   1 byte  in segment SFR_AN
//  31 bytes in segment XDATA_I
//  31 bytes in segment XDATA_ID
//  15 bytes in segment XDATA_Z
// 
// 971 bytes of CODE  memory
//   0 bytes of DATA  memory (+ 1 byte shared)
//  46 bytes of XDATA memory
//
//Errors: none
//Warnings: none
