###############################################################################
#                                                                             #
# IAR C/C++ Compiler V8.10.1.10194/W32 for 8051         19/Jun/2017  14:40:44 #
# Copyright 2004-2011 IAR Systems AB.                                         #
#                                                                             #
#    Core               =  plain                                              #
#    Code model         =  banked                                             #
#    Data model         =  large                                              #
#    Calling convention =  xdata reentrant                                    #
#    Constant location  =  data_rom                                           #
#    Dptr setup         =  1,16                                               #
#    Source file        =  D:\work space\Smart Product\Two                    #
#                          YHY\SmartLightSwitch\one\v1.04.0\ZStack-CC2530-2.5 #
#                          .1a Green V3.1 02\Projects\zstack\HomeAutomation\S #
#                          martSwitchLight\Source\zcl_light_control.c         #
#    Command line       =  -f "D:\work space\Smart Product\Two                #
#                          YHY\SmartLightSwitch\one\v1.04.0\ZStack-CC2530-2.5 #
#                          .1a Green V3.1 02\Projects\zstack\HomeAutomation\S #
#                          martSwitchLight\CC2530DB\..\Tools\CC2530DB\f8wRout #
#                          er.cfg" (-DCPU32MHZ -DROOT=__near_func             #
#                          -DMAC_CFG_APP_PENDING_QUEUE=TRUE                   #
#                          -DMAC_CFG_TX_DATA_MAX=5 -DMAC_CFG_TX_MAX=8         #
#                          -DMAC_CFG_RX_MAX=5 -DRTR_NWK -DNV_RESTORE          #
#                          -DNV_INIT -DHAL_PA_LNA -DHAL_KEY=FALSE             #
#                          -DHAL_LED=FALSE -DHAL_LCD=FALSE -DHAL_ADC=FALSE    #
#                          -DWDT_IN_PM1 -DTC_LINKKEY_JOIN                     #
#                          -DMAX_NEIGHBOR_ENTRIES=48 -DTVSA_DATA_CNF=1        #
#                          -DPACKET_FILTER_STATS -DNWK_LINK_STATUS_PERIOD=60) #
#                           -f "D:\work space\Smart Product\Two               #
#                          YHY\SmartLightSwitch\one\v1.04.0\ZStack-CC2530-2.5 #
#                          .1a Green V3.1 02\Projects\zstack\HomeAutomation\S #
#                          martSwitchLight\CC2530DB\..\Tools\CC2530DB\f8wConf #
#                          ig.cfg" (-DZIGBEEPRO -DSECURE=1                    #
#                          -DZG_SECURE_DYNAMIC=0 -DREFLECTOR                  #
#                          -DDEFAULT_CHANLIST=0x06108800                      #
#                          -DZDAPP_CONFIG_PAN_ID=0xFFFF                       #
#                          -DNWK_START_DELAY=100 -DEXTENDED_JOINING_RANDOM_MA #
#                          SK=0x007F -DBEACON_REQUEST_DELAY=1000              #
#                          -DBEACON_REQ_DELAY_MASK=0x00FF                     #
#                          -DLINK_STATUS_JITTER_MASK=0x007F                   #
#                          -DROUTE_EXPIRY_TIME=30 -DAPSC_ACK_WAIT_DURATION_PO #
#                          LLED=3000 -DNWK_INDIRECT_MSG_TIMEOUT=7             #
#                          -DMAX_RREQ_ENTRIES=8 -DAPSC_MAX_FRAME_RETRIES=3    #
#                          -DNWK_MAX_DATA_RETRIES=2                           #
#                          -DMAX_POLL_FAILURE_RETRIES=2 -DMAX_BCAST=9         #
#                          -DAPS_MAX_GROUPS=16 -DMAX_RTG_ENTRIES=40           #
#                          -DNWK_MAX_BINDING_ENTRIES=4                        #
#                          -DMAX_BINDING_CLUSTER_IDS=4                        #
#                          -DDEFAULT_KEY={0x79,0x69,0x20,0x68,0x75,0x69,0x20, #
#                          0x79,0x75,0x6E,0x20,0x73,0x6D,0x61,0x72,0x74}      #
#                          -DMAC_MAX_FRAME_SIZE=116                           #
#                          -DZDNWKMGR_MIN_TRANSMISSIONS=20 "-DCONST=const     #
#                          __code" -DGENERIC=__generic                        #
#                          -DRFD_RCVC_ALWAYS_ON=TRUE -DPOLL_RATE=0            #
#                          -DQUEUED_POLL_RATE=0 -DRESPONSE_POLL_RATE=0        #
#                          -DREJOIN_POLL_RATE=440) -f "D:\work space\Smart    #
#                          Product\Two YHY\SmartLightSwitch\one\v1.04.0\ZStac #
#                          k-CC2530-2.5.1a Green V3.1                         #
#                          02\Projects\zstack\HomeAutomation\SmartSwitchLight #
#                          \CC2530DB\..\Tools\CC2530DB\f8wZCL.cfg"            #
#                          (-DZCL_READ -DZCL_WRITE -DZCL_REPORT -DZCL_BASIC   #
#                          -DZCL_IDENTIFY -DZCL_ON_OFF -DZCL_KEY_ESTABLISH    #
#                          -DZCL_KEY_ESTABLISHMENT_KEY_GENERATE_TIMEOUT=4     #
#                          -DZCL_KEY_ESTABLISHMENT_MAC_GENERATE_TIMEOUT=10    #
#                          -DZCL_KEY_ESTABLISHMENT_EKEY_GENERATE_TIMEOUT=10   #
#                          -DZCL_LOAD_CONTROL -DZCL_SIMPLE_METERING           #
#                          -DZCL_PRICING -DZCL_MESSAGE -DZCL_TUNNELING        #
#                          -DZCL_TOU) -DZCL_DEVICE_MGMT "D:\work space\Smart  #
#                          Product\Two YHY\SmartLightSwitch\one\v1.04.0\ZStac #
#                          k-CC2530-2.5.1a Green V3.1                         #
#                          02\Projects\zstack\HomeAutomation\SmartSwitchLight #
#                          \Source\zcl_light_control.c" -lC "D:\work          #
#                          space\Smart Product\Two YHY\SmartLightSwitch\one\v #
#                          1.04.0\ZStack-CC2530-2.5.1a Green V3.1             #
#                          02\Projects\zstack\HomeAutomation\SmartSwitchLight #
#                          \CC2530DB\RouterDeviceEB\List\" -lA "D:\work       #
#                          space\Smart Product\Two YHY\SmartLightSwitch\one\v #
#                          1.04.0\ZStack-CC2530-2.5.1a Green V3.1             #
#                          02\Projects\zstack\HomeAutomation\SmartSwitchLight #
#                          \CC2530DB\RouterDeviceEB\List\" --diag_suppress    #
#                          Pe001,Pa010 -o "D:\work space\Smart Product\Two    #
#                          YHY\SmartLightSwitch\one\v1.04.0\ZStack-CC2530-2.5 #
#                          .1a Green V3.1 02\Projects\zstack\HomeAutomation\S #
#                          martSwitchLight\CC2530DB\RouterDeviceEB\Obj\" -e   #
#                          --debug --core=plain --dptr=16,1                   #
#                          --data_model=large --code_model=banked             #
#                          --calling_convention=xdata_reentrant               #
#                          --place_constants=data_rom --nr_virtual_regs 16    #
#                          -I "D:\work space\Smart Product\Two                #
#                          YHY\SmartLightSwitch\one\v1.04.0\ZStack-CC2530-2.5 #
#                          .1a Green V3.1 02\Projects\zstack\HomeAutomation\S #
#                          martSwitchLight\CC2530DB\" -I "D:\work             #
#                          space\Smart Product\Two YHY\SmartLightSwitch\one\v #
#                          1.04.0\ZStack-CC2530-2.5.1a Green V3.1             #
#                          02\Projects\zstack\HomeAutomation\SmartSwitchLight #
#                          \CC2530DB\..\Source\" -I "D:\work space\Smart      #
#                          Product\Two YHY\SmartLightSwitch\one\v1.04.0\ZStac #
#                          k-CC2530-2.5.1a Green V3.1                         #
#                          02\Projects\zstack\HomeAutomation\SmartSwitchLight #
#                          \CC2530DB\..\..\Source\" -I "D:\work space\Smart   #
#                          Product\Two YHY\SmartLightSwitch\one\v1.04.0\ZStac #
#                          k-CC2530-2.5.1a Green V3.1                         #
#                          02\Projects\zstack\HomeAutomation\SmartSwitchLight #
#                          \CC2530DB\..\..\..\ZMain\TI2530DB\" -I "D:\work    #
#                          space\Smart Product\Two YHY\SmartLightSwitch\one\v #
#                          1.04.0\ZStack-CC2530-2.5.1a Green V3.1             #
#                          02\Projects\zstack\HomeAutomation\SmartSwitchLight #
#                          \CC2530DB\..\..\..\..\..\Components\hal\include\"  #
#                          -I "D:\work space\Smart Product\Two                #
#                          YHY\SmartLightSwitch\one\v1.04.0\ZStack-CC2530-2.5 #
#                          .1a Green V3.1 02\Projects\zstack\HomeAutomation\S #
#                          martSwitchLight\CC2530DB\..\..\..\..\..\Components #
#                          \hal\target\CC2530EB\" -I "D:\work space\Smart     #
#                          Product\Two YHY\SmartLightSwitch\one\v1.04.0\ZStac #
#                          k-CC2530-2.5.1a Green V3.1                         #
#                          02\Projects\zstack\HomeAutomation\SmartSwitchLight #
#                          \CC2530DB\..\..\..\..\..\Components\mac\include\"  #
#                          -I "D:\work space\Smart Product\Two                #
#                          YHY\SmartLightSwitch\one\v1.04.0\ZStack-CC2530-2.5 #
#                          .1a Green V3.1 02\Projects\zstack\HomeAutomation\S #
#                          martSwitchLight\CC2530DB\..\..\..\..\..\Components #
#                          \mac\high_level\" -I "D:\work space\Smart          #
#                          Product\Two YHY\SmartLightSwitch\one\v1.04.0\ZStac #
#                          k-CC2530-2.5.1a Green V3.1                         #
#                          02\Projects\zstack\HomeAutomation\SmartSwitchLight #
#                          \CC2530DB\..\..\..\..\..\Components\mac\low_level\ #
#                          srf04\" -I "D:\work space\Smart Product\Two        #
#                          YHY\SmartLightSwitch\one\v1.04.0\ZStack-CC2530-2.5 #
#                          .1a Green V3.1 02\Projects\zstack\HomeAutomation\S #
#                          martSwitchLight\CC2530DB\..\..\..\..\..\Components #
#                          \mac\low_level\srf04\single_chip\" -I "D:\work     #
#                          space\Smart Product\Two YHY\SmartLightSwitch\one\v #
#                          1.04.0\ZStack-CC2530-2.5.1a Green V3.1             #
#                          02\Projects\zstack\HomeAutomation\SmartSwitchLight #
#                          \CC2530DB\..\..\..\..\..\Components\mt\" -I        #
#                          "D:\work space\Smart Product\Two                   #
#                          YHY\SmartLightSwitch\one\v1.04.0\ZStack-CC2530-2.5 #
#                          .1a Green V3.1 02\Projects\zstack\HomeAutomation\S #
#                          martSwitchLight\CC2530DB\..\..\..\..\..\Components #
#                          \osal\include\" -I "D:\work space\Smart            #
#                          Product\Two YHY\SmartLightSwitch\one\v1.04.0\ZStac #
#                          k-CC2530-2.5.1a Green V3.1                         #
#                          02\Projects\zstack\HomeAutomation\SmartSwitchLight #
#                          \CC2530DB\..\..\..\..\..\Components\services\saddr #
#                          \" -I "D:\work space\Smart Product\Two             #
#                          YHY\SmartLightSwitch\one\v1.04.0\ZStack-CC2530-2.5 #
#                          .1a Green V3.1 02\Projects\zstack\HomeAutomation\S #
#                          martSwitchLight\CC2530DB\..\..\..\..\..\Components #
#                          \services\sdata\" -I "D:\work space\Smart          #
#                          Product\Two YHY\SmartLightSwitch\one\v1.04.0\ZStac #
#                          k-CC2530-2.5.1a Green V3.1                         #
#                          02\Projects\zstack\HomeAutomation\SmartSwitchLight #
#                          \CC2530DB\..\..\..\..\..\Components\stack\af\" -I  #
#                          "D:\work space\Smart Product\Two                   #
#                          YHY\SmartLightSwitch\one\v1.04.0\ZStack-CC2530-2.5 #
#                          .1a Green V3.1 02\Projects\zstack\HomeAutomation\S #
#                          martSwitchLight\CC2530DB\..\..\..\..\..\Components #
#                          \stack\nwk\" -I "D:\work space\Smart Product\Two   #
#                          YHY\SmartLightSwitch\one\v1.04.0\ZStack-CC2530-2.5 #
#                          .1a Green V3.1 02\Projects\zstack\HomeAutomation\S #
#                          martSwitchLight\CC2530DB\..\..\..\..\..\Components #
#                          \stack\sapi\" -I "D:\work space\Smart Product\Two  #
#                          YHY\SmartLightSwitch\one\v1.04.0\ZStack-CC2530-2.5 #
#                          .1a Green V3.1 02\Projects\zstack\HomeAutomation\S #
#                          martSwitchLight\CC2530DB\..\..\..\..\..\Components #
#                          \stack\sec\" -I "D:\work space\Smart Product\Two   #
#                          YHY\SmartLightSwitch\one\v1.04.0\ZStack-CC2530-2.5 #
#                          .1a Green V3.1 02\Projects\zstack\HomeAutomation\S #
#                          martSwitchLight\CC2530DB\..\..\..\..\..\Components #
#                          \stack\sys\" -I "D:\work space\Smart Product\Two   #
#                          YHY\SmartLightSwitch\one\v1.04.0\ZStack-CC2530-2.5 #
#                          .1a Green V3.1 02\Projects\zstack\HomeAutomation\S #
#                          martSwitchLight\CC2530DB\..\..\..\..\..\Components #
#                          \stack\zcl\" -I "D:\work space\Smart Product\Two   #
#                          YHY\SmartLightSwitch\one\v1.04.0\ZStack-CC2530-2.5 #
#                          .1a Green V3.1 02\Projects\zstack\HomeAutomation\S #
#                          martSwitchLight\CC2530DB\..\..\..\..\..\Components #
#                          \stack\zdo\" -I "D:\work space\Smart Product\Two   #
#                          YHY\SmartLightSwitch\one\v1.04.0\ZStack-CC2530-2.5 #
#                          .1a Green V3.1 02\Projects\zstack\HomeAutomation\S #
#                          martSwitchLight\CC2530DB\..\..\..\..\..\Components #
#                          \zmac\" -I "D:\work space\Smart Product\Two        #
#                          YHY\SmartLightSwitch\one\v1.04.0\ZStack-CC2530-2.5 #
#                          .1a Green V3.1 02\Projects\zstack\HomeAutomation\S #
#                          martSwitchLight\CC2530DB\..\..\..\..\..\Components #
#                          \zmac\f8w\" -Oh --require_prototypes               #
#    List file          =  D:\work space\Smart Product\Two                    #
#                          YHY\SmartLightSwitch\one\v1.04.0\ZStack-CC2530-2.5 #
#                          .1a Green V3.1 02\Projects\zstack\HomeAutomation\S #
#                          martSwitchLight\CC2530DB\RouterDeviceEB\List\zcl_l #
#                          ight_control.lst                                   #
#    Object file        =  D:\work space\Smart Product\Two                    #
#                          YHY\SmartLightSwitch\one\v1.04.0\ZStack-CC2530-2.5 #
#                          .1a Green V3.1 02\Projects\zstack\HomeAutomation\S #
#                          martSwitchLight\CC2530DB\RouterDeviceEB\Obj\zcl_li #
#                          ght_control.r51                                    #
#                                                                             #
#                                                                             #
###############################################################################

D:\work space\Smart Product\Two YHY\SmartLightSwitch\one\v1.04.0\ZStack-CC2530-2.5.1a Green V3.1 02\Projects\zstack\HomeAutomation\SmartSwitchLight\Source\zcl_light_control.c
      1          #include "zcl_light_control.h"

   \                                 In  segment SFR_AN, at 0x80
   \   union <unnamed> volatile __sfr _A_P0
   \                     _A_P0:
   \   000000                DS 1

   \                                 In  segment SFR_AN, at 0x89
   \   unsigned char volatile __sfr P0IFG
   \                     P0IFG:
   \   000000                DS 1

   \                                 In  segment SFR_AN, at 0x8c
   \   unsigned char volatile __sfr PICTL
   \                     PICTL:
   \   000000                DS 1

   \                                 In  segment SFR_AN, at 0x8f
   \   unsigned char volatile __sfr P0INP
   \                     P0INP:
   \   000000                DS 1

   \                                 In  segment SFR_AN, at 0xa8
   \   union <unnamed> volatile __sfr _A_IEN0
   \                     _A_IEN0:
   \   000000                DS 1

   \                                 In  segment SFR_AN, at 0xab
   \   unsigned char volatile __sfr P0IEN
   \                     P0IEN:
   \   000000                DS 1

   \                                 In  segment SFR_AN, at 0xb8
   \   union <unnamed> volatile __sfr _A_IEN1
   \                     _A_IEN1:
   \   000000                DS 1

   \                                 In  segment SFR_AN, at 0xc0
   \   union <unnamed> volatile __sfr _A_IRCON
   \                     _A_IRCON:
   \   000000                DS 1

   \                                 In  segment SFR_AN, at 0xf3
   \   unsigned char volatile __sfr P0SEL
   \                     P0SEL:
   \   000000                DS 1

   \                                 In  segment SFR_AN, at 0xf7
   \   unsigned char volatile __sfr P2INP
   \                     P2INP:
   \   000000                DS 1

   \                                 In  segment SFR_AN, at 0xfd
   \   unsigned char volatile __sfr P0DIR
   \                     P0DIR:
   \   000000                DS 1
      2          #include "zcl_onofflight.h"
      3          #include "zcl.h"
      4          #include "zcl_device_info.h"
      5          //#include "OSAL_Nv.h"
      6          
      7          extern byte zclOnOffLight_TaskID;

   \                                 In  segment XDATA_Z, align 1, keep-with-next
      8          static afAddrType_t zcl_Coord_nwkAddr;
   \                     zcl_Coord_nwkAddr:
   \   000000                DS 12
   \   00000C                REQUIRE __INIT_XDATA_Z

   \                                 In  segment XDATA_Z, align 1, keep-with-next
      9          static uint8 zcl_SeqNum = 0;
   \                     zcl_SeqNum:
   \   000000                DS 1
   \   000001                REQUIRE __INIT_XDATA_Z

   \                                 In  segment XDATA_Z, align 1, keep-with-next
     10          static uint8 zcl_interruptNo = 0;
   \                     zcl_interruptNo:
   \   000000                DS 1
   \   000001                REQUIRE __INIT_XDATA_Z
     11          void zclFactoryResetEvent(void);

   \                                 In  segment XDATA_Z, align 1, keep-with-next
     12          static uint8 zcl_factoryReset = 0;
   \                     zcl_factoryReset:
   \   000000                DS 1
   \   000001                REQUIRE __INIT_XDATA_Z
     13          extern uint8 g_u8restFlag;
     14          extern uint8 zcl_Led_Blink;
     15          extern uint8 ReJoinNetFlagInFlash[1];
     16          extern devStates_t zclDevice_NwkState;
     17          
     18          /*********************************************************************
     19           * @fn      zclLightControlInit
     20           *
     21           * @brief   配置指示灯p0.5 配置输出IO口p0.2
     22           *          
     23           * @param   none
     24           *
     25           * @return  none
     26           */

   \                                 In  segment BANKED_CODE, align 1, keep-with-next
     27          void zclLightControlInit(void)
   \                     zclLightControlInit:
     28          {
   \   000000   C082         PUSH    DPL
   \   000002   C083         PUSH    DPH
   \   000004                ; Saved register size: 2
   \   000004                ; Auto size: 0
     29            P0SEL &= ~BV(5); //LED1
   \   000004   53F3DF       ANL     0xf3,#0xdf
     30            P0DIR |= BV(5);
   \   000007   43FD20       ORL     0xfd,#0x20
     31            
     32            
     33            ///init P1.4 and P1.5 for relay control///////////
     34            P0SEL &= ~BV(2);
   \   00000A   53F3FB       ANL     0xf3,#0xfb
     35            P0DIR |= BV(2);
   \   00000D   43FD04       ORL     0xfd,#0x4
     36            // default to turn off the light
     37            
     38            LIGHT_TURN_OFF_LIGHT0();
   \   000010   C282         CLR     0x80.2
     39            ///end init for relay control////////
     40            
     41            osal_start_timerEx(zclOnOffLight_TaskID, 
     42                               ZCL_DEVICE_INIT_DONE_EVENT,
     43                               500);
   \   000012                ; Setup parameters for call to function osal_start_timerEx
   \   000012   7CF4         MOV     R4,#-0xc
   \   000014   7D01         MOV     R5,#0x1
   \   000016   7A08         MOV     R2,#0x8
   \   000018   12....       LCALL   ?Subroutine2 & 0xFFFF
     44            
     45            zcl_Coord_nwkAddr.addrMode = afAddr16Bit;
   \                     ??CrossCallReturnLabel_4:
   \   00001B   90....       MOV     DPTR,#zcl_Coord_nwkAddr + 8
   \   00001E   7402         MOV     A,#0x2
   \   000020   F0           MOVX    @DPTR,A
     46            zcl_Coord_nwkAddr.addr.shortAddr = 0x0000;
   \   000021   90....       MOV     DPTR,#zcl_Coord_nwkAddr
   \   000024   E4           CLR     A
   \   000025   F0           MOVX    @DPTR,A
   \   000026   A3           INC     DPTR
   \   000027   F0           MOVX    @DPTR,A
     47            zcl_Coord_nwkAddr.endPoint = 0xF0;
   \   000028   90....       MOV     DPTR,#zcl_Coord_nwkAddr + 9
   \   00002B   74F0         MOV     A,#-0x10
   \   00002D   F0           MOVX    @DPTR,A
     48          }
   \   00002E                REQUIRE ?Subroutine0
   \   00002E                REQUIRE P0SEL
   \   00002E                REQUIRE P0DIR
   \   00002E                REQUIRE _A_P0
   \   00002E                ; // Fall through to label ?Subroutine0

   \                                 In  segment BANKED_CODE, align 1, keep-with-next
   \                     ?Subroutine0:
   \   000000   D083         POP     DPH
   \   000002   D082         POP     DPL
   \   000004   02....       LJMP    ?BRET

   \                                 In  segment BANKED_CODE, align 1, keep-with-next
   \                     ?Subroutine2:
   \   000000   7B00         MOV     R3,#0x0
   \   000002                REQUIRE ??Subroutine4_0
   \   000002                ; // Fall through to label ??Subroutine4_0

   \                                 In  segment BANKED_CODE, align 1, keep-with-next
   \                     ??Subroutine4_0:
   \   000000   90....       MOV     DPTR,#zclOnOffLight_TaskID
   \   000003   E0           MOVX    A,@DPTR
   \   000004   F9           MOV     R1,A
   \   000005   12....       LCALL   ??osal_start_timerEx?relay
   \   000008   22           RET
     49          /*********************************************************************
     50           * @fn      zclLightControlTouchPanelEnable
     51           *
     52           * @brief   配置按键p0.0 配置复位按键p0.7
     53           *          
     54           * @param   none
     55           *
     56           * @return  none
     57           */

   \                                 In  segment BANKED_CODE, align 1, keep-with-next
     58          void zclLightControlTouchPanelEnable(void)
   \                     zclLightControlTouchPanelEnable:
     59          {
   \   000000                ; Saved register size: 0
   \   000000                ; Auto size: 0
     60            
     61            P0SEL &= ~BV(0);
   \   000000   53F3FE       ANL     0xf3,#0xfe
     62            P0DIR &= ~BV(0);
   \   000003   53FDFE       ANL     0xfd,#0xfe
     63            P0INP &= ~BV(0);
   \   000006   538FFE       ANL     0x8f,#0xfe
     64            P0IEN |= BV(0);
   \   000009   43AB01       ORL     0xab,#0x1
     65            
     66            P0SEL &= ~BV(7);
   \   00000C   53F37F       ANL     0xf3,#0x7f
     67            P0DIR &= ~BV(7);
   \   00000F   53FD7F       ANL     0xfd,#0x7f
     68            P0INP &= ~BV(7);
   \   000012   538F7F       ANL     0x8f,#0x7f
     69            P0IEN |= BV(7);
   \   000015   43AB80       ORL     0xab,#0x80
     70          
     71            P2INP &= ~BV(5);
   \   000018   53F7DF       ANL     0xf7,#0xdf
     72            PICTL |= (0x1 << 0);
   \   00001B   438C01       ORL     0x8c,#0x1
     73            IEN1 |= (0x1 << 5);
   \   00001E   D2BD         SETB    0xb8.5
     74            P0IFG = 0;
   \   000020   758900       MOV     0x89,#0x0
     75            P0IF = 0;
   \   000023   C2C5         CLR     0xc0.5
     76            
     77            //LIGHT_TURN_OFF_LIGHT0();
     78          }
   \   000025   02....       LJMP    ?BRET
   \   000028                REQUIRE P0SEL
   \   000028                REQUIRE P0DIR
   \   000028                REQUIRE P0INP
   \   000028                REQUIRE P0IEN
   \   000028                REQUIRE P2INP
   \   000028                REQUIRE PICTL
   \   000028                REQUIRE _A_IEN1
   \   000028                REQUIRE P0IFG
   \   000028                REQUIRE _A_IRCON
     79          /*********************************************************************
     80           * @fn      zclLightReportEvent
     81           *
     82           * @brief   状态上报
     83           *          
     84           * @param   endpoint - 端点
     85           *          zclOnOffLight_OnOff - 当前状态
     86           *
     87           * @return  none
     88           */

   \                                 In  segment BANKED_CODE, align 1, keep-with-next
     89          void zclLightReportEvent(uint16 endpoint, uint8 *zclOnOffLight_OnOff)
   \                     zclLightReportEvent:
     90          {
   \   000000   74F2         MOV     A,#-0xe
   \   000002   12....       LCALL   ?BANKED_ENTER_XDATA
   \   000005                ; Saved register size: 14
   \   000005                ; Auto size: 0
   \   000005   EA           MOV     A,R2
   \   000006   FE           MOV     R6,A
   \   000007   8C..         MOV     ?V0 + 0,R4
   \   000009   8D..         MOV     ?V0 + 1,R5
     91            zclReportCmd_t *pReportCmd;
     92            
     93            pReportCmd = osal_mem_alloc( sizeof(zclReportCmd_t) + sizeof(zclReport_t) );
   \   00000B                ; Setup parameters for call to function osal_mem_alloc
   \   00000B   7A06         MOV     R2,#0x6
   \   00000D   7B00         MOV     R3,#0x0
   \   00000F   12....       LCALL   ??osal_mem_alloc?relay
   \   000012   8A..         MOV     ?V0 + 2,R2
   \   000014   8B..         MOV     ?V0 + 3,R3
     94            if ( pReportCmd != NULL )
   \   000016   EA           MOV     A,R2
   \   000017   45..         ORL     A,?V0 + 3
   \   000019   6079         JZ      ??zclLightReportEvent_0
     95            {
     96              pReportCmd->numAttr = 1;
   \   00001B   8A82         MOV     DPL,R2
   \   00001D   8B83         MOV     DPH,R3
   \   00001F   7401         MOV     A,#0x1
   \   000021   F0           MOVX    @DPTR,A
     97              pReportCmd->attrList[0].attrID = ATTRID_ON_OFF;
   \   000022   A3           INC     DPTR
   \   000023   E4           CLR     A
   \   000024   F0           MOVX    @DPTR,A
   \   000025   A3           INC     DPTR
   \   000026   12....       LCALL   ?Subroutine3 & 0xFFFF
     98              pReportCmd->attrList[0].dataType = ZCL_DATATYPE_UINT8;
   \                     ??CrossCallReturnLabel_2:
   \   000029   7420         MOV     A,#0x20
   \   00002B   12....       LCALL   ?Subroutine3 & 0xFFFF
     99              pReportCmd->attrList[0].attrData = (void *)(zclOnOffLight_OnOff);
   \                     ??CrossCallReturnLabel_3:
   \   00002E   A3           INC     DPTR
   \   00002F   E5..         MOV     A,?V0 + 0
   \   000031   F0           MOVX    @DPTR,A
   \   000032   A3           INC     DPTR
   \   000033   E5..         MOV     A,?V0 + 1
   \   000035   F0           MOVX    @DPTR,A
    100              
    101              if (afStatus_SUCCESS != zcl_SendReportCmd( endpoint, 
    102                                                        &zcl_Coord_nwkAddr,
    103                                                        ZCL_CLUSTER_ID_GEN_ON_OFF,
    104                                                        pReportCmd, ZCL_FRAME_SERVER_CLIENT_DIR, TRUE, 
    105                                                        zcl_SeqNum++ ))
   \   000036   12....       LCALL   ?Subroutine1 & 0xFFFF
   \                     ??CrossCallReturnLabel_0:
   \   000039   12....       LCALL   ?PUSH_XSTACK_I_ONE
   \   00003C   75..01       MOV     ?V0 + 0,#0x1
   \   00003F   78..         MOV     R0,#?V0 + 0
   \   000041   12....       LCALL   ?PUSH_XSTACK_I_ONE
   \   000044   78..         MOV     R0,#?V0 + 0
   \   000046   12....       LCALL   ?PUSH_XSTACK_I_ONE
   \   000049   78..         MOV     R0,#?V0 + 2
   \   00004B   12....       LCALL   ?PUSH_XSTACK_I_TWO
   \   00004E   7C06         MOV     R4,#0x6
   \   000050   7D00         MOV     R5,#0x0
   \   000052   7A..         MOV     R2,#zcl_Coord_nwkAddr & 0xff
   \   000054   7B..         MOV     R3,#(zcl_Coord_nwkAddr >> 8) & 0xff
   \   000056   EE           MOV     A,R6
   \   000057   F9           MOV     R1,A
   \   000058   12....       LCALL   ??zcl_SendReportCmd?relay
   \   00005B   7405         MOV     A,#0x5
   \   00005D   12....       LCALL   ?DEALLOC_XSTACK8
   \   000060   E9           MOV     A,R1
   \   000061   602A         JZ      ??zclLightReportEvent_1
    106              {
    107                zcl_SendReportCmd( endpoint, 
    108                                  &zcl_Coord_nwkAddr,
    109                                  ZCL_CLUSTER_ID_GEN_ON_OFF,
    110                                  pReportCmd, ZCL_FRAME_SERVER_CLIENT_DIR, TRUE, 
    111                                  zcl_SeqNum++ );
   \   000063   12....       LCALL   ?Subroutine1 & 0xFFFF
    112              }
   \                     ??CrossCallReturnLabel_1:
   \   000066   12....       LCALL   ?PUSH_XSTACK_I_ONE
   \   000069   75..01       MOV     ?V0 + 0,#0x1
   \   00006C   78..         MOV     R0,#?V0 + 0
   \   00006E   12....       LCALL   ?PUSH_XSTACK_I_ONE
   \   000071   78..         MOV     R0,#?V0 + 0
   \   000073   12....       LCALL   ?PUSH_XSTACK_I_ONE
   \   000076   78..         MOV     R0,#?V0 + 2
   \   000078   12....       LCALL   ?PUSH_XSTACK_I_TWO
   \   00007B   7C06         MOV     R4,#0x6
   \   00007D   7D00         MOV     R5,#0x0
   \   00007F   7A..         MOV     R2,#zcl_Coord_nwkAddr & 0xff
   \   000081   7B..         MOV     R3,#(zcl_Coord_nwkAddr >> 8) & 0xff
   \   000083   EE           MOV     A,R6
   \   000084   F9           MOV     R1,A
   \   000085   12....       LCALL   ??zcl_SendReportCmd?relay
   \   000088   7405         MOV     A,#0x5
   \   00008A   12....       LCALL   ?DEALLOC_XSTACK8
    113              osal_mem_free( pReportCmd );
   \                     ??zclLightReportEvent_1:
   \   00008D                ; Setup parameters for call to function osal_mem_free
   \   00008D   AA..         MOV     R2,?V0 + 2
   \   00008F   AB..         MOV     R3,?V0 + 3
   \   000091   12....       LCALL   ??osal_mem_free?relay
    114            }
    115          }
   \                     ??zclLightReportEvent_0:
   \   000094   7F06         MOV     R7,#0x6
   \   000096   02....       LJMP    ?BANKED_LEAVE_XDATA

   \                                 In  segment BANKED_CODE, align 1, keep-with-next
   \                     ?Subroutine3:
   \   000000   F0           MOVX    @DPTR,A
   \   000001   8A82         MOV     DPL,R2
   \   000003   8B83         MOV     DPH,R3
   \   000005   A3           INC     DPTR
   \   000006   A3           INC     DPTR
   \   000007   A3           INC     DPTR
   \   000008   22           RET

   \                                 In  segment BANKED_CODE, align 1, keep-with-next
   \                     ?Subroutine1:
   \   000000   90....       MOV     DPTR,#zcl_SeqNum
   \   000003   E0           MOVX    A,@DPTR
   \   000004   F8           MOV     R0,A
   \   000005   7401         MOV     A,#0x1
   \   000007   28           ADD     A,R0
   \   000008   F0           MOVX    @DPTR,A
   \   000009                ; Setup parameters for call to function zcl_SendReportCmd
   \   000009                ; Setup parameters for call to function zcl_SendReportCmd
   \   000009   E8           MOV     A,R0
   \   00000A   F5..         MOV     ?V0 + 0,A
   \   00000C   78..         MOV     R0,#?V0 + 0
   \   00000E   22           RET
    116          /*********************************************************************
    117           * @fn      zclTouchPanelEvent
    118           *
    119           * @brief   按键开关
    120           *          
    121           * @param   none
    122           *
    123           * @return  none
    124           */

   \                                 In  segment BANKED_CODE, align 1, keep-with-next
    125          void zclTouchPanelEvent(void)
   \                     zclTouchPanelEvent:
    126          {
   \   000000   C082         PUSH    DPL
   \   000002   C083         PUSH    DPH
   \   000004                ; Saved register size: 2
   \   000004                ; Auto size: 0
    127            int done = 0;
   \   000004   7800         MOV     R0,#0x0
    128            if( zcl_interruptNo & 1 ) {
   \   000006   90....       MOV     DPTR,#zcl_interruptNo
   \   000009   E0           MOVX    A,@DPTR
   \   00000A   A2E0         MOV     C,0xE0 /* A   */.0
   \   00000C   5024         JNC     ??zclTouchPanelEvent_0
    129              if (P0_0 == 0) {
   \   00000E   A280         MOV     C,0x80.0
   \   000010   401E         JC      ??zclTouchPanelEvent_1
    130                if (zclOnOffLight0_OnOff == LIGHT_ON) {
   \   000012   90....       MOV     DPTR,#zclOnOffLight0_OnOff
   \   000015   E0           MOVX    A,@DPTR
   \   000016   6401         XRL     A,#0x1
   \   000018   7006         JNZ     ??zclTouchPanelEvent_2
    131                  zclOnOffLight0_OnOff = LIGHT_OFF;
   \   00001A   E4           CLR     A
   \   00001B   F0           MOVX    @DPTR,A
    132                  LIGHT_TURN_OFF_LIGHT0();
   \   00001C   C282         CLR     0x80.2
   \   00001E   8005         SJMP    ??zclTouchPanelEvent_3
    133                } else {
    134                  zclOnOffLight0_OnOff = LIGHT_ON;
   \                     ??zclTouchPanelEvent_2:
   \   000020   7401         MOV     A,#0x1
   \   000022   F0           MOVX    @DPTR,A
    135                  LIGHT_TURN_ON_LIGHT0();
   \   000023   D282         SETB    0x80.2
    136                }
    137                zclLightReportEvent(ONOFFLIGHT0_ENDPOINT, &zclOnOffLight0_OnOff); 
   \                     ??zclTouchPanelEvent_3:
   \   000025                ; Setup parameters for call to function zclLightReportEvent
   \   000025   7C..         MOV     R4,#zclOnOffLight0_OnOff & 0xff
   \   000027   7D..         MOV     R5,#(zclOnOffLight0_OnOff >> 8) & 0xff
   \   000029   7A10         MOV     R2,#0x10
   \   00002B   7B00         MOV     R3,#0x0
   \   00002D   12....       LCALL   ??zclLightReportEvent?relay
    138                //done = 1;
    139              }
    140              done = 1;
   \                     ??zclTouchPanelEvent_1:
   \   000030   7801         MOV     R0,#0x1
    141            }
    142            
    143            zcl_interruptNo = 0;
   \                     ??zclTouchPanelEvent_0:
   \   000032   90....       MOV     DPTR,#zcl_interruptNo
   \   000035   E4           CLR     A
   \   000036   F0           MOVX    @DPTR,A
    144            if(done) 
   \   000037   E8           MOV     A,R0
   \   000038   A2E0         MOV     C,0xE0 /* A   */.0
   \   00003A   5009         JNC     ??CrossCallReturnLabel_5
    145            {
    146              osal_start_timerEx(zclOnOffLight_TaskID, 
    147                                 ZCL_DEVICE_RESTORE_INTERRUPT_EVENT,
    148                                 80);
   \   00003C                ; Setup parameters for call to function osal_start_timerEx
   \   00003C   7C50         MOV     R4,#0x50
   \   00003E   7D00         MOV     R5,#0x0
   \   000040   7A20         MOV     R2,#0x20
   \   000042   12....       LCALL   ?Subroutine2 & 0xFFFF
    149            }
    150          }
   \                     ??CrossCallReturnLabel_5:
   \   000045   02....       LJMP    ?Subroutine0 & 0xFFFF
   \   000048                REQUIRE _A_P0
    151          /*********************************************************************
    152           * @fn      zclRestoreInterruptEvent
    153           *
    154           * @brief   开中断
    155           *          
    156           * @param   none
    157           *
    158           * @return  none
    159           */

   \                                 In  segment BANKED_CODE, align 1, keep-with-next
    160          void zclRestoreInterruptEvent(void)
   \                     zclRestoreInterruptEvent:
    161          {
   \   000000                ; Saved register size: 0
   \   000000                ; Auto size: 0
    162            P0IFG =0;
   \   000000   758900       MOV     0x89,#0x0
    163            P0IF = 0;
   \   000003   C2C5         CLR     0xc0.5
    164            P0IEN |= BV(0);
   \   000005   43AB01       ORL     0xab,#0x1
    165            P0IEN |= BV(7);
   \   000008   43AB80       ORL     0xab,#0x80
    166          }
   \   00000B   02....       LJMP    ?BRET
   \   00000E                REQUIRE P0IFG
   \   00000E                REQUIRE _A_IRCON
   \   00000E                REQUIRE P0IEN
    167          /*********************************************************************
    168           * @fn      zclFactoryResetEvent
    169           *
    170           * @brief   长按<6s指示灯常亮松开重启，长按>=6s复位指示灯快闪
    171           *          
    172           * @param   none
    173           *
    174           * @return  none
    175           */

   \                                 In  segment BANKED_CODE, align 1, keep-with-next
    176          void zclFactoryResetEvent(void)
   \                     zclFactoryResetEvent:
    177          {
   \   000000   74F6         MOV     A,#-0xa
   \   000002   12....       LCALL   ?BANKED_ENTER_XDATA
   \   000005                ; Saved register size: 10
   \   000005                ; Auto size: 0
    178            if( P0_7 == 0 ){
   \   000005   A287         MOV     C,0x80.7
   \   000007   90....       MOV     DPTR,#zcl_factoryReset
   \   00000A   E0           MOVX    A,@DPTR
   \   00000B   405D         JC      ??zclFactoryResetEvent_0
    179              if (zcl_factoryReset >= ZCL_FACTORY_RESET_TIMECOUNT) 
   \   00000D   C3           CLR     C
   \   00000E   9414         SUBB    A,#0x14
   \   000010   4040         JC      ??zclFactoryResetEvent_1
    180              {
    181                if(zcl_Led_Blink == 0)
   \   000012   90....       MOV     DPTR,#zcl_Led_Blink
   \   000015   E0           MOVX    A,@DPTR
   \   000016   6003         JZ      $+5
   \   000018   02....       LJMP    ??CrossCallReturnLabel_7 & 0xFFFF
    182                {
    183                  osal_start_timerEx(zclOnOffLight_TaskID, 
    184                                     ZCL_DEVICE_SOFT_RESTART_EVENT,
    185                                     ZCL_FACTORY_RESET_HINT);
   \   00001B                ; Setup parameters for call to function osal_start_timerEx
   \   00001B   7CC8         MOV     R4,#-0x38
   \   00001D   7D00         MOV     R5,#0x0
   \   00001F   7A40         MOV     R2,#0x40
   \   000021   12....       LCALL   ?Subroutine2 & 0xFFFF
    186                  ReJoinNetFlagInFlash[0] = 0x01;//表示设备复位重启
   \                     ??CrossCallReturnLabel_6:
   \   000024   90....       MOV     DPTR,#ReJoinNetFlagInFlash
   \   000027   7401         MOV     A,#0x1
   \   000029   F0           MOVX    @DPTR,A
    187                  osal_nv_write(ZDAPP_NV_SYSTEM_RESTART_FLAG,0,sizeof(ReJoinNetFlagInFlash),ReJoinNetFlagInFlash);
   \   00002A                ; Setup parameters for call to function osal_nv_write
   \   00002A   75....       MOV     ?V0 + 0,#ReJoinNetFlagInFlash & 0xff
   \   00002D   75....       MOV     ?V0 + 1,#(ReJoinNetFlagInFlash >> 8) & 0xff
   \   000030   78..         MOV     R0,#?V0 + 0
   \   000032   12....       LCALL   ?PUSH_XSTACK_I_TWO
   \   000035   75..01       MOV     ?V0 + 0,#0x1
   \   000038   75..00       MOV     ?V0 + 1,#0x0
   \   00003B   78..         MOV     R0,#?V0 + 0
   \   00003D   12....       LCALL   ?PUSH_XSTACK_I_TWO
   \   000040   7C00         MOV     R4,#0x0
   \   000042   7D00         MOV     R5,#0x0
   \   000044   7A01         MOV     R2,#0x1
   \   000046   7B04         MOV     R3,#0x4
   \   000048   12....       LCALL   ??osal_nv_write?relay
   \   00004B   7404         MOV     A,#0x4
   \   00004D   12....       LCALL   ?DEALLOC_XSTACK8
   \   000050   8049         SJMP    ??CrossCallReturnLabel_7
    188                }
    189              }else{
    190                LED_RED_ON();
   \                     ??zclFactoryResetEvent_1:
   \   000052   D285         SETB    0x80.5
    191                ledcontorl = 1;
   \   000054   90....       MOV     DPTR,#ledcontorl
   \   000057   7401         MOV     A,#0x1
   \   000059   F0           MOVX    @DPTR,A
    192                zcl_factoryReset ++;
   \   00005A   90....       MOV     DPTR,#zcl_factoryReset
   \   00005D   E0           MOVX    A,@DPTR
   \   00005E   04           INC     A
   \   00005F   F0           MOVX    @DPTR,A
    193                osal_start_timerEx(zclOnOffLight_TaskID, 
    194                                   ZCL_DEVICE_RESET_EVENT,
    195                                   300);
   \   000060                ; Setup parameters for call to function osal_start_timerEx
   \   000060   7C2C         MOV     R4,#0x2c
   \   000062   7D01         MOV     R5,#0x1
   \   000064   7A00         MOV     R2,#0x0
   \   000066   7B04         MOV     R3,#0x4
   \   000068   802E         SJMP    ??zclFactoryResetEvent_2
    196                
    197              }
    198            }
    199            else 
    200            {
    201              if(( zcl_factoryReset < 20 ) && ( P0_7 == 1 ))
   \                     ??zclFactoryResetEvent_0:
   \   00006A   C3           CLR     C
   \   00006B   9414         SUBB    A,#0x14
   \   00006D   500E         JNC     ??zclFactoryResetEvent_3
   \   00006F   A287         MOV     C,0x80.7
   \   000071   500A         JNC     ??zclFactoryResetEvent_3
    202              {
    203                LED_RED_OFF();
   \   000073   C285         CLR     0x80.5
    204                P0IEN |= BV(7);
   \   000075   43AB80       ORL     0xab,#0x80
    205                zcl_factoryReset = 0;
   \   000078   E4           CLR     A
   \   000079   F0           MOVX    @DPTR,A
    206                SystemResetSoft();
   \   00007A                ; Setup parameters for call to function Onboard_soft_reset
   \   00007A   12....       LCALL   Onboard_soft_reset & 0xFFFF
    207              }
    208              LED_RED_OFF();
   \                     ??zclFactoryResetEvent_3:
   \   00007D   C285         CLR     0x80.5
    209              P0IEN |= BV(7);
   \   00007F   43AB80       ORL     0xab,#0x80
    210              zcl_factoryReset = 0;
   \   000082   E4           CLR     A
   \   000083   F0           MOVX    @DPTR,A
    211              if (zclDevice_NwkState != DEV_ROUTER )
   \   000084   90....       MOV     DPTR,#zclDevice_NwkState
   \   000087   E0           MOVX    A,@DPTR
   \   000088   6407         XRL     A,#0x7
   \   00008A   600F         JZ      ??CrossCallReturnLabel_7
    212              {
    213                ledcontorl = 0;
   \   00008C   90....       MOV     DPTR,#ledcontorl
   \   00008F   E4           CLR     A
   \   000090   F0           MOVX    @DPTR,A
    214                osal_start_timerEx(zclOnOffLight_TaskID, 
    215                                   ZCL_DEVICE_EXIT_NETWORK_EVENT,
    216                                   2000);
   \   000091                ; Setup parameters for call to function osal_start_timerEx
   \   000091   7CD0         MOV     R4,#-0x30
   \   000093   7D07         MOV     R5,#0x7
   \   000095   FA           MOV     R2,A
   \   000096   7B10         MOV     R3,#0x10
    217              }
    218            }
   \                     ??zclFactoryResetEvent_2:
   \   000098   12....       LCALL   ??Subroutine4_0 & 0xFFFF
    219          }
   \                     ??CrossCallReturnLabel_7:
   \   00009B   7F02         MOV     R7,#0x2
   \   00009D   02....       LJMP    ?BANKED_LEAVE_XDATA
   \   0000A0                REQUIRE _A_P0
   \   0000A0                REQUIRE P0IEN
    220          

   \                                 In  segment NEAR_CODE, align 1, keep-with-next
    221          HAL_ISR_FUNCTION(zclLightControlPort0Isr, P0INT_VECTOR)
   \                     zclLightControlPort0Isr:
    222          {
   \   000000   C0E0         PUSH    A
   \   000002   74F2         MOV     A,#-0xe
   \   000004   12....       LCALL   ?INTERRUPT_ENTER_XSP
   \   000007                ; Saved register size: 15
   \   000007                ; Auto size: 0
    223            HAL_ENTER_ISR();
   \   000007   A2AF         MOV     C,0xa8.7
   \   000009   E4           CLR     A
   \   00000A   33           RLC     A
   \   00000B   FE           MOV     R6,A
   \   00000C   D2AF         SETB    0xa8.7
    224            
    225            zcl_interruptNo = 0;
   \   00000E   90....       MOV     DPTR,#zcl_interruptNo
   \   000011   E4           CLR     A
   \   000012   F0           MOVX    @DPTR,A
    226            if (P0IFG & 0x01) {//p0_0
   \   000013   E589         MOV     A,0x89
   \   000015   A2E0         MOV     C,0xE0 /* A   */.0
   \   000017   5006         JNC     ??zclLightControlPort0Isr_0
    227              P0IEN &= ~BV(0);
   \   000019   53ABFE       ANL     0xab,#0xfe
    228              zcl_interruptNo |= 1;
   \   00001C   7401         MOV     A,#0x1
   \   00001E   F0           MOVX    @DPTR,A
    229            }
    230            if (P0IFG & 0x80) {//p0_7
    231              if(zcl_interruptNo == 0)
   \                     ??zclLightControlPort0Isr_0:
   \   00001F   E589         MOV     A,0x89
   \   000021   A2E7         MOV     C,0xE0 /* A   */.7
   \   000023   501B         JNC     ??zclLightControlPort0Isr_1
   \   000025   E0           MOVX    A,@DPTR
   \   000026   A2E0         MOV     C,0xE0 /* A   */.0
   \   000028   4016         JC      ??zclLightControlPort0Isr_1
    232              {
    233                P0IEN &= ~BV(7);
   \   00002A   53AB7F       ANL     0xab,#0x7f
    234                zcl_factoryReset = 0;
   \   00002D   90....       MOV     DPTR,#zcl_factoryReset
   \   000030   E4           CLR     A
   \   000031   F0           MOVX    @DPTR,A
    235                osal_start_timerEx(zclOnOffLight_TaskID, 
    236                                   ZCL_DEVICE_RESET_1_EVENT,
    237                                   100);
   \   000032                ; Setup parameters for call to function osal_start_timerEx
   \   000032   7C64         MOV     R4,#0x64
   \   000034   FD           MOV     R5,A
   \   000035   FA           MOV     R2,A
   \   000036   7B08         MOV     R3,#0x8
   \   000038   90....       MOV     DPTR,#zclOnOffLight_TaskID
   \   00003B   E0           MOVX    A,@DPTR
   \   00003C   F9           MOV     R1,A
   \   00003D   12....       LCALL   ??osal_start_timerEx?relay
    238              }
    239            }
    240            if( zcl_interruptNo ) 
   \                     ??zclLightControlPort0Isr_1:
   \   000040   90....       MOV     DPTR,#zcl_interruptNo
   \   000043   E0           MOVX    A,@DPTR
   \   000044   6010         JZ      ??zclLightControlPort0Isr_2
    241            {
    242              osal_start_timerEx(zclOnOffLight_TaskID, 
    243                                 ZCL_DEVICE_TOUCHPANEL_EVENT,
    244                                 100);
   \   000046                ; Setup parameters for call to function osal_start_timerEx
   \   000046   7C64         MOV     R4,#0x64
   \   000048   7D00         MOV     R5,#0x0
   \   00004A   7A10         MOV     R2,#0x10
   \   00004C   7B00         MOV     R3,#0x0
   \   00004E   90....       MOV     DPTR,#zclOnOffLight_TaskID
   \   000051   E0           MOVX    A,@DPTR
   \   000052   F9           MOV     R1,A
   \   000053   12....       LCALL   ??osal_start_timerEx?relay
    245            }
    246            
    247            P0IFG = 0;
   \                     ??zclLightControlPort0Isr_2:
   \   000056   758900       MOV     0x89,#0x0
    248            P0IF = 0;
   \   000059   C2C5         CLR     0xc0.5
    249            CLEAR_SLEEP_MODE();
    250            HAL_EXIT_ISR();
   \   00005B   EE           MOV     A,R6
   \   00005C   A2E0         MOV     C,0xE0 /* A   */.0
   \   00005E   92AF         MOV     0xa8.7,C
    251          }
   \   000060   7F01         MOV     R7,#0x1
   \   000062   02....       LJMP    ?INTERRUPT_LEAVE_XSP
   \   000065                REQUIRE _A_IEN0
   \   000065                REQUIRE P0IFG
   \   000065                REQUIRE P0IEN
   \   000065                REQUIRE _A_IRCON

   \                                 In  segment INTVEC, offset 0x6b, root
   \                     `??zclLightControlPort0Isr??INTVEC 107`:
   \   00006B   02....       LJMP       (zclLightControlPort0Isr)

   \                                 In  segment BANK_RELAYS, align 1
   \                     ??zclLightControlInit?relay:
   \   000000   12....       LCALL   ?BDISPATCH
   \   000003   ......       DC24    zclLightControlInit

   \                                 In  segment BANK_RELAYS, align 1
   \                     ??zclLightControlTouchPanelEnable?relay:
   \   000000   12....       LCALL   ?BDISPATCH
   \   000003   ......       DC24    zclLightControlTouchPanelEnable

   \                                 In  segment BANK_RELAYS, align 1
   \                     ??zclLightReportEvent?relay:
   \   000000   12....       LCALL   ?BDISPATCH
   \   000003   ......       DC24    zclLightReportEvent

   \                                 In  segment BANK_RELAYS, align 1
   \                     ??zclTouchPanelEvent?relay:
   \   000000   12....       LCALL   ?BDISPATCH
   \   000003   ......       DC24    zclTouchPanelEvent

   \                                 In  segment BANK_RELAYS, align 1
   \                     ??zclRestoreInterruptEvent?relay:
   \   000000   12....       LCALL   ?BDISPATCH
   \   000003   ......       DC24    zclRestoreInterruptEvent

   \                                 In  segment BANK_RELAYS, align 1
   \                     ??zclFactoryResetEvent?relay:
   \   000000   12....       LCALL   ?BDISPATCH
   \   000003   ......       DC24    zclFactoryResetEvent

   Maximum stack usage in bytes:

     Function                       ISTACK PSTACK XSTACK
     --------                       ------ ------ ------
     zclFactoryResetEvent               0      0     14
       -> osal_start_timerEx            0      0     20
       -> osal_nv_write                 0      0     28
       -> osal_start_timerEx            0      0     20
       -> Onboard_soft_reset            0      0     20
       -> osal_start_timerEx            0      0     20
     zclLightControlInit                2      0      0
       -> osal_start_timerEx            4      0      0
     zclLightControlPort0Isr           15      0      0
       -> osal_start_timerEx           30      0      0
       -> osal_start_timerEx           30      0      0
     zclLightControlTouchPanelEnable
                                        0      0      0
     zclLightReportEvent                0      0     19
       -> osal_mem_alloc                0      0     28
       -> zcl_SendReportCmd             0      0     38
       -> zcl_SendReportCmd             0      0     38
       -> osal_mem_free                 0      0     28
     zclRestoreInterruptEvent           0      0      0
     zclTouchPanelEvent                 2      0      0
       -> zclLightReportEvent           4      0      0
       -> osal_start_timerEx            4      0      0


   Segment part sizes:

     Function/Label                          Bytes
     --------------                          -----
     _A_P0                                      1
     P0IFG                                      1
     PICTL                                      1
     P0INP                                      1
     _A_IEN0                                    1
     P0IEN                                      1
     _A_IEN1                                    1
     _A_IRCON                                   1
     P0SEL                                      1
     P2INP                                      1
     P0DIR                                      1
     zcl_Coord_nwkAddr                         12
     zcl_SeqNum                                 1
     zcl_interruptNo                            1
     zcl_factoryReset                           1
     zclLightControlInit                       46
     ?Subroutine0                               7
     ?Subroutine2                               2
     ??Subroutine4_0                            9
     zclLightControlTouchPanelEnable
                                               40
     zclLightReportEvent                      153
     ?Subroutine3                               9
     ?Subroutine1                              15
     zclTouchPanelEvent                        72
     zclRestoreInterruptEvent                  14
     zclFactoryResetEvent                     160
     zclLightControlPort0Isr                  101
     ??zclLightControlPort0Isr??INTVEC 107      3
     ??zclLightControlInit?relay                6
     ??zclLightControlTouchPanelEnable?relay    6
     ??zclLightReportEvent?relay                6
     ??zclTouchPanelEvent?relay                 6
     ??zclRestoreInterruptEvent?relay           6
     ??zclFactoryResetEvent?relay               6

 
 527 bytes in segment BANKED_CODE
  36 bytes in segment BANK_RELAYS
   3 bytes in segment INTVEC
 101 bytes in segment NEAR_CODE
  11 bytes in segment SFR_AN
  15 bytes in segment XDATA_Z
 
 664 bytes of CODE  memory (+  3 bytes shared)
   0 bytes of DATA  memory (+ 11 bytes shared)
  15 bytes of XDATA memory

Errors: none
Warnings: none
