///////////////////////////////////////////////////////////////////////////////
//                                                                            /
// IAR C/C++ Compiler V8.10.1.10194/W32 for 8051        19/Jun/2017  14:40:21 /
// Copyright 2004-2011 IAR Systems AB.                                        /
//                                                                            /
//    Core               =  plain                                             /
//    Code model         =  banked                                            /
//    Data model         =  large                                             /
//    Calling convention =  xdata reentrant                                   /
//    Constant location  =  data_rom                                          /
//    Dptr setup         =  1,16                                              /
//    Source file        =  D:\work space\Smart Product\Two                   /
//                          YHY\SmartLightSwitch\one\v1.04.0\ZStack-CC2530-2. /
//                          5.1a Green V3.1 02\Projects\zstack\HomeAutomation /
//                          \SmartSwitchLight\Source\zcl_onofflight.c         /
//    Command line       =  -f "D:\work space\Smart Product\Two               /
//                          YHY\SmartLightSwitch\one\v1.04.0\ZStack-CC2530-2. /
//                          5.1a Green V3.1 02\Projects\zstack\HomeAutomation /
//                          \SmartSwitchLight\CC2530DB\..\Tools\CC2530DB\f8wR /
//                          outer.cfg" (-DCPU32MHZ -DROOT=__near_func         /
//                          -DMAC_CFG_APP_PENDING_QUEUE=TRUE                  /
//                          -DMAC_CFG_TX_DATA_MAX=5 -DMAC_CFG_TX_MAX=8        /
//                          -DMAC_CFG_RX_MAX=5 -DRTR_NWK -DNV_RESTORE         /
//                          -DNV_INIT -DHAL_PA_LNA -DHAL_KEY=FALSE            /
//                          -DHAL_LED=FALSE -DHAL_LCD=FALSE -DHAL_ADC=FALSE   /
//                          -DWDT_IN_PM1 -DTC_LINKKEY_JOIN                    /
//                          -DMAX_NEIGHBOR_ENTRIES=48 -DTVSA_DATA_CNF=1       /
//                          -DPACKET_FILTER_STATS -DNWK_LINK_STATUS_PERIOD=60 /
//                          ) -f "D:\work space\Smart Product\Two             /
//                          YHY\SmartLightSwitch\one\v1.04.0\ZStack-CC2530-2. /
//                          5.1a Green V3.1 02\Projects\zstack\HomeAutomation /
//                          \SmartSwitchLight\CC2530DB\..\Tools\CC2530DB\f8wC /
//                          onfig.cfg" (-DZIGBEEPRO -DSECURE=1                /
//                          -DZG_SECURE_DYNAMIC=0 -DREFLECTOR                 /
//                          -DDEFAULT_CHANLIST=0x06108800                     /
//                          -DZDAPP_CONFIG_PAN_ID=0xFFFF                      /
//                          -DNWK_START_DELAY=100 -DEXTENDED_JOINING_RANDOM_M /
//                          ASK=0x007F -DBEACON_REQUEST_DELAY=1000            /
//                          -DBEACON_REQ_DELAY_MASK=0x00FF                    /
//                          -DLINK_STATUS_JITTER_MASK=0x007F                  /
//                          -DROUTE_EXPIRY_TIME=30 -DAPSC_ACK_WAIT_DURATION_P /
//                          OLLED=3000 -DNWK_INDIRECT_MSG_TIMEOUT=7           /
//                          -DMAX_RREQ_ENTRIES=8 -DAPSC_MAX_FRAME_RETRIES=3   /
//                          -DNWK_MAX_DATA_RETRIES=2                          /
//                          -DMAX_POLL_FAILURE_RETRIES=2 -DMAX_BCAST=9        /
//                          -DAPS_MAX_GROUPS=16 -DMAX_RTG_ENTRIES=40          /
//                          -DNWK_MAX_BINDING_ENTRIES=4                       /
//                          -DMAX_BINDING_CLUSTER_IDS=4                       /
//                          -DDEFAULT_KEY={0x79,0x69,0x20,0x68,0x75,0x69,     /
//                          0x20,0x79,0x75,0x6E,0x20,0x73,0x6D,0x61,0x72,     /
//                          0x74} -DMAC_MAX_FRAME_SIZE=116                    /
//                          -DZDNWKMGR_MIN_TRANSMISSIONS=20 "-DCONST=const    /
//                          __code" -DGENERIC=__generic                       /
//                          -DRFD_RCVC_ALWAYS_ON=TRUE -DPOLL_RATE=0           /
//                          -DQUEUED_POLL_RATE=0 -DRESPONSE_POLL_RATE=0       /
//                          -DREJOIN_POLL_RATE=440) -f "D:\work space\Smart   /
//                          Product\Two YHY\SmartLightSwitch\one\v1.04.0\ZSta /
//                          ck-CC2530-2.5.1a Green V3.1                       /
//                          02\Projects\zstack\HomeAutomation\SmartSwitchLigh /
//                          t\CC2530DB\..\Tools\CC2530DB\f8wZCL.cfg"          /
//                          (-DZCL_READ -DZCL_WRITE -DZCL_REPORT -DZCL_BASIC  /
//                          -DZCL_IDENTIFY -DZCL_ON_OFF -DZCL_KEY_ESTABLISH   /
//                          -DZCL_KEY_ESTABLISHMENT_KEY_GENERATE_TIMEOUT=4    /
//                          -DZCL_KEY_ESTABLISHMENT_MAC_GENERATE_TIMEOUT=10   /
//                          -DZCL_KEY_ESTABLISHMENT_EKEY_GENERATE_TIMEOUT=10  /
//                          -DZCL_LOAD_CONTROL -DZCL_SIMPLE_METERING          /
//                          -DZCL_PRICING -DZCL_MESSAGE -DZCL_TUNNELING       /
//                          -DZCL_TOU) -DZCL_DEVICE_MGMT "D:\work             /
//                          space\Smart Product\Two                           /
//                          YHY\SmartLightSwitch\one\v1.04.0\ZStack-CC2530-2. /
//                          5.1a Green V3.1 02\Projects\zstack\HomeAutomation /
//                          \SmartSwitchLight\Source\zcl_onofflight.c" -lC    /
//                          "D:\work space\Smart Product\Two                  /
//                          YHY\SmartLightSwitch\one\v1.04.0\ZStack-CC2530-2. /
//                          5.1a Green V3.1 02\Projects\zstack\HomeAutomation /
//                          \SmartSwitchLight\CC2530DB\RouterDeviceEB\List\"  /
//                          -lA "D:\work space\Smart Product\Two              /
//                          YHY\SmartLightSwitch\one\v1.04.0\ZStack-CC2530-2. /
//                          5.1a Green V3.1 02\Projects\zstack\HomeAutomation /
//                          \SmartSwitchLight\CC2530DB\RouterDeviceEB\List\"  /
//                          --diag_suppress Pe001,Pa010 -o "D:\work           /
//                          space\Smart Product\Two                           /
//                          YHY\SmartLightSwitch\one\v1.04.0\ZStack-CC2530-2. /
//                          5.1a Green V3.1 02\Projects\zstack\HomeAutomation /
//                          \SmartSwitchLight\CC2530DB\RouterDeviceEB\Obj\"   /
//                          -e --debug --core=plain --dptr=16,1               /
//                          --data_model=large --code_model=banked            /
//                          --calling_convention=xdata_reentrant              /
//                          --place_constants=data_rom --nr_virtual_regs 16   /
//                          -I "D:\work space\Smart Product\Two               /
//                          YHY\SmartLightSwitch\one\v1.04.0\ZStack-CC2530-2. /
//                          5.1a Green V3.1 02\Projects\zstack\HomeAutomation /
//                          \SmartSwitchLight\CC2530DB\" -I "D:\work          /
//                          space\Smart Product\Two                           /
//                          YHY\SmartLightSwitch\one\v1.04.0\ZStack-CC2530-2. /
//                          5.1a Green V3.1 02\Projects\zstack\HomeAutomation /
//                          \SmartSwitchLight\CC2530DB\..\Source\" -I         /
//                          "D:\work space\Smart Product\Two                  /
//                          YHY\SmartLightSwitch\one\v1.04.0\ZStack-CC2530-2. /
//                          5.1a Green V3.1 02\Projects\zstack\HomeAutomation /
//                          \SmartSwitchLight\CC2530DB\..\..\Source\" -I      /
//                          "D:\work space\Smart Product\Two                  /
//                          YHY\SmartLightSwitch\one\v1.04.0\ZStack-CC2530-2. /
//                          5.1a Green V3.1 02\Projects\zstack\HomeAutomation /
//                          \SmartSwitchLight\CC2530DB\..\..\..\ZMain\TI2530D /
//                          B\" -I "D:\work space\Smart Product\Two           /
//                          YHY\SmartLightSwitch\one\v1.04.0\ZStack-CC2530-2. /
//                          5.1a Green V3.1 02\Projects\zstack\HomeAutomation /
//                          \SmartSwitchLight\CC2530DB\..\..\..\..\..\Compone /
//                          nts\hal\include\" -I "D:\work space\Smart         /
//                          Product\Two YHY\SmartLightSwitch\one\v1.04.0\ZSta /
//                          ck-CC2530-2.5.1a Green V3.1                       /
//                          02\Projects\zstack\HomeAutomation\SmartSwitchLigh /
//                          t\CC2530DB\..\..\..\..\..\Components\hal\target\C /
//                          C2530EB\" -I "D:\work space\Smart Product\Two     /
//                          YHY\SmartLightSwitch\one\v1.04.0\ZStack-CC2530-2. /
//                          5.1a Green V3.1 02\Projects\zstack\HomeAutomation /
//                          \SmartSwitchLight\CC2530DB\..\..\..\..\..\Compone /
//                          nts\mac\include\" -I "D:\work space\Smart         /
//                          Product\Two YHY\SmartLightSwitch\one\v1.04.0\ZSta /
//                          ck-CC2530-2.5.1a Green V3.1                       /
//                          02\Projects\zstack\HomeAutomation\SmartSwitchLigh /
//                          t\CC2530DB\..\..\..\..\..\Components\mac\high_lev /
//                          el\" -I "D:\work space\Smart Product\Two          /
//                          YHY\SmartLightSwitch\one\v1.04.0\ZStack-CC2530-2. /
//                          5.1a Green V3.1 02\Projects\zstack\HomeAutomation /
//                          \SmartSwitchLight\CC2530DB\..\..\..\..\..\Compone /
//                          nts\mac\low_level\srf04\" -I "D:\work             /
//                          space\Smart Product\Two                           /
//                          YHY\SmartLightSwitch\one\v1.04.0\ZStack-CC2530-2. /
//                          5.1a Green V3.1 02\Projects\zstack\HomeAutomation /
//                          \SmartSwitchLight\CC2530DB\..\..\..\..\..\Compone /
//                          nts\mac\low_level\srf04\single_chip\" -I          /
//                          "D:\work space\Smart Product\Two                  /
//                          YHY\SmartLightSwitch\one\v1.04.0\ZStack-CC2530-2. /
//                          5.1a Green V3.1 02\Projects\zstack\HomeAutomation /
//                          \SmartSwitchLight\CC2530DB\..\..\..\..\..\Compone /
//                          nts\mt\" -I "D:\work space\Smart Product\Two      /
//                          YHY\SmartLightSwitch\one\v1.04.0\ZStack-CC2530-2. /
//                          5.1a Green V3.1 02\Projects\zstack\HomeAutomation /
//                          \SmartSwitchLight\CC2530DB\..\..\..\..\..\Compone /
//                          nts\osal\include\" -I "D:\work space\Smart        /
//                          Product\Two YHY\SmartLightSwitch\one\v1.04.0\ZSta /
//                          ck-CC2530-2.5.1a Green V3.1                       /
//                          02\Projects\zstack\HomeAutomation\SmartSwitchLigh /
//                          t\CC2530DB\..\..\..\..\..\Components\services\sad /
//                          dr\" -I "D:\work space\Smart Product\Two          /
//                          YHY\SmartLightSwitch\one\v1.04.0\ZStack-CC2530-2. /
//                          5.1a Green V3.1 02\Projects\zstack\HomeAutomation /
//                          \SmartSwitchLight\CC2530DB\..\..\..\..\..\Compone /
//                          nts\services\sdata\" -I "D:\work space\Smart      /
//                          Product\Two YHY\SmartLightSwitch\one\v1.04.0\ZSta /
//                          ck-CC2530-2.5.1a Green V3.1                       /
//                          02\Projects\zstack\HomeAutomation\SmartSwitchLigh /
//                          t\CC2530DB\..\..\..\..\..\Components\stack\af\"   /
//                          -I "D:\work space\Smart Product\Two               /
//                          YHY\SmartLightSwitch\one\v1.04.0\ZStack-CC2530-2. /
//                          5.1a Green V3.1 02\Projects\zstack\HomeAutomation /
//                          \SmartSwitchLight\CC2530DB\..\..\..\..\..\Compone /
//                          nts\stack\nwk\" -I "D:\work space\Smart           /
//                          Product\Two YHY\SmartLightSwitch\one\v1.04.0\ZSta /
//                          ck-CC2530-2.5.1a Green V3.1                       /
//                          02\Projects\zstack\HomeAutomation\SmartSwitchLigh /
//                          t\CC2530DB\..\..\..\..\..\Components\stack\sapi\" /
//                           -I "D:\work space\Smart Product\Two              /
//                          YHY\SmartLightSwitch\one\v1.04.0\ZStack-CC2530-2. /
//                          5.1a Green V3.1 02\Projects\zstack\HomeAutomation /
//                          \SmartSwitchLight\CC2530DB\..\..\..\..\..\Compone /
//                          nts\stack\sec\" -I "D:\work space\Smart           /
//                          Product\Two YHY\SmartLightSwitch\one\v1.04.0\ZSta /
//                          ck-CC2530-2.5.1a Green V3.1                       /
//                          02\Projects\zstack\HomeAutomation\SmartSwitchLigh /
//                          t\CC2530DB\..\..\..\..\..\Components\stack\sys\"  /
//                          -I "D:\work space\Smart Product\Two               /
//                          YHY\SmartLightSwitch\one\v1.04.0\ZStack-CC2530-2. /
//                          5.1a Green V3.1 02\Projects\zstack\HomeAutomation /
//                          \SmartSwitchLight\CC2530DB\..\..\..\..\..\Compone /
//                          nts\stack\zcl\" -I "D:\work space\Smart           /
//                          Product\Two YHY\SmartLightSwitch\one\v1.04.0\ZSta /
//                          ck-CC2530-2.5.1a Green V3.1                       /
//                          02\Projects\zstack\HomeAutomation\SmartSwitchLigh /
//                          t\CC2530DB\..\..\..\..\..\Components\stack\zdo\"  /
//                          -I "D:\work space\Smart Product\Two               /
//                          YHY\SmartLightSwitch\one\v1.04.0\ZStack-CC2530-2. /
//                          5.1a Green V3.1 02\Projects\zstack\HomeAutomation /
//                          \SmartSwitchLight\CC2530DB\..\..\..\..\..\Compone /
//                          nts\zmac\" -I "D:\work space\Smart Product\Two    /
//                          YHY\SmartLightSwitch\one\v1.04.0\ZStack-CC2530-2. /
//                          5.1a Green V3.1 02\Projects\zstack\HomeAutomation /
//                          \SmartSwitchLight\CC2530DB\..\..\..\..\..\Compone /
//                          nts\zmac\f8w\" -Oh --require_prototypes           /
//    List file          =  D:\work space\Smart Product\Two                   /
//                          YHY\SmartLightSwitch\one\v1.04.0\ZStack-CC2530-2. /
//                          5.1a Green V3.1 02\Projects\zstack\HomeAutomation /
//                          \SmartSwitchLight\CC2530DB\RouterDeviceEB\List\zc /
//                          l_onofflight.s51                                  /
//                                                                            /
//                                                                            /
///////////////////////////////////////////////////////////////////////////////

        NAME zcl_onofflight

        RTMODEL "__SystemLibrary", "CLib"
        RTMODEL "__calling_convention", "xdata_reentrant"
        RTMODEL "__code_model", "banked"
        RTMODEL "__core", "plain"
        RTMODEL "__data_model", "large"
        RTMODEL "__dptr_size", "16"
        RTMODEL "__extended_stack", "disabled"
        RTMODEL "__location_for_constants", "data"
        RTMODEL "__number_of_dptrs", "1"
        RTMODEL "__rt_version", "1"

        RSEG DOVERLAY:DATA:NOROOT(0)
        RSEG IOVERLAY:IDATA:NOROOT(0)
        RSEG ISTACK:IDATA:NOROOT(0)
        RSEG PSTACK:XDATA:NOROOT(0)
        RSEG XSTACK:XDATA:NOROOT(0)

        EXTERN ?BANKED_ENTER_XDATA
        EXTERN ?BANKED_LEAVE_XDATA
        EXTERN ?BDISPATCH
        EXTERN ?BRET
        EXTERN ?DEALLOC_XSTACK8
        EXTERN ?PUSH_XSTACK_I_TWO
        EXTERN ?US_SWITCH_SPARSE
        EXTERN ?V0
        EXTERN __INIT_XDATA_I
        EXTERN __INIT_XDATA_Z

        PUBLIC ??AppDeviceNwkJionState?relay
        FUNCTION ??AppDeviceNwkJionState?relay,0203H
        PUBLIC ??Device_App_MessageMSGCB?relay
        FUNCTION ??Device_App_MessageMSGCB?relay,0203H
        FUNCTION ??zclOnOffLight0_OnOffCB?relay,0203H
        FUNCTION ??zclOnOffLight_BasicResetCB?relay,0203H
        FUNCTION ??zclOnOffLight_IdentifyCB?relay,0203H
        FUNCTION ??zclOnOffLight_IdentifyQueryRspCB?relay,0203H
        PUBLIC ??zclOnOffLight_Init?relay
        FUNCTION ??zclOnOffLight_Init?relay,0203H
        PUBLIC ??zclOnOffLight_event_loop?relay
        FUNCTION ??zclOnOffLight_event_loop?relay,0203H
        PUBLIC AppDeviceNwkJionState
        FUNCTION AppDeviceNwkJionState,021203H
        ARGFRAME XSTACK, 12, STACK
        ARGFRAME IOVERLAY, 0, STATIC
        ARGFRAME DOVERLAY, 0, STATIC
        LOCFRAME XSTACK, 14, STACK
        PUBLIC DeviceApp_epDesc
        PUBLIC Device_App_MessageMSGCB
        FUNCTION Device_App_MessageMSGCB,0a1203H
        ARGFRAME XSTACK, 12, STACK
        ARGFRAME IOVERLAY, 0, STATIC
        ARGFRAME DOVERLAY, 0, STATIC
        LOCFRAME XSTACK, 10, STACK
        PUBWEAK P0IEN
        PUBLIC ReJoinNetFlagInFlash
        PUBWEAK _A_P0
        PUBLIC g_RestCount
        PUBLIC g_u8sendDeviceInfoFlag
        PUBLIC ledcontorl
        PUBLIC zclDevice_InitDone
        PUBLIC zclDevice_JoinNetworkOk
        PUBLIC zclDevice_NwkState
        FUNCTION zclOnOffLight0_OnOffCB,021603H
        ARGFRAME XSTACK, 0, STACK
        LOCFRAME XSTACK, 9, STACK
        FUNCTION zclOnOffLight_BasicResetCB,0603H
        ARGFRAME XSTACK, 0, STACK
        FUNCTION zclOnOffLight_IdentifyCB,021603H
        ARGFRAME XSTACK, 0, STACK
        LOCFRAME ISTACK, 2, STACK
        FUNCTION zclOnOffLight_IdentifyQueryRspCB,0603H
        ARGFRAME XSTACK, 0, STACK
        PUBLIC zclOnOffLight_Init
        FUNCTION zclOnOffLight_Init,021203H
        ARGFRAME XSTACK, 0, STACK
        LOCFRAME XSTACK, 9, STACK
        PUBLIC zclOnOffLight_TaskID
        PUBLIC zclOnOffLight_event_loop
        FUNCTION zclOnOffLight_event_loop,021203H
        ARGFRAME XSTACK, 0, STACK
        LOCFRAME XSTACK, 12, STACK
        PUBLIC zcl_Led_Blink
        
        CFI Names cfiNames0
        CFI StackFrame CFA_SP SP IDATA
        CFI StackFrame CFA_PSP16 PSP16 XDATA
        CFI StackFrame CFA_XSP16 XSP16 XDATA
        CFI StaticOverlayFrame CFA_IOVERLAY IOVERLAY
        CFI StaticOverlayFrame CFA_DOVERLAY DOVERLAY
        CFI Resource `PSW.CY`:1, `B.BR0`:1, `B.BR1`:1, `B.BR2`:1, `B.BR3`:1
        CFI Resource `B.BR4`:1, `B.BR5`:1, `B.BR6`:1, `B.BR7`:1, `VB.BR8`:1
        CFI Resource `VB.BR9`:1, `VB.BR10`:1, `VB.BR11`:1, `VB.BR12`:1
        CFI Resource `VB.BR13`:1, `VB.BR14`:1, `VB.BR15`:1, VB:8, B:8, A:8
        CFI Resource PSW:8, DPL0:8, DPH0:8, R0:8, R1:8, R2:8, R3:8, R4:8, R5:8
        CFI Resource R6:8, R7:8, V0:8, V1:8, V2:8, V3:8, V4:8, V5:8, V6:8, V7:8
        CFI Resource V8:8, V9:8, V10:8, V11:8, V12:8, V13:8, V14:8, V15:8, SP:8
        CFI Resource PSPH:8, PSPL:8, PSP16:16, XSPH:8, XSPL:8, XSP16:16
        CFI VirtualResource ?RET:24
        CFI Resource ?BRET_EXT:8
        CFI VirtualResource ?RET_HIGH:8, ?RET_LOW:8
        CFI ResourceParts PSP16 PSPH, PSPL
        CFI ResourceParts XSP16 XSPH, XSPL
        CFI ResourceParts ?RET ?BRET_EXT, ?RET_HIGH, ?RET_LOW
        CFI EndNames cfiNames0
        
        CFI Common cfiCommon0 Using cfiNames0
        CFI CodeAlign 1
        CFI DataAlign -1
        CFI ReturnAddress ?RET CODE
        CFI CFA_DOVERLAY Used
        CFI CFA_IOVERLAY Used
        CFI CFA_SP SP+-3
        CFI CFA_PSP16 PSP16+0
        CFI CFA_XSP16 XSP16+0
        CFI `PSW.CY` SameValue
        CFI `B.BR0` SameValue
        CFI `B.BR1` SameValue
        CFI `B.BR2` SameValue
        CFI `B.BR3` SameValue
        CFI `B.BR4` SameValue
        CFI `B.BR5` SameValue
        CFI `B.BR6` SameValue
        CFI `B.BR7` SameValue
        CFI `VB.BR8` SameValue
        CFI `VB.BR9` SameValue
        CFI `VB.BR10` SameValue
        CFI `VB.BR11` SameValue
        CFI `VB.BR12` SameValue
        CFI `VB.BR13` SameValue
        CFI `VB.BR14` SameValue
        CFI `VB.BR15` SameValue
        CFI VB SameValue
        CFI B Undefined
        CFI A Undefined
        CFI PSW SameValue
        CFI DPL0 SameValue
        CFI DPH0 SameValue
        CFI R0 Undefined
        CFI R1 Undefined
        CFI R2 Undefined
        CFI R3 Undefined
        CFI R4 Undefined
        CFI R5 Undefined
        CFI R6 SameValue
        CFI R7 SameValue
        CFI V0 SameValue
        CFI V1 SameValue
        CFI V2 SameValue
        CFI V3 SameValue
        CFI V4 SameValue
        CFI V5 SameValue
        CFI V6 SameValue
        CFI V7 SameValue
        CFI V8 SameValue
        CFI V9 SameValue
        CFI V10 SameValue
        CFI V11 SameValue
        CFI V12 SameValue
        CFI V13 SameValue
        CFI V14 SameValue
        CFI V15 SameValue
        CFI PSPH Undefined
        CFI PSPL Undefined
        CFI XSPH Undefined
        CFI XSPL Undefined
        CFI ?RET Concat
        CFI ?BRET_EXT Frame(CFA_SP, 3)
        CFI ?RET_HIGH Frame(CFA_SP, 2)
        CFI ?RET_LOW Frame(CFA_SP, 1)
        CFI EndCommon cfiCommon0
        
        
        CFI Common cfiCommon1 Using cfiNames0
        CFI CodeAlign 1
        CFI DataAlign -1
        CFI ReturnAddress ?RET CODE
        CFI CFA_DOVERLAY Used
        CFI CFA_IOVERLAY Used
        CFI CFA_SP SP+-2
        CFI CFA_PSP16 PSP16+0
        CFI CFA_XSP16 XSP16+0
        CFI `PSW.CY` SameValue
        CFI `B.BR0` SameValue
        CFI `B.BR1` SameValue
        CFI `B.BR2` SameValue
        CFI `B.BR3` SameValue
        CFI `B.BR4` SameValue
        CFI `B.BR5` SameValue
        CFI `B.BR6` SameValue
        CFI `B.BR7` SameValue
        CFI `VB.BR8` SameValue
        CFI `VB.BR9` SameValue
        CFI `VB.BR10` SameValue
        CFI `VB.BR11` SameValue
        CFI `VB.BR12` SameValue
        CFI `VB.BR13` SameValue
        CFI `VB.BR14` SameValue
        CFI `VB.BR15` SameValue
        CFI VB SameValue
        CFI B SameValue
        CFI A SameValue
        CFI PSW SameValue
        CFI DPL0 SameValue
        CFI DPH0 SameValue
        CFI R0 SameValue
        CFI R1 SameValue
        CFI R2 SameValue
        CFI R3 SameValue
        CFI R4 SameValue
        CFI R5 SameValue
        CFI R6 SameValue
        CFI R7 SameValue
        CFI V0 SameValue
        CFI V1 SameValue
        CFI V2 SameValue
        CFI V3 SameValue
        CFI V4 SameValue
        CFI V5 SameValue
        CFI V6 SameValue
        CFI V7 SameValue
        CFI V8 SameValue
        CFI V9 SameValue
        CFI V10 SameValue
        CFI V11 SameValue
        CFI V12 SameValue
        CFI V13 SameValue
        CFI V14 SameValue
        CFI V15 SameValue
        CFI PSPH Undefined
        CFI PSPL Undefined
        CFI XSPH Undefined
        CFI XSPL Undefined
        CFI ?RET Concat
        CFI ?BRET_EXT SameValue
        CFI ?RET_HIGH Frame(CFA_SP, 2)
        CFI ?RET_LOW Frame(CFA_SP, 1)
        CFI EndCommon cfiCommon1
        
afRegister          SYMBOL "afRegister"
zclHA_Init          SYMBOL "zclHA_Init"
zclGeneral_RegisterCmdCallbacks SYMBOL "zclGeneral_RegisterCmdCallbacks"
zcl_registerAttrList SYMBOL "zcl_registerAttrList"
zcl_registerForMsg  SYMBOL "zcl_registerForMsg"
RegisterForKeys     SYMBOL "RegisterForKeys"
zclDeviceInfoInit   SYMBOL "zclDeviceInfoInit"
zclLightControlInit SYMBOL "zclLightControlInit"
osal_start_timerEx  SYMBOL "osal_start_timerEx"
osal_rand           SYMBOL "osal_rand"
osal_msg_deallocate SYMBOL "osal_msg_deallocate"
osal_msg_receive    SYMBOL "osal_msg_receive"
osal_mem_free       SYMBOL "osal_mem_free"
osal_stop_timerEx   SYMBOL "osal_stop_timerEx"
zclLightReportEvent SYMBOL "zclLightReportEvent"
zclLightControlTouchPanelEnable SYMBOL "zclLightControlTouchPanelEnable"
zclSendDeviceInfo   SYMBOL "zclSendDeviceInfo"
zclSendHeartbeat    SYMBOL "zclSendHeartbeat"
zclTouchPanelEvent  SYMBOL "zclTouchPanelEvent"
zclRestoreInterruptEvent SYMBOL "zclRestoreInterruptEvent"
zclFactoryResetEvent SYMBOL "zclFactoryResetEvent"
zclFactoryReset     SYMBOL "zclFactoryReset"
NLME_PermitJoiningRequest SYMBOL "NLME_PermitJoiningRequest"
ZDApp_AnnounceNewAddress SYMBOL "ZDApp_AnnounceNewAddress"
osal_nv_read        SYMBOL "osal_nv_read"
osal_nv_item_init   SYMBOL "osal_nv_item_init"
osal_nv_write       SYMBOL "osal_nv_write"
??NLME_PermitJoiningRequest?relay SYMBOL "?relay", NLME_PermitJoiningRequest
??RegisterForKeys?relay SYMBOL "?relay", RegisterForKeys
??ZDApp_AnnounceNewAddress?relay SYMBOL "?relay", ZDApp_AnnounceNewAddress
??afRegister?relay  SYMBOL "?relay", afRegister
??osal_mem_free?relay SYMBOL "?relay", osal_mem_free
??osal_msg_deallocate?relay SYMBOL "?relay", osal_msg_deallocate
??osal_msg_receive?relay SYMBOL "?relay", osal_msg_receive
??osal_nv_item_init?relay SYMBOL "?relay", osal_nv_item_init
??osal_nv_read?relay SYMBOL "?relay", osal_nv_read
??osal_nv_write?relay SYMBOL "?relay", osal_nv_write
??osal_rand?relay   SYMBOL "?relay", osal_rand
??osal_start_timerEx?relay SYMBOL "?relay", osal_start_timerEx
??osal_stop_timerEx?relay SYMBOL "?relay", osal_stop_timerEx
??zclDeviceInfoInit?relay SYMBOL "?relay", zclDeviceInfoInit
??zclFactoryReset?relay SYMBOL "?relay", zclFactoryReset
??zclFactoryResetEvent?relay SYMBOL "?relay", zclFactoryResetEvent
??zclGeneral_RegisterCmdCallbacks?relay SYMBOL "?relay", zclGeneral_RegisterCmdCallbacks
??zclHA_Init?relay  SYMBOL "?relay", zclHA_Init
??zclLightControlInit?relay SYMBOL "?relay", zclLightControlInit
??zclLightControlTouchPanelEnable?relay SYMBOL "?relay", zclLightControlTouchPanelEnable
??zclLightReportEvent?relay SYMBOL "?relay", zclLightReportEvent
??zclRestoreInterruptEvent?relay SYMBOL "?relay", zclRestoreInterruptEvent
??zclSendDeviceInfo?relay SYMBOL "?relay", zclSendDeviceInfo
??zclSendHeartbeat?relay SYMBOL "?relay", zclSendHeartbeat
??zclTouchPanelEvent?relay SYMBOL "?relay", zclTouchPanelEvent
??zcl_registerAttrList?relay SYMBOL "?relay", zcl_registerAttrList
??zcl_registerForMsg?relay SYMBOL "?relay", zcl_registerForMsg
AppDeviceNwkJionState SYMBOL "AppDeviceNwkJionState"
??AppDeviceNwkJionState?relay SYMBOL "?relay", AppDeviceNwkJionState
Device_App_MessageMSGCB SYMBOL "Device_App_MessageMSGCB"
??Device_App_MessageMSGCB?relay SYMBOL "?relay", Device_App_MessageMSGCB
zclOnOffLight_Init  SYMBOL "zclOnOffLight_Init"
??zclOnOffLight_Init?relay SYMBOL "?relay", zclOnOffLight_Init
zclOnOffLight_event_loop SYMBOL "zclOnOffLight_event_loop"
??zclOnOffLight_event_loop?relay SYMBOL "?relay", zclOnOffLight_event_loop

        EXTERN afRegister
        FUNCTION afRegister,0202H
        ARGFRAME ISTACK, 0, STACK
        ARGFRAME PSTACK, 0, STACK
        ARGFRAME XSTACK, 9, STACK
        ARGFRAME IOVERLAY, 0, STATIC
        ARGFRAME DOVERLAY, 0, STATIC
        EXTERN zclHA_Init
        FUNCTION zclHA_Init,0202H
        ARGFRAME ISTACK, 0, STACK
        ARGFRAME PSTACK, 0, STACK
        ARGFRAME XSTACK, 9, STACK
        ARGFRAME IOVERLAY, 0, STATIC
        ARGFRAME DOVERLAY, 0, STATIC
        EXTERN zclGeneral_RegisterCmdCallbacks
        FUNCTION zclGeneral_RegisterCmdCallbacks,0202H
        ARGFRAME ISTACK, 0, STACK
        ARGFRAME PSTACK, 0, STACK
        ARGFRAME XSTACK, 9, STACK
        ARGFRAME IOVERLAY, 0, STATIC
        ARGFRAME DOVERLAY, 0, STATIC
        EXTERN zcl_registerAttrList
        FUNCTION zcl_registerAttrList,0202H
        ARGFRAME ISTACK, 0, STACK
        ARGFRAME PSTACK, 0, STACK
        ARGFRAME XSTACK, 9, STACK
        ARGFRAME IOVERLAY, 0, STATIC
        ARGFRAME DOVERLAY, 0, STATIC
        EXTERN zcl_registerForMsg
        FUNCTION zcl_registerForMsg,0202H
        ARGFRAME ISTACK, 0, STACK
        ARGFRAME PSTACK, 0, STACK
        ARGFRAME XSTACK, 9, STACK
        ARGFRAME IOVERLAY, 0, STATIC
        ARGFRAME DOVERLAY, 0, STATIC
        EXTERN RegisterForKeys
        FUNCTION RegisterForKeys,0202H
        ARGFRAME ISTACK, 0, STACK
        ARGFRAME PSTACK, 0, STACK
        ARGFRAME XSTACK, 9, STACK
        ARGFRAME IOVERLAY, 0, STATIC
        ARGFRAME DOVERLAY, 0, STATIC
        EXTERN zclDeviceInfoInit
        FUNCTION zclDeviceInfoInit,0202H
        ARGFRAME ISTACK, 0, STACK
        ARGFRAME PSTACK, 0, STACK
        ARGFRAME XSTACK, 9, STACK
        ARGFRAME IOVERLAY, 0, STATIC
        ARGFRAME DOVERLAY, 0, STATIC
        EXTERN zclLightControlInit
        FUNCTION zclLightControlInit,0202H
        ARGFRAME ISTACK, 0, STACK
        ARGFRAME PSTACK, 0, STACK
        ARGFRAME XSTACK, 9, STACK
        ARGFRAME IOVERLAY, 0, STATIC
        ARGFRAME DOVERLAY, 0, STATIC
        EXTERN osal_start_timerEx
        FUNCTION osal_start_timerEx,0202H
        ARGFRAME ISTACK, 2, STACK
        ARGFRAME PSTACK, 0, STACK
        ARGFRAME XSTACK, 12, STACK
        ARGFRAME IOVERLAY, 0, STATIC
        ARGFRAME DOVERLAY, 0, STATIC
        EXTERN osal_rand
        FUNCTION osal_rand,0202H
        ARGFRAME ISTACK, 0, STACK
        ARGFRAME PSTACK, 0, STACK
        ARGFRAME XSTACK, 12, STACK
        ARGFRAME IOVERLAY, 0, STATIC
        ARGFRAME DOVERLAY, 0, STATIC
        EXTERN osal_msg_deallocate
        FUNCTION osal_msg_deallocate,0202H
        ARGFRAME ISTACK, 0, STACK
        ARGFRAME PSTACK, 0, STACK
        ARGFRAME XSTACK, 12, STACK
        ARGFRAME IOVERLAY, 0, STATIC
        ARGFRAME DOVERLAY, 0, STATIC
        EXTERN osal_msg_receive
        FUNCTION osal_msg_receive,0202H
        ARGFRAME ISTACK, 0, STACK
        ARGFRAME PSTACK, 0, STACK
        ARGFRAME XSTACK, 12, STACK
        ARGFRAME IOVERLAY, 0, STATIC
        ARGFRAME DOVERLAY, 0, STATIC
        EXTERN osal_mem_free
        FUNCTION osal_mem_free,0202H
        ARGFRAME ISTACK, 0, STACK
        ARGFRAME PSTACK, 0, STACK
        ARGFRAME XSTACK, 12, STACK
        ARGFRAME IOVERLAY, 0, STATIC
        ARGFRAME DOVERLAY, 0, STATIC
        EXTERN osal_stop_timerEx
        FUNCTION osal_stop_timerEx,0202H
        ARGFRAME ISTACK, 2, STACK
        ARGFRAME PSTACK, 0, STACK
        ARGFRAME XSTACK, 12, STACK
        ARGFRAME IOVERLAY, 0, STATIC
        ARGFRAME DOVERLAY, 0, STATIC
        EXTERN zclLightReportEvent
        FUNCTION zclLightReportEvent,0202H
        ARGFRAME ISTACK, 0, STACK
        ARGFRAME PSTACK, 0, STACK
        ARGFRAME XSTACK, 12, STACK
        ARGFRAME IOVERLAY, 0, STATIC
        ARGFRAME DOVERLAY, 0, STATIC
        EXTERN zclLightControlTouchPanelEnable
        FUNCTION zclLightControlTouchPanelEnable,0202H
        ARGFRAME ISTACK, 0, STACK
        ARGFRAME PSTACK, 0, STACK
        ARGFRAME XSTACK, 12, STACK
        ARGFRAME IOVERLAY, 0, STATIC
        ARGFRAME DOVERLAY, 0, STATIC
        EXTERN zclSendDeviceInfo
        FUNCTION zclSendDeviceInfo,0202H
        ARGFRAME ISTACK, 0, STACK
        ARGFRAME PSTACK, 0, STACK
        ARGFRAME XSTACK, 12, STACK
        ARGFRAME IOVERLAY, 0, STATIC
        ARGFRAME DOVERLAY, 0, STATIC
        EXTERN zclSendHeartbeat
        FUNCTION zclSendHeartbeat,0202H
        ARGFRAME ISTACK, 0, STACK
        ARGFRAME PSTACK, 0, STACK
        ARGFRAME XSTACK, 12, STACK
        ARGFRAME IOVERLAY, 0, STATIC
        ARGFRAME DOVERLAY, 0, STATIC
        EXTERN zclTouchPanelEvent
        FUNCTION zclTouchPanelEvent,0202H
        ARGFRAME ISTACK, 0, STACK
        ARGFRAME PSTACK, 0, STACK
        ARGFRAME XSTACK, 12, STACK
        ARGFRAME IOVERLAY, 0, STATIC
        ARGFRAME DOVERLAY, 0, STATIC
        EXTERN zclRestoreInterruptEvent
        FUNCTION zclRestoreInterruptEvent,0202H
        ARGFRAME ISTACK, 0, STACK
        ARGFRAME PSTACK, 0, STACK
        ARGFRAME XSTACK, 12, STACK
        ARGFRAME IOVERLAY, 0, STATIC
        ARGFRAME DOVERLAY, 0, STATIC
        EXTERN zclFactoryResetEvent
        FUNCTION zclFactoryResetEvent,0202H
        ARGFRAME ISTACK, 0, STACK
        ARGFRAME PSTACK, 0, STACK
        ARGFRAME XSTACK, 12, STACK
        ARGFRAME IOVERLAY, 0, STATIC
        ARGFRAME DOVERLAY, 0, STATIC
        EXTERN zclFactoryReset
        FUNCTION zclFactoryReset,0202H
        ARGFRAME ISTACK, 0, STACK
        ARGFRAME PSTACK, 0, STACK
        ARGFRAME XSTACK, 12, STACK
        ARGFRAME IOVERLAY, 0, STATIC
        ARGFRAME DOVERLAY, 0, STATIC
        EXTERN NLME_PermitJoiningRequest
        FUNCTION NLME_PermitJoiningRequest,0202H
        ARGFRAME ISTACK, 0, STACK
        ARGFRAME PSTACK, 0, STACK
        ARGFRAME XSTACK, 10, STACK
        ARGFRAME IOVERLAY, 0, STATIC
        ARGFRAME DOVERLAY, 0, STATIC
        EXTERN ZDApp_AnnounceNewAddress
        FUNCTION ZDApp_AnnounceNewAddress,0202H
        ARGFRAME ISTACK, 0, STACK
        ARGFRAME PSTACK, 0, STACK
        ARGFRAME XSTACK, 10, STACK
        ARGFRAME IOVERLAY, 0, STATIC
        ARGFRAME DOVERLAY, 0, STATIC
        EXTERN osal_nv_read
        FUNCTION osal_nv_read,0202H
        ARGFRAME ISTACK, 0, STACK
        ARGFRAME PSTACK, 0, STACK
        ARGFRAME XSTACK, 14, STACK
        ARGFRAME IOVERLAY, 0, STATIC
        ARGFRAME DOVERLAY, 0, STATIC
        EXTERN osal_nv_item_init
        FUNCTION osal_nv_item_init,0202H
        ARGFRAME ISTACK, 0, STACK
        ARGFRAME PSTACK, 0, STACK
        ARGFRAME XSTACK, 12, STACK
        ARGFRAME IOVERLAY, 0, STATIC
        ARGFRAME DOVERLAY, 0, STATIC
        EXTERN osal_nv_write
        FUNCTION osal_nv_write,0202H
        ARGFRAME ISTACK, 0, STACK
        ARGFRAME PSTACK, 0, STACK
        ARGFRAME XSTACK, 14, STACK
        ARGFRAME IOVERLAY, 0, STATIC
        ARGFRAME DOVERLAY, 0, STATIC
        EXTERN ??NLME_PermitJoiningRequest?relay
        FUNCTION ??NLME_PermitJoiningRequest?relay,00H
        EXTERN ??RegisterForKeys?relay
        FUNCTION ??RegisterForKeys?relay,00H
        EXTERN ??ZDApp_AnnounceNewAddress?relay
        FUNCTION ??ZDApp_AnnounceNewAddress?relay,00H
        EXTERN ??afRegister?relay
        FUNCTION ??afRegister?relay,00H
        EXTERN ??osal_mem_free?relay
        FUNCTION ??osal_mem_free?relay,00H
        EXTERN ??osal_msg_deallocate?relay
        FUNCTION ??osal_msg_deallocate?relay,00H
        EXTERN ??osal_msg_receive?relay
        FUNCTION ??osal_msg_receive?relay,00H
        EXTERN ??osal_nv_item_init?relay
        FUNCTION ??osal_nv_item_init?relay,00H
        EXTERN ??osal_nv_read?relay
        FUNCTION ??osal_nv_read?relay,00H
        EXTERN ??osal_nv_write?relay
        FUNCTION ??osal_nv_write?relay,00H
        EXTERN ??osal_rand?relay
        FUNCTION ??osal_rand?relay,00H
        EXTERN ??osal_start_timerEx?relay
        FUNCTION ??osal_start_timerEx?relay,00H
        EXTERN ??osal_stop_timerEx?relay
        FUNCTION ??osal_stop_timerEx?relay,00H
        EXTERN ??zclDeviceInfoInit?relay
        FUNCTION ??zclDeviceInfoInit?relay,00H
        EXTERN ??zclFactoryReset?relay
        FUNCTION ??zclFactoryReset?relay,00H
        EXTERN ??zclFactoryResetEvent?relay
        FUNCTION ??zclFactoryResetEvent?relay,00H
        EXTERN ??zclGeneral_RegisterCmdCallbacks?relay
        FUNCTION ??zclGeneral_RegisterCmdCallbacks?relay,00H
        EXTERN ??zclHA_Init?relay
        FUNCTION ??zclHA_Init?relay,00H
        EXTERN ??zclLightControlInit?relay
        FUNCTION ??zclLightControlInit?relay,00H
        EXTERN ??zclLightControlTouchPanelEnable?relay
        FUNCTION ??zclLightControlTouchPanelEnable?relay,00H
        EXTERN ??zclLightReportEvent?relay
        FUNCTION ??zclLightReportEvent?relay,00H
        EXTERN ??zclRestoreInterruptEvent?relay
        FUNCTION ??zclRestoreInterruptEvent?relay,00H
        EXTERN ??zclSendDeviceInfo?relay
        FUNCTION ??zclSendDeviceInfo?relay,00H
        EXTERN ??zclSendHeartbeat?relay
        FUNCTION ??zclSendHeartbeat?relay,00H
        EXTERN ??zclTouchPanelEvent?relay
        FUNCTION ??zclTouchPanelEvent?relay,00H
        EXTERN ??zcl_registerAttrList?relay
        FUNCTION ??zcl_registerAttrList?relay,00H
        EXTERN ??zcl_registerForMsg?relay
        FUNCTION ??zcl_registerForMsg?relay,00H
        EXTERN zclOnOffLight0_Attrs
        EXTERN zclOnOffLight0_OnOff
        EXTERN zclOnOffLight0_SimpleDesc
        EXTERN zclOnOffLight_IdentifyTime

// D:\work space\Smart Product\Two YHY\SmartLightSwitch\one\v1.04.0\ZStack-CC2530-2.5.1a Green V3.1 02\Projects\zstack\HomeAutomation\SmartSwitchLight\Source\zcl_onofflight.c
//    1 /**************************************************************************************************
//    2   Filename:       zcl_sampleLight.c
//    3   Revised:        $Date: 2009-03-18 15:56:27 -0700 (Wed, 18 Mar 2009) $
//    4   Revision:       $Revision: 19453 $
//    5 
//    6 
//    7   Description:    Zigbee Cluster Library - sample device application.
//    8 
//    9 
//   10   Copyright 2006-2009 Texas Instruments Incorporated. All rights reserved.
//   11 
//   12   IMPORTANT: Your use of this Software is limited to those specific rights
//   13   granted under the terms of a software license agreement between the user
//   14   who downloaded the software, his/her employer (which must be your employer)
//   15   and Texas Instruments Incorporated (the "License").  You may not use this
//   16   Software unless you agree to abide by the terms of the License. The License
//   17   limits your use, and you acknowledge, that the Software may not be modified,
//   18   copied or distributed unless embedded on a Texas Instruments microcontroller
//   19   or used solely and exclusively in conjunction with a Texas Instruments radio
//   20   frequency transceiver, which is integrated into your product.  Other than for
//   21   the foregoing purpose, you may not use, reproduce, copy, prepare derivative
//   22   works of, modify, distribute, perform, display or sell this Software and/or
//   23   its documentation for any purpose.
//   24 
//   25   YOU FURTHER ACKNOWLEDGE AND AGREE THAT THE SOFTWARE AND DOCUMENTATION ARE
//   26   PROVIDED AS IS?WITHOUT WARRANTY OF ANY KIND, EITHER EXPRESS OR IMPLIED, 
//   27   INCLUDING WITHOUT LIMITATION, ANY WARRANTY OF MERCHANTABILITY, TITLE, 
//   28   NON-INFRINGEMENT AND FITNESS FOR A PARTICULAR PURPOSE. IN NO EVENT SHALL
//   29   TEXAS INSTRUMENTS OR ITS LICENSORS BE LIABLE OR OBLIGATED UNDER CONTRACT,
//   30   NEGLIGENCE, STRICT LIABILITY, CONTRIBUTION, BREACH OF WARRANTY, OR OTHER
//   31   LEGAL EQUITABLE THEORY ANY DIRECT OR INDIRECT DAMAGES OR EXPENSES
//   32   INCLUDING BUT NOT LIMITED TO ANY INCIDENTAL, SPECIAL, INDIRECT, PUNITIVE
//   33   OR CONSEQUENTIAL DAMAGES, LOST PROFITS OR LOST DATA, COST OF PROCUREMENT
//   34   OF SUBSTITUTE GOODS, TECHNOLOGY, SERVICES, OR ANY CLAIMS BY THIRD PARTIES
//   35   (INCLUDING BUT NOT LIMITED TO ANY DEFENSE THEREOF), OR OTHER SIMILAR COSTS.
//   36 
//   37   Should you have any questions regarding your right to use this Software,
//   38   contact Texas Instruments Incorporated at www.TI.com. 
//   39 **************************************************************************************************/
//   40 
//   41 /*********************************************************************
//   42   This device will be like a Light device.  This application is not
//   43   intended to be a Light device, but will use the device description
//   44   to implement this sample code.
//   45 *********************************************************************/
//   46 
//   47 /*********************************************************************
//   48  * INCLUDES
//   49  */
//   50 #include "ZComDef.h"
//   51 #include "OSAL.h"
//   52 #include "AF.h"
//   53 #include "ZDApp.h"
//   54 
//   55 #include "zcl.h"
//   56 #include "zcl_general.h"
//   57 #include "zcl_ha.h"
//   58 
//   59 #include "zcl_onofflight.h"
//   60 
//   61 #include "onboard.h"

        ASEGN SFR_AN:DATA:NOROOT,080H
// union <unnamed> volatile __sfr _A_P0
_A_P0:
        DATA8
        DS 1

        ASEGN SFR_AN:DATA:NOROOT,0abH
// unsigned char volatile __sfr P0IEN
P0IEN:
        DATA8
        DS 1
//   62 
//   63 /* HAL */
//   64 #include "hal_lcd.h"
//   65 #include "hal_led.h"
//   66 #include "hal_key.h"
//   67 
//   68 #include "zcl_light_control.h"
//   69 #include "zcl_device_info.h"
//   70 
//   71 //#include "OSAL_Nv.h"
//   72 
//   73 /*********************************************************************
//   74  * MACROS
//   75  */
//   76 
//   77 /*********************************************************************
//   78  * CONSTANTS
//   79  */
//   80 /*********************************************************************
//   81  * TYPEDEFS
//   82  */
//   83 
//   84 /*********************************************************************
//   85  * GLOBAL VARIABLES
//   86  */

        RSEG XDATA_Z:XDATA:NOROOT(0)
        DATA8
//   87 byte zclOnOffLight_TaskID;
zclOnOffLight_TaskID:
        DS 1
        REQUIRE __INIT_XDATA_Z

        RSEG XDATA_Z:XDATA:NOROOT(0)
        DATA8
//   88 devStates_t zclDevice_NwkState;
zclDevice_NwkState:
        DS 1
        REQUIRE __INIT_XDATA_Z

        RSEG XDATA_I:XDATA:NOROOT(0)
//   89 int8 zclDevice_JoinNetworkOk = 6;
zclDevice_JoinNetworkOk:
        DATA8
        DS 1
        REQUIRE `?<Initializer for zclDevice_JoinNetworkOk>`
        REQUIRE __INIT_XDATA_I

        RSEG XDATA_Z:XDATA:NOROOT(0)
        DATA8
//   90 int8 zclDevice_InitDone = 0;
zclDevice_InitDone:
        DS 1
        REQUIRE __INIT_XDATA_Z

        RSEG XDATA_Z:XDATA:NOROOT(0)
        DATA8
//   91 uint8 zcl_Led_Blink = 0;
zcl_Led_Blink:
        DS 1
        REQUIRE __INIT_XDATA_Z

        RSEG XDATA_Z:XDATA:NOROOT(0)
        DATA8
//   92 endPointDesc_t DeviceApp_epDesc;
DeviceApp_epDesc:
        DS 6
        REQUIRE __INIT_XDATA_Z

        RSEG XDATA_Z:XDATA:NOROOT(0)
        DATA8
//   93 uint8 ledcontorl = 0;
ledcontorl:
        DS 1
        REQUIRE __INIT_XDATA_Z
//   94 

        RSEG XDATA_Z:XDATA:NOROOT(0)
        DATA8
//   95 uint8 g_u8sendDeviceInfoFlag = 0;//0x00默认发送；0x01收到服务器缺少设备信息的回执
g_u8sendDeviceInfoFlag:
        DS 1
        REQUIRE __INIT_XDATA_Z

        RSEG XDATA_I:XDATA:NOROOT(0)
//   96 uint8 ReJoinNetFlagInFlash[1] = {0xFF};//0x01:表示复位加入网络；0x02:表示断电重启
ReJoinNetFlagInFlash:
        DATA8
        DS 1
        REQUIRE `?<Initializer for ReJoinNetFlagInFlash>`
        REQUIRE __INIT_XDATA_I
//   97 /*********************************************************************
//   98  * GLOBAL FUNCTIONS
//   99  */
//  100 /*********************************************************************
//  101  * LOCAL VARIABLES
//  102  */

        RSEG XDATA_Z:XDATA:NOROOT(0)
        DATA8
//  103 uint8 g_RestCount = 0;
g_RestCount:
        DS 1
        REQUIRE __INIT_XDATA_Z
//  104 /*********************************************************************
//  105  * LOCAL FUNCTIONS
//  106  */
//  107 static void zclOnOffLight_HandleKeys( byte shift, byte keys );
//  108 static void zclOnOffLight_BasicResetCB( void );
//  109 static void zclOnOffLight_IdentifyCB( zclIdentify_t *pCmd );
//  110 static void zclOnOffLight_IdentifyQueryRspCB( zclIdentifyQueryRsp_t *pRsp );
//  111 static void zclOnOffLight0_OnOffCB(uint8 cmd );
//  112 static void zclOnOffLight_OnOffCB(uint8 light, uint8 cmd );
//  113 static void zclOnOffLight_ProcessIdentifyTimeChange( void );
//  114 
//  115 // Functions to process ZCL Foundation incoming Command/Response messages 
//  116 static void zclOnOffLight_ProcessIncomingMsg( zclIncomingMsg_t *msg );
//  117 #ifdef ZCL_READ
//  118 static uint8 zclOnOffLight_ProcessInReadRspCmd( zclIncomingMsg_t *pInMsg );
//  119 #endif
//  120 #ifdef ZCL_WRITE
//  121 static uint8 zclOnOffLight_ProcessInWriteRspCmd( zclIncomingMsg_t *pInMsg );
//  122 #endif
//  123 static uint8 zclOnOffLight_ProcessInDefaultRspCmd( zclIncomingMsg_t *pInMsg );
//  124 #ifdef ZCL_DISCOVER
//  125 static uint8 zclOnOffLight_ProcessInDiscRspCmd( zclIncomingMsg_t *pInMsg );
//  126 #endif
//  127 
//  128 /*********************************************************************
//  129  * ZCL General Profile Callback table
//  130  */

        RSEG XDATA_I:XDATA:NOROOT(0)
//  131 static zclGeneral_AppCallbacks_t zclOnOffLight0_CmdCallbacks =
zclOnOffLight0_CmdCallbacks:
        DATA8
        DS 30
        REQUIRE `?<Initializer for zclOnOffLight0_CmdCallbacks>`
        REQUIRE __INIT_XDATA_I
//  132 {
//  133   zclOnOffLight_BasicResetCB,              // Basic Cluster Reset command
//  134   zclOnOffLight_IdentifyCB,                // Identify command  
//  135   zclOnOffLight_IdentifyQueryRspCB,        // Identify Query Response command
//  136   zclOnOffLight0_OnOffCB,                   // On/Off cluster command
//  137   NULL,                                     // Level Control Move to Level command
//  138   NULL,                                     // Level Control Move command
//  139   NULL,                                     // Level Control Step command
//  140   NULL,                                     // Group Response commands
//  141   NULL,                                     // Scene Store Request command
//  142   NULL,                                     // Scene Recall Request command
//  143   NULL,                                     // Scene Response command
//  144   NULL,                                     // Alarm (Response) command
//  145   NULL,                                     // RSSI Location commands
//  146   NULL,                                     // RSSI Location Response commands
//  147 };
//  148 
//  149 /*********************************************************************
//  150  * @fn          zclOnOffLight_Init
//  151  *
//  152  * @brief       Initialization function for the zclGeneral layer.
//  153  *
//  154  * @param       none
//  155  *
//  156  * @return      none
//  157  */
//  158 

        RSEG BANKED_CODE:CODE:NOROOT(0)
//  159 void zclOnOffLight_Init( byte task_id )
zclOnOffLight_Init:
        CFI Block cfiBlock0 Using cfiCommon0
        CFI Function zclOnOffLight_Init
        CODE
//  160 {
        FUNCALL zclOnOffLight_Init, afRegister
        LOCFRAME ISTACK, 0, STACK
        LOCFRAME PSTACK, 0, STACK
        LOCFRAME XSTACK, 9, STACK
        LOCFRAME IOVERLAY, 0, STATIC
        LOCFRAME DOVERLAY, 0, STATIC
        ARGFRAME ISTACK, 0, STACK
        ARGFRAME PSTACK, 0, STACK
        ARGFRAME XSTACK, 9, STACK
        ARGFRAME IOVERLAY, 0, STATIC
        ARGFRAME DOVERLAY, 0, STATIC
        FUNCALL zclOnOffLight_Init, zclHA_Init
        LOCFRAME ISTACK, 0, STACK
        LOCFRAME PSTACK, 0, STACK
        LOCFRAME XSTACK, 9, STACK
        LOCFRAME IOVERLAY, 0, STATIC
        LOCFRAME DOVERLAY, 0, STATIC
        ARGFRAME ISTACK, 0, STACK
        ARGFRAME PSTACK, 0, STACK
        ARGFRAME XSTACK, 9, STACK
        ARGFRAME IOVERLAY, 0, STATIC
        ARGFRAME DOVERLAY, 0, STATIC
        FUNCALL zclOnOffLight_Init, zclGeneral_RegisterCmdCallbacks
        LOCFRAME ISTACK, 0, STACK
        LOCFRAME PSTACK, 0, STACK
        LOCFRAME XSTACK, 9, STACK
        LOCFRAME IOVERLAY, 0, STATIC
        LOCFRAME DOVERLAY, 0, STATIC
        ARGFRAME ISTACK, 0, STACK
        ARGFRAME PSTACK, 0, STACK
        ARGFRAME XSTACK, 9, STACK
        ARGFRAME IOVERLAY, 0, STATIC
        ARGFRAME DOVERLAY, 0, STATIC
        FUNCALL zclOnOffLight_Init, zcl_registerAttrList
        LOCFRAME ISTACK, 0, STACK
        LOCFRAME PSTACK, 0, STACK
        LOCFRAME XSTACK, 9, STACK
        LOCFRAME IOVERLAY, 0, STATIC
        LOCFRAME DOVERLAY, 0, STATIC
        ARGFRAME ISTACK, 0, STACK
        ARGFRAME PSTACK, 0, STACK
        ARGFRAME XSTACK, 9, STACK
        ARGFRAME IOVERLAY, 0, STATIC
        ARGFRAME DOVERLAY, 0, STATIC
        FUNCALL zclOnOffLight_Init, zcl_registerForMsg
        LOCFRAME ISTACK, 0, STACK
        LOCFRAME PSTACK, 0, STACK
        LOCFRAME XSTACK, 9, STACK
        LOCFRAME IOVERLAY, 0, STATIC
        LOCFRAME DOVERLAY, 0, STATIC
        ARGFRAME ISTACK, 0, STACK
        ARGFRAME PSTACK, 0, STACK
        ARGFRAME XSTACK, 9, STACK
        ARGFRAME IOVERLAY, 0, STATIC
        ARGFRAME DOVERLAY, 0, STATIC
        FUNCALL zclOnOffLight_Init, RegisterForKeys
        LOCFRAME ISTACK, 0, STACK
        LOCFRAME PSTACK, 0, STACK
        LOCFRAME XSTACK, 9, STACK
        LOCFRAME IOVERLAY, 0, STATIC
        LOCFRAME DOVERLAY, 0, STATIC
        ARGFRAME ISTACK, 0, STACK
        ARGFRAME PSTACK, 0, STACK
        ARGFRAME XSTACK, 9, STACK
        ARGFRAME IOVERLAY, 0, STATIC
        ARGFRAME DOVERLAY, 0, STATIC
        FUNCALL zclOnOffLight_Init, zclDeviceInfoInit
        LOCFRAME ISTACK, 0, STACK
        LOCFRAME PSTACK, 0, STACK
        LOCFRAME XSTACK, 9, STACK
        LOCFRAME IOVERLAY, 0, STATIC
        LOCFRAME DOVERLAY, 0, STATIC
        ARGFRAME ISTACK, 0, STACK
        ARGFRAME PSTACK, 0, STACK
        ARGFRAME XSTACK, 9, STACK
        ARGFRAME IOVERLAY, 0, STATIC
        ARGFRAME DOVERLAY, 0, STATIC
        FUNCALL zclOnOffLight_Init, zclLightControlInit
        LOCFRAME ISTACK, 0, STACK
        LOCFRAME PSTACK, 0, STACK
        LOCFRAME XSTACK, 9, STACK
        LOCFRAME IOVERLAY, 0, STATIC
        LOCFRAME DOVERLAY, 0, STATIC
        ARGFRAME ISTACK, 0, STACK
        ARGFRAME PSTACK, 0, STACK
        ARGFRAME XSTACK, 9, STACK
        ARGFRAME IOVERLAY, 0, STATIC
        ARGFRAME DOVERLAY, 0, STATIC
        MOV     A,#-0x9
        LCALL   ?BANKED_ENTER_XDATA
        CFI DPH0 load(1, XDATA, add(CFA_XSP16, literal(-1)))
        CFI DPL0 load(1, XDATA, add(CFA_XSP16, literal(-2)))
        CFI ?BRET_EXT load(1, XDATA, add(CFA_XSP16, literal(-3)))
        CFI ?RET_HIGH load(1, XDATA, add(CFA_XSP16, literal(-4)))
        CFI ?RET_LOW load(1, XDATA, add(CFA_XSP16, literal(-5)))
        CFI R7 load(1, XDATA, add(CFA_XSP16, literal(-6)))
        CFI V0 load(1, XDATA, add(CFA_XSP16, literal(-7)))
        CFI VB load(1, XDATA, add(CFA_XSP16, literal(-8)))
        CFI R6 load(1, XDATA, add(CFA_XSP16, literal(-9)))
        CFI CFA_SP SP+0
        CFI CFA_XSP16 add(XSP16, 9)
        ; Saved register size: 9
        ; Auto size: 0
        MOV     A,R1
//  161   zclOnOffLight_TaskID = task_id;
        MOV     DPTR,#zclOnOffLight_TaskID
        MOVX    @DPTR,A
//  162   zclDevice_JoinNetworkOk = 6;
        MOV     DPTR,#zclDevice_JoinNetworkOk
        MOV     A,#0x6
        MOVX    @DPTR,A
//  163   zclDevice_NwkState = DEV_INIT;
        MOV     DPTR,#zclDevice_NwkState
        MOV     A,#0x1
        MOVX    @DPTR,A
//  164   zclDevice_InitDone = 0;
        MOV     DPTR,#zclDevice_InitDone
        CLR     A
        MOVX    @DPTR,A
//  165   // Set destination address to indirect
//  166   //zclOnOffLight_DstAddr.addrMode = (afAddrMode_t)AddrNotPresent;
//  167   //zclOnOffLight_DstAddr.endPoint = 0;
//  168   //zclOnOffLight_DstAddr.addr.shortAddr = 0;
//  169   
//  170   DeviceApp_epDesc.endPoint = 0xF0;
        MOV     DPTR,#DeviceApp_epDesc
        MOV     A,#-0x10
        MOVX    @DPTR,A
//  171   DeviceApp_epDesc.task_id = &zclOnOffLight_TaskID;
        INC     DPTR
        MOV     A,#zclOnOffLight_TaskID & 0xff
        MOVX    @DPTR,A
        INC     DPTR
        MOV     A,#(zclOnOffLight_TaskID >> 8) & 0xff
        MOVX    @DPTR,A
//  172   DeviceApp_epDesc.simpleDesc
//  173     = (SimpleDescriptionFormat_t *)&zclOnOffLight0_SimpleDesc;
        INC     DPTR
        MOV     A,#zclOnOffLight0_SimpleDesc & 0xff
        MOVX    @DPTR,A
        INC     DPTR
        MOV     A,#(zclOnOffLight0_SimpleDesc >> 8) & 0xff
        MOVX    @DPTR,A
//  174   DeviceApp_epDesc.latencyReq = noLatencyReqs;
        INC     DPTR
        CLR     A
        MOVX    @DPTR,A
//  175   
//  176   // Register the endpoint description with the AF
//  177   afRegister( &DeviceApp_epDesc );
        ; Setup parameters for call to function afRegister
        MOV     R2,#DeviceApp_epDesc & 0xff
        MOV     R3,#(DeviceApp_epDesc >> 8) & 0xff
        LCALL   ??afRegister?relay
//  178   
//  179   // This app is part of the Home Automation Profile
//  180   zclHA_Init( &zclOnOffLight0_SimpleDesc );
        ; Setup parameters for call to function zclHA_Init
        MOV     R2,#zclOnOffLight0_SimpleDesc & 0xff
        MOV     R3,#(zclOnOffLight0_SimpleDesc >> 8) & 0xff
        LCALL   ??zclHA_Init?relay
//  181   
//  182   // Register the ZCL General Cluster Library callback functions
//  183   zclGeneral_RegisterCmdCallbacks( ONOFFLIGHT0_ENDPOINT, &zclOnOffLight0_CmdCallbacks );
        ; Setup parameters for call to function zclGeneral_RegisterCmdCallbacks
        MOV     R2,#zclOnOffLight0_CmdCallbacks & 0xff
        MOV     R3,#(zclOnOffLight0_CmdCallbacks >> 8) & 0xff
        MOV     R1,#0x10
        LCALL   ??zclGeneral_RegisterCmdCallbacks?relay
//  184   
//  185   // Register the application's attribute list
//  186   zcl_registerAttrList( ONOFFLIGHT0_ENDPOINT, ONOFFLIGHT_MAX_ATTRIBUTES, zclOnOffLight0_Attrs );
        ; Setup parameters for call to function zcl_registerAttrList
        MOV     R4,#zclOnOffLight0_Attrs & 0xff
        MOV     R5,#(zclOnOffLight0_Attrs >> 8) & 0xff
        MOV     R2,#0xc
        MOV     R1,#0x10
        LCALL   ??zcl_registerAttrList?relay
//  187   
//  188   // Register the Application to receive the unprocessed Foundation command/response messages
//  189   zcl_registerForMsg( zclOnOffLight_TaskID );
        ; Setup parameters for call to function zcl_registerForMsg
        MOV     DPTR,#zclOnOffLight_TaskID
        MOVX    A,@DPTR
        MOV     R1,A
        LCALL   ??zcl_registerForMsg?relay
//  190   
//  191   // Register for all key events - This app will handle all key events
//  192   RegisterForKeys( zclOnOffLight_TaskID );
        ; Setup parameters for call to function RegisterForKeys
        MOV     DPTR,#zclOnOffLight_TaskID
        MOVX    A,@DPTR
        MOV     R1,A
        LCALL   ??RegisterForKeys?relay
//  193   
//  194   
//  195   zclDeviceInfoInit();
        ; Setup parameters for call to function zclDeviceInfoInit
        LCALL   ??zclDeviceInfoInit?relay
//  196   zclLightControlInit();
        ; Setup parameters for call to function zclLightControlInit
        LCALL   ??zclLightControlInit?relay
        CFI EndBlock cfiBlock0
//  197 }
        REQUIRE ?Subroutine0
        ; // Fall through to label ?Subroutine0

        RSEG BANKED_CODE:CODE:NOROOT(0)
?Subroutine0:
        CFI Block cfiBlock1 Using cfiCommon0
        CFI NoFunction
        CFI CFA_SP SP+0
        CFI CFA_XSP16 add(XSP16, 9)
        CFI VB load(1, XDATA, add(CFA_XSP16, literal(-8)))
        CFI DPL0 load(1, XDATA, add(CFA_XSP16, literal(-2)))
        CFI DPH0 load(1, XDATA, add(CFA_XSP16, literal(-1)))
        CFI R6 load(1, XDATA, add(CFA_XSP16, literal(-9)))
        CFI R7 load(1, XDATA, add(CFA_XSP16, literal(-6)))
        CFI V0 load(1, XDATA, add(CFA_XSP16, literal(-7)))
        CFI ?BRET_EXT load(1, XDATA, add(CFA_XSP16, literal(-3)))
        CFI ?RET_HIGH load(1, XDATA, add(CFA_XSP16, literal(-4)))
        CFI ?RET_LOW load(1, XDATA, add(CFA_XSP16, literal(-5)))
        MOV     R7,#0x1
        LJMP    ?BANKED_LEAVE_XDATA
        CFI EndBlock cfiBlock1
//  198 
//  199 /*********************************************************************
//  200  * @fn          zclSample_event_loop
//  201  *
//  202  * @brief       Event Loop Processor for zclGeneral.
//  203  *
//  204  * @param       none
//  205  *
//  206  * @return      none
//  207  */
//  208 

        RSEG BANKED_CODE:CODE:NOROOT(0)
//  209 uint16 zclOnOffLight_event_loop( uint8 task_id, uint16 events )
zclOnOffLight_event_loop:
        CFI Block cfiBlock2 Using cfiCommon0
        CFI Function zclOnOffLight_event_loop
        CODE
//  210 {
        FUNCALL zclOnOffLight_event_loop, osal_start_timerEx
        LOCFRAME ISTACK, 0, STACK
        LOCFRAME PSTACK, 0, STACK
        LOCFRAME XSTACK, 12, STACK
        LOCFRAME IOVERLAY, 0, STATIC
        LOCFRAME DOVERLAY, 0, STATIC
        ARGFRAME ISTACK, 0, STACK
        ARGFRAME PSTACK, 0, STACK
        ARGFRAME XSTACK, 12, STACK
        ARGFRAME IOVERLAY, 0, STATIC
        ARGFRAME DOVERLAY, 0, STATIC
        FUNCALL zclOnOffLight_event_loop, AppDeviceNwkJionState
        LOCFRAME ISTACK, 0, STACK
        LOCFRAME PSTACK, 0, STACK
        LOCFRAME XSTACK, 12, STACK
        LOCFRAME IOVERLAY, 0, STATIC
        LOCFRAME DOVERLAY, 0, STATIC
        ARGFRAME ISTACK, 0, STACK
        ARGFRAME PSTACK, 0, STACK
        ARGFRAME XSTACK, 12, STACK
        ARGFRAME IOVERLAY, 0, STATIC
        ARGFRAME DOVERLAY, 0, STATIC
        FUNCALL zclOnOffLight_event_loop, osal_rand
        LOCFRAME ISTACK, 0, STACK
        LOCFRAME PSTACK, 0, STACK
        LOCFRAME XSTACK, 12, STACK
        LOCFRAME IOVERLAY, 0, STATIC
        LOCFRAME DOVERLAY, 0, STATIC
        ARGFRAME ISTACK, 0, STACK
        ARGFRAME PSTACK, 0, STACK
        ARGFRAME XSTACK, 12, STACK
        ARGFRAME IOVERLAY, 0, STATIC
        ARGFRAME DOVERLAY, 0, STATIC
        FUNCALL zclOnOffLight_event_loop, osal_start_timerEx
        LOCFRAME ISTACK, 0, STACK
        LOCFRAME PSTACK, 0, STACK
        LOCFRAME XSTACK, 12, STACK
        LOCFRAME IOVERLAY, 0, STATIC
        LOCFRAME DOVERLAY, 0, STATIC
        ARGFRAME ISTACK, 0, STACK
        ARGFRAME PSTACK, 0, STACK
        ARGFRAME XSTACK, 12, STACK
        ARGFRAME IOVERLAY, 0, STATIC
        ARGFRAME DOVERLAY, 0, STATIC
        FUNCALL zclOnOffLight_event_loop, osal_msg_deallocate
        LOCFRAME ISTACK, 0, STACK
        LOCFRAME PSTACK, 0, STACK
        LOCFRAME XSTACK, 12, STACK
        LOCFRAME IOVERLAY, 0, STATIC
        LOCFRAME DOVERLAY, 0, STATIC
        ARGFRAME ISTACK, 0, STACK
        ARGFRAME PSTACK, 0, STACK
        ARGFRAME XSTACK, 12, STACK
        ARGFRAME IOVERLAY, 0, STATIC
        ARGFRAME DOVERLAY, 0, STATIC
        FUNCALL zclOnOffLight_event_loop, osal_msg_receive
        LOCFRAME ISTACK, 0, STACK
        LOCFRAME PSTACK, 0, STACK
        LOCFRAME XSTACK, 12, STACK
        LOCFRAME IOVERLAY, 0, STATIC
        LOCFRAME DOVERLAY, 0, STATIC
        ARGFRAME ISTACK, 0, STACK
        ARGFRAME PSTACK, 0, STACK
        ARGFRAME XSTACK, 12, STACK
        ARGFRAME IOVERLAY, 0, STATIC
        ARGFRAME DOVERLAY, 0, STATIC
        FUNCALL zclOnOffLight_event_loop, Device_App_MessageMSGCB
        LOCFRAME ISTACK, 0, STACK
        LOCFRAME PSTACK, 0, STACK
        LOCFRAME XSTACK, 12, STACK
        LOCFRAME IOVERLAY, 0, STATIC
        LOCFRAME DOVERLAY, 0, STATIC
        ARGFRAME ISTACK, 0, STACK
        ARGFRAME PSTACK, 0, STACK
        ARGFRAME XSTACK, 12, STACK
        ARGFRAME IOVERLAY, 0, STATIC
        ARGFRAME DOVERLAY, 0, STATIC
        FUNCALL zclOnOffLight_event_loop, osal_mem_free
        LOCFRAME ISTACK, 0, STACK
        LOCFRAME PSTACK, 0, STACK
        LOCFRAME XSTACK, 12, STACK
        LOCFRAME IOVERLAY, 0, STATIC
        LOCFRAME DOVERLAY, 0, STATIC
        ARGFRAME ISTACK, 0, STACK
        ARGFRAME PSTACK, 0, STACK
        ARGFRAME XSTACK, 12, STACK
        ARGFRAME IOVERLAY, 0, STATIC
        ARGFRAME DOVERLAY, 0, STATIC
        FUNCALL zclOnOffLight_event_loop, osal_stop_timerEx
        LOCFRAME ISTACK, 0, STACK
        LOCFRAME PSTACK, 0, STACK
        LOCFRAME XSTACK, 12, STACK
        LOCFRAME IOVERLAY, 0, STATIC
        LOCFRAME DOVERLAY, 0, STATIC
        ARGFRAME ISTACK, 0, STACK
        ARGFRAME PSTACK, 0, STACK
        ARGFRAME XSTACK, 12, STACK
        ARGFRAME IOVERLAY, 0, STATIC
        ARGFRAME DOVERLAY, 0, STATIC
        FUNCALL zclOnOffLight_event_loop, zclLightReportEvent
        LOCFRAME ISTACK, 0, STACK
        LOCFRAME PSTACK, 0, STACK
        LOCFRAME XSTACK, 12, STACK
        LOCFRAME IOVERLAY, 0, STATIC
        LOCFRAME DOVERLAY, 0, STATIC
        ARGFRAME ISTACK, 0, STACK
        ARGFRAME PSTACK, 0, STACK
        ARGFRAME XSTACK, 12, STACK
        ARGFRAME IOVERLAY, 0, STATIC
        ARGFRAME DOVERLAY, 0, STATIC
        FUNCALL zclOnOffLight_event_loop, osal_start_timerEx
        LOCFRAME ISTACK, 0, STACK
        LOCFRAME PSTACK, 0, STACK
        LOCFRAME XSTACK, 12, STACK
        LOCFRAME IOVERLAY, 0, STATIC
        LOCFRAME DOVERLAY, 0, STATIC
        ARGFRAME ISTACK, 0, STACK
        ARGFRAME PSTACK, 0, STACK
        ARGFRAME XSTACK, 12, STACK
        ARGFRAME IOVERLAY, 0, STATIC
        ARGFRAME DOVERLAY, 0, STATIC
        FUNCALL zclOnOffLight_event_loop, osal_start_timerEx
        LOCFRAME ISTACK, 0, STACK
        LOCFRAME PSTACK, 0, STACK
        LOCFRAME XSTACK, 12, STACK
        LOCFRAME IOVERLAY, 0, STATIC
        LOCFRAME DOVERLAY, 0, STATIC
        ARGFRAME ISTACK, 0, STACK
        ARGFRAME PSTACK, 0, STACK
        ARGFRAME XSTACK, 12, STACK
        ARGFRAME IOVERLAY, 0, STATIC
        ARGFRAME DOVERLAY, 0, STATIC
        FUNCALL zclOnOffLight_event_loop, zclLightControlTouchPanelEnable
        LOCFRAME ISTACK, 0, STACK
        LOCFRAME PSTACK, 0, STACK
        LOCFRAME XSTACK, 12, STACK
        LOCFRAME IOVERLAY, 0, STATIC
        LOCFRAME DOVERLAY, 0, STATIC
        ARGFRAME ISTACK, 0, STACK
        ARGFRAME PSTACK, 0, STACK
        ARGFRAME XSTACK, 12, STACK
        ARGFRAME IOVERLAY, 0, STATIC
        ARGFRAME DOVERLAY, 0, STATIC
        FUNCALL zclOnOffLight_event_loop, osal_start_timerEx
        LOCFRAME ISTACK, 0, STACK
        LOCFRAME PSTACK, 0, STACK
        LOCFRAME XSTACK, 12, STACK
        LOCFRAME IOVERLAY, 0, STATIC
        LOCFRAME DOVERLAY, 0, STATIC
        ARGFRAME ISTACK, 0, STACK
        ARGFRAME PSTACK, 0, STACK
        ARGFRAME XSTACK, 12, STACK
        ARGFRAME IOVERLAY, 0, STATIC
        ARGFRAME DOVERLAY, 0, STATIC
        FUNCALL zclOnOffLight_event_loop, zclSendDeviceInfo
        LOCFRAME ISTACK, 0, STACK
        LOCFRAME PSTACK, 0, STACK
        LOCFRAME XSTACK, 12, STACK
        LOCFRAME IOVERLAY, 0, STATIC
        LOCFRAME DOVERLAY, 0, STATIC
        ARGFRAME ISTACK, 0, STACK
        ARGFRAME PSTACK, 0, STACK
        ARGFRAME XSTACK, 12, STACK
        ARGFRAME IOVERLAY, 0, STATIC
        ARGFRAME DOVERLAY, 0, STATIC
        FUNCALL zclOnOffLight_event_loop, zclSendHeartbeat
        LOCFRAME ISTACK, 0, STACK
        LOCFRAME PSTACK, 0, STACK
        LOCFRAME XSTACK, 12, STACK
        LOCFRAME IOVERLAY, 0, STATIC
        LOCFRAME DOVERLAY, 0, STATIC
        ARGFRAME ISTACK, 0, STACK
        ARGFRAME PSTACK, 0, STACK
        ARGFRAME XSTACK, 12, STACK
        ARGFRAME IOVERLAY, 0, STATIC
        ARGFRAME DOVERLAY, 0, STATIC
        FUNCALL zclOnOffLight_event_loop, zclTouchPanelEvent
        LOCFRAME ISTACK, 0, STACK
        LOCFRAME PSTACK, 0, STACK
        LOCFRAME XSTACK, 12, STACK
        LOCFRAME IOVERLAY, 0, STATIC
        LOCFRAME DOVERLAY, 0, STATIC
        ARGFRAME ISTACK, 0, STACK
        ARGFRAME PSTACK, 0, STACK
        ARGFRAME XSTACK, 12, STACK
        ARGFRAME IOVERLAY, 0, STATIC
        ARGFRAME DOVERLAY, 0, STATIC
        FUNCALL zclOnOffLight_event_loop, osal_start_timerEx
        LOCFRAME ISTACK, 0, STACK
        LOCFRAME PSTACK, 0, STACK
        LOCFRAME XSTACK, 12, STACK
        LOCFRAME IOVERLAY, 0, STATIC
        LOCFRAME DOVERLAY, 0, STATIC
        ARGFRAME ISTACK, 0, STACK
        ARGFRAME PSTACK, 0, STACK
        ARGFRAME XSTACK, 12, STACK
        ARGFRAME IOVERLAY, 0, STATIC
        ARGFRAME DOVERLAY, 0, STATIC
        FUNCALL zclOnOffLight_event_loop, zclRestoreInterruptEvent
        LOCFRAME ISTACK, 0, STACK
        LOCFRAME PSTACK, 0, STACK
        LOCFRAME XSTACK, 12, STACK
        LOCFRAME IOVERLAY, 0, STATIC
        LOCFRAME DOVERLAY, 0, STATIC
        ARGFRAME ISTACK, 0, STACK
        ARGFRAME PSTACK, 0, STACK
        ARGFRAME XSTACK, 12, STACK
        ARGFRAME IOVERLAY, 0, STATIC
        ARGFRAME DOVERLAY, 0, STATIC
        FUNCALL zclOnOffLight_event_loop, zclFactoryResetEvent
        LOCFRAME ISTACK, 0, STACK
        LOCFRAME PSTACK, 0, STACK
        LOCFRAME XSTACK, 12, STACK
        LOCFRAME IOVERLAY, 0, STATIC
        LOCFRAME DOVERLAY, 0, STATIC
        ARGFRAME ISTACK, 0, STACK
        ARGFRAME PSTACK, 0, STACK
        ARGFRAME XSTACK, 12, STACK
        ARGFRAME IOVERLAY, 0, STATIC
        ARGFRAME DOVERLAY, 0, STATIC
        FUNCALL zclOnOffLight_event_loop, osal_start_timerEx
        LOCFRAME ISTACK, 0, STACK
        LOCFRAME PSTACK, 0, STACK
        LOCFRAME XSTACK, 12, STACK
        LOCFRAME IOVERLAY, 0, STATIC
        LOCFRAME DOVERLAY, 0, STATIC
        ARGFRAME ISTACK, 0, STACK
        ARGFRAME PSTACK, 0, STACK
        ARGFRAME XSTACK, 12, STACK
        ARGFRAME IOVERLAY, 0, STATIC
        ARGFRAME DOVERLAY, 0, STATIC
        FUNCALL zclOnOffLight_event_loop, osal_start_timerEx
        LOCFRAME ISTACK, 0, STACK
        LOCFRAME PSTACK, 0, STACK
        LOCFRAME XSTACK, 12, STACK
        LOCFRAME IOVERLAY, 0, STATIC
        LOCFRAME DOVERLAY, 0, STATIC
        ARGFRAME ISTACK, 0, STACK
        ARGFRAME PSTACK, 0, STACK
        ARGFRAME XSTACK, 12, STACK
        ARGFRAME IOVERLAY, 0, STATIC
        ARGFRAME DOVERLAY, 0, STATIC
        FUNCALL zclOnOffLight_event_loop, zclFactoryReset
        LOCFRAME ISTACK, 0, STACK
        LOCFRAME PSTACK, 0, STACK
        LOCFRAME XSTACK, 12, STACK
        LOCFRAME IOVERLAY, 0, STATIC
        LOCFRAME DOVERLAY, 0, STATIC
        ARGFRAME ISTACK, 0, STACK
        ARGFRAME PSTACK, 0, STACK
        ARGFRAME XSTACK, 12, STACK
        ARGFRAME IOVERLAY, 0, STATIC
        ARGFRAME DOVERLAY, 0, STATIC
        FUNCALL zclOnOffLight_event_loop, osal_start_timerEx
        LOCFRAME ISTACK, 0, STACK
        LOCFRAME PSTACK, 0, STACK
        LOCFRAME XSTACK, 12, STACK
        LOCFRAME IOVERLAY, 0, STATIC
        LOCFRAME DOVERLAY, 0, STATIC
        ARGFRAME ISTACK, 0, STACK
        ARGFRAME PSTACK, 0, STACK
        ARGFRAME XSTACK, 12, STACK
        ARGFRAME IOVERLAY, 0, STATIC
        ARGFRAME DOVERLAY, 0, STATIC
        MOV     A,#-0xc
        LCALL   ?BANKED_ENTER_XDATA
        CFI DPH0 load(1, XDATA, add(CFA_XSP16, literal(-1)))
        CFI DPL0 load(1, XDATA, add(CFA_XSP16, literal(-2)))
        CFI ?BRET_EXT load(1, XDATA, add(CFA_XSP16, literal(-3)))
        CFI ?RET_HIGH load(1, XDATA, add(CFA_XSP16, literal(-4)))
        CFI ?RET_LOW load(1, XDATA, add(CFA_XSP16, literal(-5)))
        CFI R7 load(1, XDATA, add(CFA_XSP16, literal(-6)))
        CFI V3 load(1, XDATA, add(CFA_XSP16, literal(-7)))
        CFI V2 load(1, XDATA, add(CFA_XSP16, literal(-8)))
        CFI V1 load(1, XDATA, add(CFA_XSP16, literal(-9)))
        CFI V0 load(1, XDATA, add(CFA_XSP16, literal(-10)))
        CFI VB load(1, XDATA, add(CFA_XSP16, literal(-11)))
        CFI R6 load(1, XDATA, add(CFA_XSP16, literal(-12)))
        CFI CFA_SP SP+0
        CFI CFA_XSP16 add(XSP16, 12)
        ; Saved register size: 12
        ; Auto size: 0
        MOV     A,R2
        MOV     R6,A
        MOV     A,R3
        MOV     R7,A
//  211   afIncomingMSGPacket_t *MSGpkt;
//  212   
//  213   (void)task_id;  // Intentionally unreferenced parameter
//  214 
//  215   if ( events & SYS_EVENT_MSG )
        ANL     A,#0x80
        JNZ     ??zclOnOffLight_event_loop_0
//  216   {
//  217     while ( (MSGpkt = (afIncomingMSGPacket_t *)osal_msg_receive( zclOnOffLight_TaskID )) )
//  218     {
//  219       switch ( MSGpkt->hdr.event )
//  220       {
//  221       case AF_INCOMING_MSG_CMD:
//  222         Device_App_MessageMSGCB(MSGpkt);
//  223         break;
//  224       case ZCL_INCOMING_MSG:
//  225         // Incoming ZCL Foundation command/response messages
//  226         zclOnOffLight_ProcessIncomingMsg( (zclIncomingMsg_t *)MSGpkt );
//  227         break;
//  228       case KEY_CHANGE:
//  229         zclOnOffLight_HandleKeys( ((keyChange_t *)MSGpkt)->state, ((keyChange_t *)MSGpkt)->keys );
//  230         
//  231         break;
//  232       case ZDO_STATE_CHANGE:
//  233         zclDevice_NwkState = (devStates_t)(MSGpkt->hdr.status);
//  234         if (zclDevice_NwkState == DEV_ROUTER ) 
//  235         {
//  236           AppDeviceNwkJionState();
//  237           osal_start_timerEx(zclOnOffLight_TaskID, 
//  238                              ZCL_DEVICE_INFO_SEND_EVENT,
//  239                              ZCL_DEVICE_SEND_INIF_TIME_1S);
//  240           
//  241         }
//  242         break;
//  243       default:
//  244         break;
//  245       }
//  246 
//  247       // Release the memory
//  248       osal_msg_deallocate( (uint8 *)MSGpkt );
//  249     }
//  250     // return unprocessed events
//  251     return (events ^ SYS_EVENT_MSG);
//  252   }
//  253   
//  254   if ( events & ONOFFLIGHT_IDENTIFY_TIMEOUT_EVT )
        MOV     A,R6
        MOV     C,0xE0 /* A   */.0
        JC      $+5
        LJMP    ??zclOnOffLight_event_loop_1 & 0xFFFF
//  255   {
//  256     if ( zclOnOffLight_IdentifyTime > 0 )
        MOV     DPTR,#zclOnOffLight_IdentifyTime
        LCALL   ??Subroutine7_0 & 0xFFFF
??CrossCallReturnLabel_6:
        MOV     A,R0
        ORL     A,R1
        JNZ     $+5
        LJMP    ??zclOnOffLight_event_loop_2 & 0xFFFF
//  257       zclOnOffLight_IdentifyTime--;
        MOV     DPTR,#zclOnOffLight_IdentifyTime
        MOVX    A,@DPTR
        ADD     A,#-0x1
        MOVX    @DPTR,A
        INC     DPTR
        MOVX    A,@DPTR
        ADDC    A,#-0x1
        MOVX    @DPTR,A
//  258     zclOnOffLight_ProcessIdentifyTimeChange();
        DEC     R0
        MOV     R1,A
        MOV     A,R0
        ORL     A,R1
        JNZ     $+5
        LJMP    ??zclOnOffLight_event_loop_2 & 0xFFFF
        ; Setup parameters for call to function osal_start_timerEx
        LCALL   ?Subroutine2 & 0xFFFF
//  259     
//  260     //return ( events ^ ONOFFLIGHT_IDENTIFY_TIMEOUT_EVT );
//  261   }
??CrossCallReturnLabel_19:
        LJMP    ??zclOnOffLight_event_loop_1 & 0xFFFF
??zclOnOffLight_event_loop_3:
        INC     DPTR
        MOVX    A,@DPTR
        MOV     DPTR,#zclDevice_NwkState
        MOVX    @DPTR,A
        XRL     A,#0x7
        JNZ     ??CrossCallReturnLabel_12
        ; Setup parameters for call to function AppDeviceNwkJionState
        LCALL   ??AppDeviceNwkJionState?relay
        ; Setup parameters for call to function osal_rand
        LCALL   ??osal_rand?relay
        ; Setup parameters for call to function osal_start_timerEx
        MOV     A,R2
        ADD     A,#-0x18
        MOV     R4,A
        CLR     A
        ADDC    A,#0x3
        MOV     R5,A
        MOV     R2,#0x0
        MOV     R3,#0x1
        LCALL   ??Subroutine9_0 & 0xFFFF
??CrossCallReturnLabel_12:
        ; Setup parameters for call to function osal_msg_deallocate
        MOV     R2,?V0 + 0
        MOV     R3,?V0 + 1
        LCALL   ??osal_msg_deallocate?relay
??zclOnOffLight_event_loop_0:
        ; Setup parameters for call to function osal_msg_receive
        MOV     DPTR,#zclOnOffLight_TaskID
        MOVX    A,@DPTR
        MOV     R1,A
        LCALL   ??osal_msg_receive?relay
        MOV     ?V0 + 0,R2
        MOV     ?V0 + 1,R3
        MOV     A,R2
        ORL     A,?V0 + 1
        JZ      ??zclOnOffLight_event_loop_4
        MOV     DPL,R2
        MOV     DPH,R3
        MOVX    A,@DPTR
        ADD     A,#-0x1a
        JZ      ??zclOnOffLight_event_loop_5
        ADD     A,#-0x1a
        JZ      ??zclOnOffLight_event_loop_6
        ADD     A,#0x63
        JZ      ??zclOnOffLight_event_loop_3
        SJMP    ??CrossCallReturnLabel_12
??zclOnOffLight_event_loop_5:
        ; Setup parameters for call to function Device_App_MessageMSGCB
        LCALL   ??Device_App_MessageMSGCB?relay
        SJMP    ??CrossCallReturnLabel_12
??zclOnOffLight_event_loop_6:
        INC     DPTR
        INC     DPTR
        INC     DPTR
        INC     DPTR
        INC     DPTR
        INC     DPTR
        INC     DPTR
        MOVX    A,@DPTR
        DEC     A
        JZ      ??zclOnOffLight_event_loop_7
        ADD     A,#-0x3
        JNZ     ??zclOnOffLight_event_loop_8
        LCALL   ?Subroutine3 & 0xFFFF
??CrossCallReturnLabel_0:
        JZ      ??zclOnOffLight_event_loop_8
??zclOnOffLight_event_loop_9:
        INC     R0
        MOV     A,R0
        CLR     C
        SUBB    A,R1
        JNC     ??zclOnOffLight_event_loop_8
        SJMP    ??zclOnOffLight_event_loop_9
??zclOnOffLight_event_loop_7:
        LCALL   ?Subroutine3 & 0xFFFF
??CrossCallReturnLabel_1:
        JZ      ??zclOnOffLight_event_loop_8
??zclOnOffLight_event_loop_10:
        INC     R0
        MOV     A,R0
        CLR     C
        SUBB    A,R1
        JC      ??zclOnOffLight_event_loop_10
??zclOnOffLight_event_loop_8:
        LCALL   ?Subroutine6 & 0xFFFF
??CrossCallReturnLabel_4:
        MOV     R2,A
        INC     DPTR
        MOVX    A,@DPTR
        MOV     R3,A
        MOV     A,R2
        ORL     A,R3
        JZ      ??CrossCallReturnLabel_12
        ; Setup parameters for call to function osal_mem_free
        LCALL   ??osal_mem_free?relay
        SJMP    ??CrossCallReturnLabel_12
??zclOnOffLight_event_loop_4:
        MOV     A,R6
        MOV     R2,A
        MOV     A,R7
        XRL     A,#0x80
        MOV     R3,A
        LJMP    ??zclOnOffLight_event_loop_11 & 0xFFFF
??zclOnOffLight_event_loop_2:
        ; Setup parameters for call to function osal_stop_timerEx
        MOV     R2,#0x1
        MOV     R3,#0x0
        MOV     DPTR,#zclOnOffLight_TaskID
        MOVX    A,@DPTR
        MOV     R1,A
        LCALL   ??osal_stop_timerEx?relay
//  262   
//  263   if (events & ZCL_DEVICE_SEND_ONOFF_STATE_EVENT) 
??zclOnOffLight_event_loop_1:
        MOV     A,R6
        ANL     A,#0x2
        JZ      ??zclOnOffLight_event_loop_12
//  264   {
//  265     zclLightReportEvent(ONOFFLIGHT_ENDPONT_0xF0, &zclOnOffLight0_OnOff);  
        ; Setup parameters for call to function zclLightReportEvent
        MOV     R4,#zclOnOffLight0_OnOff & 0xff
        MOV     R5,#(zclOnOffLight0_OnOff >> 8) & 0xff
        MOV     R2,#-0x10
        MOV     R3,#0x0
        LCALL   ??zclLightReportEvent?relay
//  266   }
//  267   
//  268   //指示灯闪烁
//  269   if (events & ZCL_DEVICE_EXIT_NETWORK_EVENT) 
??zclOnOffLight_event_loop_12:
        MOV     A,R7
        ANL     A,#0x10
        JZ      ??CrossCallReturnLabel_13
//  270   {
//  271     if(ledcontorl == 0)
        MOV     DPTR,#ledcontorl
        MOVX    A,@DPTR
        JNZ     ??CrossCallReturnLabel_13
//  272     {
//  273       LED_RED_ON();
        SETB    0x80.5
//  274       osal_start_timerEx(zclOnOffLight_TaskID, 
//  275                          ZCL_DEVICE_LEDOFF_EVENT,
//  276                          200);
        ; Setup parameters for call to function osal_start_timerEx
        MOV     R4,#-0x38
        MOV     R5,#0x0
        MOV     R2,#0x0
        MOV     R3,#0x20
        LCALL   ??Subroutine9_0 & 0xFFFF
//  277     }
//  278   }
//  279   if (events & ZCL_DEVICE_LEDOFF_EVENT) 
??CrossCallReturnLabel_13:
        MOV     A,R7
        ANL     A,#0x20
        JZ      ??CrossCallReturnLabel_14
//  280   {
//  281     LED_RED_OFF();
        CLR     0x80.5
//  282     osal_start_timerEx(zclOnOffLight_TaskID, 
//  283                        ZCL_DEVICE_EXIT_NETWORK_EVENT,
//  284                        2000);
        ; Setup parameters for call to function osal_start_timerEx
        MOV     R4,#-0x30
        MOV     R5,#0x7
        MOV     R2,#0x0
        MOV     R3,#0x10
        LCALL   ??Subroutine9_0 & 0xFFFF
//  285   }
//  286   
//  287   if (events & ZCL_DEVICE_INIT_DONE_EVENT) 
??CrossCallReturnLabel_14:
        MOV     A,R6
        ANL     A,#0x8
        JZ      ??CrossCallReturnLabel_15
//  288   {
//  289     zclDevice_InitDone = 1;
        MOV     DPTR,#zclDevice_InitDone
        MOV     A,#0x1
        MOVX    @DPTR,A
//  290     LED_RED_OFF();
        CLR     0x80.5
//  291     zclLightControlTouchPanelEnable();
        ; Setup parameters for call to function zclLightControlTouchPanelEnable
        LCALL   ??zclLightControlTouchPanelEnable?relay
//  292     
//  293     //初始化完成LED闪烁
//  294     ledcontorl = 0;
        MOV     DPTR,#ledcontorl
        CLR     A
        MOVX    @DPTR,A
//  295     osal_start_timerEx(zclOnOffLight_TaskID,
//  296                        ZCL_DEVICE_EXIT_NETWORK_EVENT,
//  297                        1000);
        ; Setup parameters for call to function osal_start_timerEx
        MOV     R4,#-0x18
        MOV     R5,#0x3
        MOV     R2,A
        MOV     R3,#0x10
        LCALL   ??Subroutine9_0 & 0xFFFF
//  298   }
//  299   
//  300   if (events & ZCL_DEVICE_INFO_SEND_EVENT) 
??CrossCallReturnLabel_15:
        MOV     A,R7
        ANL     A,#0x1
        JZ      ??zclOnOffLight_event_loop_13
//  301   {
//  302    zclSendDeviceInfo();
        ; Setup parameters for call to function zclSendDeviceInfo
        LCALL   ??zclSendDeviceInfo?relay
//  303   }
//  304   
//  305   if (events & ZCL_DEVICE_HEARTBEAT_EVENT) 
??zclOnOffLight_event_loop_13:
        MOV     A,R7
        ANL     A,#0x2
        JZ      ??zclOnOffLight_event_loop_14
//  306   {
//  307     zclSendHeartbeat();
        ; Setup parameters for call to function zclSendHeartbeat
        LCALL   ??zclSendHeartbeat?relay
//  308   }  
//  309   
//  310   if (events & ZCL_DEVICE_INTERRUPT_EVENT) 
??zclOnOffLight_event_loop_14:
        MOV     A,R7
        ANL     A,#0x40
        JZ      ??zclOnOffLight_event_loop_15
//  311   {
//  312      zclTouchPanelEvent();
        ; Setup parameters for call to function zclTouchPanelEvent
        LCALL   ??zclTouchPanelEvent?relay
//  313 
//  314   }
//  315   
//  316   //去抖200ms
//  317   if (events & ZCL_DEVICE_TOUCHPANEL_EVENT) 
??zclOnOffLight_event_loop_15:
        MOV     A,R6
        ANL     A,#0x10
        JZ      ??zclOnOffLight_event_loop_16
//  318   {
//  319     if( P0_0 == 0 ){
        MOV     C,0x80.0
        JC      ??zclOnOffLight_event_loop_17
//  320       osal_start_timerEx(zclOnOffLight_TaskID,
//  321                          ZCL_DEVICE_INTERRUPT_EVENT,
//  322                          100);
        ; Setup parameters for call to function osal_start_timerEx
        MOV     R4,#0x64
        MOV     R5,#0x0
        MOV     R2,#0x0
        MOV     R3,#0x40
        LCALL   ??Subroutine9_0 & 0xFFFF
//  323     }else{
??CrossCallReturnLabel_16:
        SJMP    ??zclOnOffLight_event_loop_16
//  324       P0IEN |= BV(0);
??zclOnOffLight_event_loop_17:
        ORL     0xab,#0x1
//  325     }
//  326     //return (events ^ ZCL_DEVICE_LIGHT0_TOUCHPANEL_EVENT);
//  327   }
//  328   
//  329   if (events & ZCL_DEVICE_RESTORE_INTERRUPT_EVENT) 
??zclOnOffLight_event_loop_16:
        MOV     A,R6
        ANL     A,#0x20
        JZ      ??zclOnOffLight_event_loop_18
//  330   {
//  331     zclRestoreInterruptEvent();
        ; Setup parameters for call to function zclRestoreInterruptEvent
        LCALL   ??zclRestoreInterruptEvent?relay
//  332     //return (events ^ ZCL_DEVICE_LIGHT1_TOUCHPANEL_EVENT);
//  333   }
//  334   
//  335   if (events & ZCL_DEVICE_RESET_EVENT) 
??zclOnOffLight_event_loop_18:
        MOV     A,R7
        ANL     A,#0x4
        JZ      ??zclOnOffLight_event_loop_19
//  336   {
//  337     zclFactoryResetEvent();
        ; Setup parameters for call to function zclFactoryResetEvent
        LCALL   ??zclFactoryResetEvent?relay
//  338   }
//  339   
//  340   if(events & ZCL_DEVICE_RESET_1_EVENT)
??zclOnOffLight_event_loop_19:
        MOV     A,R7
        ANL     A,#0x8
        JZ      ??zclOnOffLight_event_loop_20
//  341   {
//  342     if(P0_7 == 0)
        MOV     C,0x80.7
        JC      ??zclOnOffLight_event_loop_21
//  343     {
//  344       g_RestCount++;
        MOV     DPTR,#g_RestCount
        MOVX    A,@DPTR
        INC     A
        MOVX    @DPTR,A
//  345       if(g_RestCount>=3)
        CLR     C
        SUBB    A,#0x3
        MOV     R4,#0x64
        MOV     R5,#0x0
        MOV     R2,#0x0
        JC      ??zclOnOffLight_event_loop_22
//  346       {
//  347         osal_start_timerEx(zclOnOffLight_TaskID, 
//  348                            ZCL_DEVICE_RESET_EVENT,
//  349                            100);
        ; Setup parameters for call to function osal_start_timerEx
        MOV     R3,#0x4
//  350       }
??zclOnOffLight_event_loop_23:
        LCALL   ??Subroutine9_0 & 0xFFFF
??CrossCallReturnLabel_17:
        SJMP    ??zclOnOffLight_event_loop_20
//  351       else
//  352       {
//  353         osal_start_timerEx(zclOnOffLight_TaskID, 
//  354                            ZCL_DEVICE_RESET_1_EVENT,
//  355                            100);
??zclOnOffLight_event_loop_22:
        ; Setup parameters for call to function osal_start_timerEx
        MOV     R3,#0x8
        SJMP    ??zclOnOffLight_event_loop_23
//  356       }
//  357     }
//  358     else
//  359     {
//  360       P0IEN |= BV(7);
??zclOnOffLight_event_loop_21:
        ORL     0xab,#0x80
//  361       g_RestCount=0;
        MOV     DPTR,#g_RestCount
        CLR     A
        MOVX    @DPTR,A
//  362     }
//  363   }
//  364   
//  365   if(events & ZCL_DEVICE_SOFT_RESTART_EVENT)
??zclOnOffLight_event_loop_20:
        MOV     A,R6
        ANL     A,#0x40
        JZ      ??CrossCallReturnLabel_11
//  366   {
//  367     if(zcl_Led_Blink >= 30)
        MOV     DPTR,#zcl_Led_Blink
        MOVX    A,@DPTR
        CLR     C
        SUBB    A,#0x1e
        JC      ??zclOnOffLight_event_loop_24
//  368     {
//  369       zclFactoryReset(TRUE);
        ; Setup parameters for call to function zclFactoryReset
        MOV     R1,#0x1
        LCALL   ??zclFactoryReset?relay
        SJMP    ??CrossCallReturnLabel_11
//  370     }
//  371     else
//  372     {
//  373       if(zcl_Led_Blink %2 == 0)
??zclOnOffLight_event_loop_24:
        MOVX    A,@DPTR
        MOV     C,0xE0 /* A   */.0
        JC      ??zclOnOffLight_event_loop_25
//  374       {
//  375         LED_RED_OFF();
        CLR     0x80.5
        SJMP    ??zclOnOffLight_event_loop_26
//  376       } else {
//  377         LED_RED_ON();
??zclOnOffLight_event_loop_25:
        SETB    0x80.5
//  378       }
//  379       zcl_Led_Blink++;
??zclOnOffLight_event_loop_26:
        INC     A
        MOVX    @DPTR,A
//  380       osal_start_timerEx(zclOnOffLight_TaskID, 
//  381                          ZCL_DEVICE_SOFT_RESTART_EVENT,
//  382                          ZCL_FACTORY_RESET_HINT);
        ; Setup parameters for call to function osal_start_timerEx
        MOV     R4,#-0x38
        MOV     R5,#0x0
        MOV     R2,#0x40
        LCALL   ??Subroutine8_0 & 0xFFFF
//  383     }
//  384   }
//  385   
//  386   // Discard unknown events
//  387   return 0;
??CrossCallReturnLabel_11:
        MOV     R2,#0x0
        MOV     R3,#0x0
??zclOnOffLight_event_loop_11:
        MOV     R7,#0x4
        LJMP    ?BANKED_LEAVE_XDATA
        CFI EndBlock cfiBlock2
        REQUIRE _A_P0
        REQUIRE P0IEN
//  388 }

        RSEG BANKED_CODE:CODE:NOROOT(0)
?Subroutine3:
        CFI Block cfiCond3 Using cfiCommon0
        CFI NoFunction
        CFI Conditional ??CrossCallReturnLabel_0
        CFI R6 load(1, XDATA, add(CFA_XSP16, literal(-12)))
        CFI VB load(1, XDATA, add(CFA_XSP16, literal(-11)))
        CFI V0 load(1, XDATA, add(CFA_XSP16, literal(-10)))
        CFI V1 load(1, XDATA, add(CFA_XSP16, literal(-9)))
        CFI V2 load(1, XDATA, add(CFA_XSP16, literal(-8)))
        CFI V3 load(1, XDATA, add(CFA_XSP16, literal(-7)))
        CFI R7 load(1, XDATA, add(CFA_XSP16, literal(-6)))
        CFI ?RET_LOW load(1, XDATA, add(CFA_XSP16, literal(-5)))
        CFI ?RET_HIGH load(1, XDATA, add(CFA_XSP16, literal(-4)))
        CFI ?BRET_EXT load(1, XDATA, add(CFA_XSP16, literal(-3)))
        CFI DPL0 load(1, XDATA, add(CFA_XSP16, literal(-2)))
        CFI DPH0 load(1, XDATA, add(CFA_XSP16, literal(-1)))
        CFI CFA_SP SP+0
        CFI CFA_XSP16 add(XSP16, 12)
        CFI Block cfiCond4 Using cfiCommon0
        CFI (cfiCond4) NoFunction
        CFI (cfiCond4) Conditional ??CrossCallReturnLabel_1
        CFI (cfiCond4) R6 load(1, XDATA, add(CFA_XSP16, literal(-12)))
        CFI (cfiCond4) VB load(1, XDATA, add(CFA_XSP16, literal(-11)))
        CFI (cfiCond4) V0 load(1, XDATA, add(CFA_XSP16, literal(-10)))
        CFI (cfiCond4) V1 load(1, XDATA, add(CFA_XSP16, literal(-9)))
        CFI (cfiCond4) V2 load(1, XDATA, add(CFA_XSP16, literal(-8)))
        CFI (cfiCond4) V3 load(1, XDATA, add(CFA_XSP16, literal(-7)))
        CFI (cfiCond4) R7 load(1, XDATA, add(CFA_XSP16, literal(-6)))
        CFI (cfiCond4) ?RET_LOW load(1, XDATA, add(CFA_XSP16, literal(-5)))
        CFI (cfiCond4) ?RET_HIGH load(1, XDATA, add(CFA_XSP16, literal(-4)))
        CFI (cfiCond4) ?BRET_EXT load(1, XDATA, add(CFA_XSP16, literal(-3)))
        CFI (cfiCond4) DPL0 load(1, XDATA, add(CFA_XSP16, literal(-2)))
        CFI (cfiCond4) DPH0 load(1, XDATA, add(CFA_XSP16, literal(-1)))
        CFI (cfiCond4) CFA_SP SP+0
        CFI (cfiCond4) CFA_XSP16 add(XSP16, 12)
        CFI Block cfiPicker5 Using cfiCommon1
        CFI (cfiPicker5) NoFunction
        CFI (cfiPicker5) Picker
        LCALL   ?Subroutine6 & 0xFFFF
??CrossCallReturnLabel_5:
        MOV     R0,A
        INC     DPTR
        MOVX    A,@DPTR
        MOV     R1,A
        MOV     DPL,R0
        MOV     DPH,R1
        MOV     R0,#0x0
        MOVX    A,@DPTR
        MOV     R1,A
        RET
        CFI EndBlock cfiCond3
        CFI EndBlock cfiCond4
        CFI EndBlock cfiPicker5

        RSEG BANKED_CODE:CODE:NOROOT(0)
?Subroutine6:
        CFI Block cfiCond6 Using cfiCommon0
        CFI NoFunction
        CFI Conditional ??CrossCallReturnLabel_4
        CFI R6 load(1, XDATA, add(CFA_XSP16, literal(-12)))
        CFI VB load(1, XDATA, add(CFA_XSP16, literal(-11)))
        CFI V0 load(1, XDATA, add(CFA_XSP16, literal(-10)))
        CFI V1 load(1, XDATA, add(CFA_XSP16, literal(-9)))
        CFI V2 load(1, XDATA, add(CFA_XSP16, literal(-8)))
        CFI V3 load(1, XDATA, add(CFA_XSP16, literal(-7)))
        CFI R7 load(1, XDATA, add(CFA_XSP16, literal(-6)))
        CFI ?RET_LOW load(1, XDATA, add(CFA_XSP16, literal(-5)))
        CFI ?RET_HIGH load(1, XDATA, add(CFA_XSP16, literal(-4)))
        CFI ?BRET_EXT load(1, XDATA, add(CFA_XSP16, literal(-3)))
        CFI DPL0 load(1, XDATA, add(CFA_XSP16, literal(-2)))
        CFI DPH0 load(1, XDATA, add(CFA_XSP16, literal(-1)))
        CFI CFA_SP SP+0
        CFI CFA_XSP16 add(XSP16, 12)
        CFI Block cfiCond7 Using cfiCommon0
        CFI (cfiCond7) NoFunction
        CFI (cfiCond7) Conditional ??CrossCallReturnLabel_5, ??CrossCallReturnLabel_0
        CFI (cfiCond7) R6 load(1, XDATA, add(CFA_XSP16, literal(-12)))
        CFI (cfiCond7) VB load(1, XDATA, add(CFA_XSP16, literal(-11)))
        CFI (cfiCond7) V0 load(1, XDATA, add(CFA_XSP16, literal(-10)))
        CFI (cfiCond7) V1 load(1, XDATA, add(CFA_XSP16, literal(-9)))
        CFI (cfiCond7) V2 load(1, XDATA, add(CFA_XSP16, literal(-8)))
        CFI (cfiCond7) V3 load(1, XDATA, add(CFA_XSP16, literal(-7)))
        CFI (cfiCond7) R7 load(1, XDATA, add(CFA_XSP16, literal(-6)))
        CFI (cfiCond7) ?RET_LOW load(1, XDATA, add(CFA_XSP16, literal(-5)))
        CFI (cfiCond7) ?RET_HIGH load(1, XDATA, add(CFA_XSP16, literal(-4)))
        CFI (cfiCond7) ?BRET_EXT load(1, XDATA, add(CFA_XSP16, literal(-3)))
        CFI (cfiCond7) DPL0 load(1, XDATA, add(CFA_XSP16, literal(-2)))
        CFI (cfiCond7) DPH0 load(1, XDATA, add(CFA_XSP16, literal(-1)))
        CFI (cfiCond7) CFA_SP SP+0
        CFI (cfiCond7) CFA_XSP16 add(XSP16, 12)
        CFI Block cfiCond8 Using cfiCommon0
        CFI (cfiCond8) NoFunction
        CFI (cfiCond8) Conditional ??CrossCallReturnLabel_5, ??CrossCallReturnLabel_1
        CFI (cfiCond8) R6 load(1, XDATA, add(CFA_XSP16, literal(-12)))
        CFI (cfiCond8) VB load(1, XDATA, add(CFA_XSP16, literal(-11)))
        CFI (cfiCond8) V0 load(1, XDATA, add(CFA_XSP16, literal(-10)))
        CFI (cfiCond8) V1 load(1, XDATA, add(CFA_XSP16, literal(-9)))
        CFI (cfiCond8) V2 load(1, XDATA, add(CFA_XSP16, literal(-8)))
        CFI (cfiCond8) V3 load(1, XDATA, add(CFA_XSP16, literal(-7)))
        CFI (cfiCond8) R7 load(1, XDATA, add(CFA_XSP16, literal(-6)))
        CFI (cfiCond8) ?RET_LOW load(1, XDATA, add(CFA_XSP16, literal(-5)))
        CFI (cfiCond8) ?RET_HIGH load(1, XDATA, add(CFA_XSP16, literal(-4)))
        CFI (cfiCond8) ?BRET_EXT load(1, XDATA, add(CFA_XSP16, literal(-3)))
        CFI (cfiCond8) DPL0 load(1, XDATA, add(CFA_XSP16, literal(-2)))
        CFI (cfiCond8) DPH0 load(1, XDATA, add(CFA_XSP16, literal(-1)))
        CFI (cfiCond8) CFA_SP SP+0
        CFI (cfiCond8) CFA_XSP16 add(XSP16, 12)
        CFI Block cfiPicker9 Using cfiCommon1
        CFI (cfiPicker9) NoFunction
        CFI (cfiPicker9) Picker
        MOV     A,R2
        ADD     A,#0x17
        MOV     DPL,A
        MOV     A,R3
        ADDC    A,#0x0
        MOV     DPH,A
        MOVX    A,@DPTR
        RET
        CFI EndBlock cfiCond6
        CFI EndBlock cfiCond7
        CFI EndBlock cfiCond8
        CFI EndBlock cfiPicker9
//  389 
//  390 /*********************************************************************
//  391  * @fn      zclOnOffLight_HandleKeys
//  392  *
//  393  * @brief   Handles all key events for this device.
//  394  *
//  395  * @param   shift - true if in shift/alt.
//  396  * @param   keys - bit field for key events. Valid entries:
//  397  *                 HAL_KEY_SW_4
//  398  *                 HAL_KEY_SW_3
//  399  *                 HAL_KEY_SW_2
//  400  *                 HAL_KEY_SW_1
//  401  *
//  402  * @return  none
//  403  */
//  404 static void zclOnOffLight_HandleKeys( byte shift, byte keys )
//  405 {
//  406  // zAddrType_t dstAddr;
//  407   
//  408   (void)shift;  // Intentionally unreferenced parameter
//  409 
//  410   if ( keys & HAL_KEY_SW_2 )
//  411   {
//  412   }
//  413 
//  414   if ( keys & HAL_KEY_SW_3 )
//  415   {
//  416   }
//  417 
//  418   if ( keys & HAL_KEY_SW_4 )
//  419   {
//  420   }
//  421 }
//  422 
//  423 /*********************************************************************
//  424  * @fn      zclOnOffLight_ProcessIdentifyTimeChange
//  425  *
//  426  * @brief   Called to process any change to the IdentifyTime attribute.
//  427  *
//  428  * @param   none
//  429  *
//  430  * @return  none
//  431  */
//  432 static void zclOnOffLight_ProcessIdentifyTimeChange( void )
//  433 {
//  434   if ( zclOnOffLight_IdentifyTime > 0 )
//  435   {
//  436     osal_start_timerEx( zclOnOffLight_TaskID, ONOFFLIGHT_IDENTIFY_TIMEOUT_EVT, 1000 );
//  437   }
//  438   else
//  439   {
//  440     osal_stop_timerEx( zclOnOffLight_TaskID, ONOFFLIGHT_IDENTIFY_TIMEOUT_EVT );
//  441   }
//  442 }
//  443 
//  444 /*********************************************************************
//  445  * @fn      zclOnOffLight_BasicResetCB
//  446  *
//  447  * @brief   Callback from the ZCL General Cluster Library
//  448  *          to set all the Basic Cluster attributes to default values.
//  449  *
//  450  * @param   none
//  451  *
//  452  * @return  none
//  453  */

        RSEG BANKED_CODE:CODE:NOROOT(0)
//  454 static void zclOnOffLight_BasicResetCB( void )
zclOnOffLight_BasicResetCB:
        CFI Block cfiBlock10 Using cfiCommon0
        CFI Function zclOnOffLight_BasicResetCB
        CODE
//  455 {
        ; Saved register size: 0
        ; Auto size: 0
//  456   // Reset all attributes to default values
//  457 }
        LJMP    ?BRET
        CFI EndBlock cfiBlock10
//  458 
//  459 /*********************************************************************
//  460  * @fn      zclOnOffLight_IdentifyCB
//  461  *
//  462  * @brief   Callback from the ZCL General Cluster Library when
//  463  *          it received an Identity Command for this application.
//  464  *
//  465  * @param   srcAddr - source address and endpoint of the response message
//  466  * @param   identifyTime - the number of seconds to identify yourself
//  467  *
//  468  * @return  none
//  469  */

        RSEG BANKED_CODE:CODE:NOROOT(0)
//  470 static void zclOnOffLight_IdentifyCB( zclIdentify_t *pCmd )
zclOnOffLight_IdentifyCB:
        CFI Block cfiBlock11 Using cfiCommon0
        CFI Function zclOnOffLight_IdentifyCB
        CODE
//  471 {
        FUNCALL zclOnOffLight_IdentifyCB, osal_start_timerEx
        LOCFRAME ISTACK, 2, STACK
        LOCFRAME PSTACK, 0, STACK
        LOCFRAME XSTACK, 0, STACK
        LOCFRAME IOVERLAY, 0, STATIC
        LOCFRAME DOVERLAY, 0, STATIC
        ARGFRAME ISTACK, 2, STACK
        ARGFRAME PSTACK, 0, STACK
        ARGFRAME XSTACK, 0, STACK
        ARGFRAME IOVERLAY, 0, STATIC
        ARGFRAME DOVERLAY, 0, STATIC
        FUNCALL zclOnOffLight_IdentifyCB, osal_stop_timerEx
        LOCFRAME ISTACK, 2, STACK
        LOCFRAME PSTACK, 0, STACK
        LOCFRAME XSTACK, 0, STACK
        LOCFRAME IOVERLAY, 0, STATIC
        LOCFRAME DOVERLAY, 0, STATIC
        ARGFRAME ISTACK, 2, STACK
        ARGFRAME PSTACK, 0, STACK
        ARGFRAME XSTACK, 0, STACK
        ARGFRAME IOVERLAY, 0, STATIC
        ARGFRAME DOVERLAY, 0, STATIC
        PUSH    DPL
        CFI DPL0 Frame(CFA_SP, 4)
        CFI CFA_SP SP+-4
        PUSH    DPH
        CFI DPH0 Frame(CFA_SP, 5)
        CFI CFA_SP SP+-5
        ; Saved register size: 2
        ; Auto size: 0
//  472   zclOnOffLight_IdentifyTime = pCmd->identifyTime;
        MOV     DPL,R2
        MOV     DPH,R3
        INC     DPTR
        INC     DPTR
        LCALL   ??Subroutine7_0 & 0xFFFF
??CrossCallReturnLabel_7:
        MOV     DPTR,#zclOnOffLight_IdentifyTime
        MOV     A,R0
        MOVX    @DPTR,A
        INC     DPTR
        MOV     A,R1
        MOVX    @DPTR,A
//  473   zclOnOffLight_ProcessIdentifyTimeChange();
        MOV     A,R0
        ORL     A,R1
        JZ      ??zclOnOffLight_IdentifyCB_0
        ; Setup parameters for call to function osal_start_timerEx
        LCALL   ?Subroutine2 & 0xFFFF
??CrossCallReturnLabel_10:
        SJMP    ??zclOnOffLight_IdentifyCB_1
??zclOnOffLight_IdentifyCB_0:
        ; Setup parameters for call to function osal_stop_timerEx
        MOV     R2,#0x1
        MOV     R3,#0x0
        MOV     DPTR,#zclOnOffLight_TaskID
        MOVX    A,@DPTR
        MOV     R1,A
        LCALL   ??osal_stop_timerEx?relay
//  474 }
??zclOnOffLight_IdentifyCB_1:
        POP     DPH
        CFI DPH0 SameValue
        CFI CFA_SP SP+-4
        POP     DPL
        CFI DPL0 SameValue
        CFI CFA_SP SP+-3
        LJMP    ?BRET
        CFI EndBlock cfiBlock11

        RSEG BANKED_CODE:CODE:NOROOT(0)
?Subroutine4:
        CFI Block cfiCond12 Using cfiCommon0
        CFI NoFunction
        CFI Conditional ??CrossCallReturnLabel_8
        CFI R6 load(1, XDATA, add(CFA_XSP16, literal(-10)))
        CFI VB load(1, XDATA, add(CFA_XSP16, literal(-9)))
        CFI V0 load(1, XDATA, add(CFA_XSP16, literal(-8)))
        CFI V1 load(1, XDATA, add(CFA_XSP16, literal(-7)))
        CFI R7 load(1, XDATA, add(CFA_XSP16, literal(-6)))
        CFI ?RET_LOW load(1, XDATA, add(CFA_XSP16, literal(-5)))
        CFI ?RET_HIGH load(1, XDATA, add(CFA_XSP16, literal(-4)))
        CFI ?BRET_EXT load(1, XDATA, add(CFA_XSP16, literal(-3)))
        CFI DPL0 load(1, XDATA, add(CFA_XSP16, literal(-2)))
        CFI DPH0 load(1, XDATA, add(CFA_XSP16, literal(-1)))
        CFI CFA_SP SP+0
        CFI CFA_XSP16 add(XSP16, 10)
        CFI Block cfiCond13 Using cfiCommon0
        CFI (cfiCond13) NoFunction
        CFI (cfiCond13) Conditional ??CrossCallReturnLabel_9
        CFI (cfiCond13) R6 load(1, XDATA, add(CFA_XSP16, literal(-10)))
        CFI (cfiCond13) VB load(1, XDATA, add(CFA_XSP16, literal(-9)))
        CFI (cfiCond13) V0 load(1, XDATA, add(CFA_XSP16, literal(-8)))
        CFI (cfiCond13) V1 load(1, XDATA, add(CFA_XSP16, literal(-7)))
        CFI (cfiCond13) R7 load(1, XDATA, add(CFA_XSP16, literal(-6)))
        CFI (cfiCond13) ?RET_LOW load(1, XDATA, add(CFA_XSP16, literal(-5)))
        CFI (cfiCond13) ?RET_HIGH load(1, XDATA, add(CFA_XSP16, literal(-4)))
        CFI (cfiCond13) ?BRET_EXT load(1, XDATA, add(CFA_XSP16, literal(-3)))
        CFI (cfiCond13) DPL0 load(1, XDATA, add(CFA_XSP16, literal(-2)))
        CFI (cfiCond13) DPH0 load(1, XDATA, add(CFA_XSP16, literal(-1)))
        CFI (cfiCond13) CFA_SP SP+0
        CFI (cfiCond13) CFA_XSP16 add(XSP16, 10)
        CFI Block cfiPicker14 Using cfiCommon1
        CFI (cfiPicker14) NoFunction
        CFI (cfiPicker14) Picker
        MOV     R3,A
        MOV     DPL,R2
        MOV     DPH,R3
        CFI EndBlock cfiCond12
        CFI EndBlock cfiCond13
        CFI EndBlock cfiPicker14
        REQUIRE ??Subroutine7_0
        ; // Fall through to label ??Subroutine7_0

        RSEG BANKED_CODE:CODE:NOROOT(0)
??Subroutine7_0:
        CFI Block cfiCond15 Using cfiCommon0
        CFI NoFunction
        CFI Conditional ??CrossCallReturnLabel_6
        CFI R6 load(1, XDATA, add(CFA_XSP16, literal(-12)))
        CFI VB load(1, XDATA, add(CFA_XSP16, literal(-11)))
        CFI V0 load(1, XDATA, add(CFA_XSP16, literal(-10)))
        CFI V1 load(1, XDATA, add(CFA_XSP16, literal(-9)))
        CFI V2 load(1, XDATA, add(CFA_XSP16, literal(-8)))
        CFI V3 load(1, XDATA, add(CFA_XSP16, literal(-7)))
        CFI R7 load(1, XDATA, add(CFA_XSP16, literal(-6)))
        CFI ?RET_LOW load(1, XDATA, add(CFA_XSP16, literal(-5)))
        CFI ?RET_HIGH load(1, XDATA, add(CFA_XSP16, literal(-4)))
        CFI ?BRET_EXT load(1, XDATA, add(CFA_XSP16, literal(-3)))
        CFI DPL0 load(1, XDATA, add(CFA_XSP16, literal(-2)))
        CFI DPH0 load(1, XDATA, add(CFA_XSP16, literal(-1)))
        CFI CFA_SP SP+0
        CFI CFA_XSP16 add(XSP16, 12)
        CFI Block cfiCond16 Using cfiCommon0
        CFI (cfiCond16) NoFunction
        CFI (cfiCond16) Conditional ??CrossCallReturnLabel_7
        CFI (cfiCond16) DPL0 Frame(CFA_SP, 4)
        CFI (cfiCond16) DPH0 Frame(CFA_SP, 5)
        CFI (cfiCond16) CFA_SP SP+-5
        CFI Block cfiCond17 Using cfiCommon0
        CFI (cfiCond17) NoFunction
        CFI (cfiCond17) Conditional ??CrossCallReturnLabel_8
        CFI (cfiCond17) R6 load(1, XDATA, add(CFA_XSP16, literal(-10)))
        CFI (cfiCond17) VB load(1, XDATA, add(CFA_XSP16, literal(-9)))
        CFI (cfiCond17) V0 load(1, XDATA, add(CFA_XSP16, literal(-8)))
        CFI (cfiCond17) V1 load(1, XDATA, add(CFA_XSP16, literal(-7)))
        CFI (cfiCond17) R7 load(1, XDATA, add(CFA_XSP16, literal(-6)))
        CFI (cfiCond17) ?RET_LOW load(1, XDATA, add(CFA_XSP16, literal(-5)))
        CFI (cfiCond17) ?RET_HIGH load(1, XDATA, add(CFA_XSP16, literal(-4)))
        CFI (cfiCond17) ?BRET_EXT load(1, XDATA, add(CFA_XSP16, literal(-3)))
        CFI (cfiCond17) DPL0 load(1, XDATA, add(CFA_XSP16, literal(-2)))
        CFI (cfiCond17) DPH0 load(1, XDATA, add(CFA_XSP16, literal(-1)))
        CFI (cfiCond17) CFA_SP SP+0
        CFI (cfiCond17) CFA_XSP16 add(XSP16, 10)
        CFI Block cfiCond18 Using cfiCommon0
        CFI (cfiCond18) NoFunction
        CFI (cfiCond18) Conditional ??CrossCallReturnLabel_9
        CFI (cfiCond18) R6 load(1, XDATA, add(CFA_XSP16, literal(-10)))
        CFI (cfiCond18) VB load(1, XDATA, add(CFA_XSP16, literal(-9)))
        CFI (cfiCond18) V0 load(1, XDATA, add(CFA_XSP16, literal(-8)))
        CFI (cfiCond18) V1 load(1, XDATA, add(CFA_XSP16, literal(-7)))
        CFI (cfiCond18) R7 load(1, XDATA, add(CFA_XSP16, literal(-6)))
        CFI (cfiCond18) ?RET_LOW load(1, XDATA, add(CFA_XSP16, literal(-5)))
        CFI (cfiCond18) ?RET_HIGH load(1, XDATA, add(CFA_XSP16, literal(-4)))
        CFI (cfiCond18) ?BRET_EXT load(1, XDATA, add(CFA_XSP16, literal(-3)))
        CFI (cfiCond18) DPL0 load(1, XDATA, add(CFA_XSP16, literal(-2)))
        CFI (cfiCond18) DPH0 load(1, XDATA, add(CFA_XSP16, literal(-1)))
        CFI (cfiCond18) CFA_SP SP+0
        CFI (cfiCond18) CFA_XSP16 add(XSP16, 10)
        CFI Block cfiPicker19 Using cfiCommon1
        CFI (cfiPicker19) NoFunction
        CFI (cfiPicker19) Picker
        MOVX    A,@DPTR
        MOV     R0,A
        INC     DPTR
        MOVX    A,@DPTR
        MOV     R1,A
        RET
        CFI EndBlock cfiCond15
        CFI EndBlock cfiCond16
        CFI EndBlock cfiCond17
        CFI EndBlock cfiCond18
        CFI EndBlock cfiPicker19
//  475 
//  476 /*********************************************************************
//  477  * @fn      zclOnOffLight_IdentifyQueryRspCB
//  478  *
//  479  * @brief   Callback from the ZCL General Cluster Library when
//  480  *          it received an Identity Query Response Command for this application.
//  481  *
//  482  * @param   srcAddr - requestor's address
//  483  * @param   timeout - number of seconds to identify yourself (valid for query response)
//  484  *
//  485  * @return  none
//  486  */

        RSEG BANKED_CODE:CODE:NOROOT(0)
//  487 static void zclOnOffLight_IdentifyQueryRspCB(  zclIdentifyQueryRsp_t *pRsp )
zclOnOffLight_IdentifyQueryRspCB:
        CFI Block cfiBlock20 Using cfiCommon0
        CFI Function zclOnOffLight_IdentifyQueryRspCB
        CODE
//  488 {
        ; Saved register size: 0
        ; Auto size: 0
//  489   // Query Response (with timeout value)
//  490   (void)pRsp;
//  491 }
        LJMP    ?BRET
        CFI EndBlock cfiBlock20
//  492 
//  493 

        RSEG BANKED_CODE:CODE:NOROOT(0)
//  494 static void zclOnOffLight0_OnOffCB(uint8 cmd )
zclOnOffLight0_OnOffCB:
        CFI Block cfiBlock21 Using cfiCommon0
        CFI Function zclOnOffLight0_OnOffCB
        CODE
//  495 {
        FUNCALL zclOnOffLight0_OnOffCB, zclLightReportEvent
        LOCFRAME ISTACK, 0, STACK
        LOCFRAME PSTACK, 0, STACK
        LOCFRAME XSTACK, 9, STACK
        LOCFRAME IOVERLAY, 0, STATIC
        LOCFRAME DOVERLAY, 0, STATIC
        ARGFRAME ISTACK, 0, STACK
        ARGFRAME PSTACK, 0, STACK
        ARGFRAME XSTACK, 9, STACK
        ARGFRAME IOVERLAY, 0, STATIC
        ARGFRAME DOVERLAY, 0, STATIC
        MOV     A,#-0x9
        LCALL   ?BANKED_ENTER_XDATA
        CFI DPH0 load(1, XDATA, add(CFA_XSP16, literal(-1)))
        CFI DPL0 load(1, XDATA, add(CFA_XSP16, literal(-2)))
        CFI ?BRET_EXT load(1, XDATA, add(CFA_XSP16, literal(-3)))
        CFI ?RET_HIGH load(1, XDATA, add(CFA_XSP16, literal(-4)))
        CFI ?RET_LOW load(1, XDATA, add(CFA_XSP16, literal(-5)))
        CFI R7 load(1, XDATA, add(CFA_XSP16, literal(-6)))
        CFI V0 load(1, XDATA, add(CFA_XSP16, literal(-7)))
        CFI VB load(1, XDATA, add(CFA_XSP16, literal(-8)))
        CFI R6 load(1, XDATA, add(CFA_XSP16, literal(-9)))
        CFI CFA_SP SP+0
        CFI CFA_XSP16 add(XSP16, 9)
        ; Saved register size: 9
        ; Auto size: 0
        MOV     A,R1
        MOV     R6,A
//  496   zclOnOffLight_OnOffCB(0, cmd);
        MOV     A,#0x1
        XRL     A,R6
        JZ      ??zclOnOffLight0_OnOffCB_0
        MOV     A,R6
        JZ      ??zclOnOffLight0_OnOffCB_1
        MOV     DPTR,#zclOnOffLight0_OnOff
        MOVX    A,@DPTR
        JZ      ??zclOnOffLight0_OnOffCB_0
??zclOnOffLight0_OnOffCB_1:
        MOV     DPTR,#zclOnOffLight0_OnOff
        CLR     A
        MOVX    @DPTR,A
        CLR     0x80.2
        SJMP    ??zclOnOffLight0_OnOffCB_2
??zclOnOffLight0_OnOffCB_0:
        MOV     DPTR,#zclOnOffLight0_OnOff
        MOV     A,#0x1
        MOVX    @DPTR,A
        SETB    0x80.2
??zclOnOffLight0_OnOffCB_2:
        ; Setup parameters for call to function zclLightReportEvent
        MOV     R4,#zclOnOffLight0_OnOff & 0xff
        MOV     R5,#(zclOnOffLight0_OnOff >> 8) & 0xff
        MOV     R2,#0x10
        MOV     R3,#0x0
        LCALL   ??zclLightReportEvent?relay
//  497 }
        LJMP    ?Subroutine0 & 0xFFFF
        CFI EndBlock cfiBlock21
        REQUIRE _A_P0
//  498 /*********************************************************************
//  499  * @fn      zclOnOffLight_OnOffCB
//  500  *
//  501  * @brief   Callback from the ZCL General Cluster Library when
//  502  *          it received an On/Off Command for this application.
//  503  *
//  504  * @param   cmd - COMMAND_ON, COMMAND_OFF or COMMAND_TOGGLE
//  505  *
//  506  * @return  none
//  507  */
//  508 static void zclOnOffLight_OnOffCB(uint8 light, uint8 cmd )
//  509 {
//  510   uint8 *zclOnOffLight_OnOff;
//  511   
//  512   if (light == 0)
//  513     zclOnOffLight_OnOff = &zclOnOffLight0_OnOff;
//  514 
//  515   if ( cmd == COMMAND_ON ) 
//  516   {
//  517     *zclOnOffLight_OnOff = LIGHT_ON;
//  518   } else if ( cmd == COMMAND_OFF ) 
//  519   {
//  520     *zclOnOffLight_OnOff = LIGHT_OFF;
//  521   } 
//  522   else 
//  523   {
//  524     if ( *zclOnOffLight_OnOff == LIGHT_OFF )
//  525       *zclOnOffLight_OnOff = LIGHT_ON;
//  526     else
//  527       *zclOnOffLight_OnOff = LIGHT_OFF;
//  528   }
//  529 
//  530   if ( *zclOnOffLight_OnOff == LIGHT_ON ) 
//  531   {
//  532     if (light == 0)
//  533       LIGHT_TURN_ON_LIGHT0();
//  534   } else {
//  535     if (light == 0)
//  536       LIGHT_TURN_OFF_LIGHT0();
//  537   }
//  538   
//  539   if (light == 0) 
//  540   {
//  541     zclLightReportEvent(ONOFFLIGHT0_ENDPOINT, &zclOnOffLight0_OnOff);
//  542   } 
//  543 }
//  544 
//  545 /****************************************************************************** 
//  546  * 
//  547  *  Functions for processing ZCL Foundation incoming Command/Response messages
//  548  *
//  549  *****************************************************************************/
//  550 
//  551 /*********************************************************************
//  552  * @fn      zclOnOffLight_ProcessIncomingMsg
//  553  *
//  554  * @brief   Process ZCL Foundation incoming message
//  555  *
//  556  * @param   pInMsg - pointer to the received message
//  557  *
//  558  * @return  none
//  559  */
//  560 static void zclOnOffLight_ProcessIncomingMsg( zclIncomingMsg_t *pInMsg)
//  561 {
//  562  
//  563   switch ( pInMsg->zclHdr.commandID )
//  564   {
//  565 #ifdef ZCL_READ
//  566     case ZCL_CMD_READ_RSP:
//  567       zclOnOffLight_ProcessInReadRspCmd( pInMsg );
//  568       break;
//  569 #endif
//  570 #ifdef ZCL_WRITE    
//  571     case ZCL_CMD_WRITE_RSP:
//  572       zclOnOffLight_ProcessInWriteRspCmd( pInMsg );
//  573       break;
//  574 #endif
//  575 #ifdef ZCL_REPORT
//  576     // See ZCL Test Applicaiton (zcl_testapp.c) for sample code on Attribute Reporting
//  577     case ZCL_CMD_CONFIG_REPORT:
//  578       //zclOnOffLight_ProcessInConfigReportCmd( pInMsg );
//  579       break;
//  580     
//  581     case ZCL_CMD_CONFIG_REPORT_RSP:
//  582       //zclOnOffLight_ProcessInConfigReportRspCmd( pInMsg );
//  583       break;
//  584     
//  585     case ZCL_CMD_READ_REPORT_CFG:
//  586       //zclOnOffLight_ProcessInReadReportCfgCmd( pInMsg );
//  587       break;
//  588     
//  589     case ZCL_CMD_READ_REPORT_CFG_RSP:
//  590       //zclOnOffLight_ProcessInReadReportCfgRspCmd( pInMsg );
//  591       break;
//  592     
//  593     case ZCL_CMD_REPORT:
//  594       //zclOnOffLight_ProcessInReportCmd( pInMsg );
//  595       break;
//  596 #endif   
//  597     case ZCL_CMD_DEFAULT_RSP:
//  598       zclOnOffLight_ProcessInDefaultRspCmd( pInMsg );
//  599       break;
//  600 #ifdef ZCL_DISCOVER     
//  601     case ZCL_CMD_DISCOVER_RSP:
//  602       zclOnOffLight_ProcessInDiscRspCmd( pInMsg );
//  603       break;
//  604 #endif  
//  605     default:
//  606       break;
//  607   }
//  608   
//  609   if ( pInMsg->attrCmd )
//  610     osal_mem_free( pInMsg->attrCmd );
//  611 }
//  612 
//  613 #ifdef ZCL_READ
//  614 /*********************************************************************
//  615  * @fn      zclOnOffLight_ProcessInReadRspCmd
//  616  *
//  617  * @brief   Process the "Profile" Read Response Command
//  618  *
//  619  * @param   pInMsg - incoming message to process
//  620  *
//  621  * @return  none
//  622  */
//  623 static uint8 zclOnOffLight_ProcessInReadRspCmd( zclIncomingMsg_t *pInMsg )
//  624 {
//  625   zclReadRspCmd_t *readRspCmd;
//  626   uint8 i;
//  627 
//  628   readRspCmd = (zclReadRspCmd_t *)pInMsg->attrCmd;
//  629   for (i = 0; i < readRspCmd->numAttr; i++)
//  630   {
//  631     // Notify the originator of the results of the original read attributes 
//  632     // attempt and, for each successfull request, the value of the requested 
//  633     // attribute
//  634   }
//  635 
//  636   return TRUE; 
//  637 }
//  638 #endif // ZCL_READ
//  639 
//  640 #ifdef ZCL_WRITE
//  641 /*********************************************************************
//  642  * @fn      zclOnOffLight_ProcessInWriteRspCmd
//  643  *
//  644  * @brief   Process the "Profile" Write Response Command
//  645  *
//  646  * @param   pInMsg - incoming message to process
//  647  *
//  648  * @return  none
//  649  */
//  650 static uint8 zclOnOffLight_ProcessInWriteRspCmd( zclIncomingMsg_t *pInMsg )
//  651 {
//  652   zclWriteRspCmd_t *writeRspCmd;
//  653   uint8 i;
//  654 
//  655   writeRspCmd = (zclWriteRspCmd_t *)pInMsg->attrCmd;
//  656   for (i = 0; i < writeRspCmd->numAttr; i++)
//  657   {
//  658     // Notify the device of the results of the its original write attributes
//  659     // command.
//  660   }
//  661 
//  662   return TRUE; 
//  663 }
//  664 #endif // ZCL_WRITE
//  665 
//  666 /*********************************************************************
//  667  * @fn      zclOnOffLight_ProcessInDefaultRspCmd
//  668  *
//  669  * @brief   Process the "Profile" Default Response Command
//  670  *
//  671  * @param   pInMsg - incoming message to process
//  672  *
//  673  * @return  none
//  674  */
//  675 static uint8 zclOnOffLight_ProcessInDefaultRspCmd( zclIncomingMsg_t *pInMsg )
//  676 {
//  677   // zclDefaultRspCmd_t *defaultRspCmd = (zclDefaultRspCmd_t *)pInMsg->attrCmd;
//  678    
//  679   // Device is notified of the Default Response command.
//  680   (void)pInMsg;
//  681   
//  682   return TRUE; 
//  683 }
//  684 
//  685 #ifdef ZCL_DISCOVER
//  686 /*********************************************************************
//  687  * @fn      zclOnOffLight_ProcessInDiscRspCmd
//  688  *
//  689  * @brief   Process the "Profile" Discover Response Command
//  690  *
//  691  * @param   pInMsg - incoming message to process
//  692  *
//  693  * @return  none
//  694  */
//  695 static uint8 zclOnOffLight_ProcessInDiscRspCmd( zclIncomingMsg_t *pInMsg )
//  696 {
//  697   zclDiscoverRspCmd_t *discoverRspCmd;
//  698   uint8 i;
//  699   
//  700   discoverRspCmd = (zclDiscoverRspCmd_t *)pInMsg->attrCmd;
//  701   for ( i = 0; i < discoverRspCmd->numAttr; i++ )
//  702   {
//  703     // Device is notified of the result of its attribute discovery command.
//  704   }
//  705   
//  706   return TRUE;
//  707 }
//  708 #endif // ZCL_DISCOVER
//  709 
//  710 
//  711 /****************************************************************************
//  712 ****************************************************************************/
//  713 
//  714 
//  715 /***************************************************************************
//  716 *****************************************************************************/

        RSEG BANKED_CODE:CODE:NOROOT(0)
//  717 void Device_App_MessageMSGCB(afIncomingMSGPacket_t *pkt)
Device_App_MessageMSGCB:
        CFI Block cfiBlock22 Using cfiCommon0
        CFI Function Device_App_MessageMSGCB
        CODE
//  718 {
        FUNCALL Device_App_MessageMSGCB, NLME_PermitJoiningRequest
        LOCFRAME ISTACK, 0, STACK
        LOCFRAME PSTACK, 0, STACK
        LOCFRAME XSTACK, 10, STACK
        LOCFRAME IOVERLAY, 0, STATIC
        LOCFRAME DOVERLAY, 0, STATIC
        ARGFRAME ISTACK, 0, STACK
        ARGFRAME PSTACK, 0, STACK
        ARGFRAME XSTACK, 10, STACK
        ARGFRAME IOVERLAY, 0, STATIC
        ARGFRAME DOVERLAY, 0, STATIC
        FUNCALL Device_App_MessageMSGCB, ZDApp_AnnounceNewAddress
        LOCFRAME ISTACK, 0, STACK
        LOCFRAME PSTACK, 0, STACK
        LOCFRAME XSTACK, 10, STACK
        LOCFRAME IOVERLAY, 0, STATIC
        LOCFRAME DOVERLAY, 0, STATIC
        ARGFRAME ISTACK, 0, STACK
        ARGFRAME PSTACK, 0, STACK
        ARGFRAME XSTACK, 10, STACK
        ARGFRAME IOVERLAY, 0, STATIC
        ARGFRAME DOVERLAY, 0, STATIC
        FUNCALL Device_App_MessageMSGCB, osal_start_timerEx
        LOCFRAME ISTACK, 0, STACK
        LOCFRAME PSTACK, 0, STACK
        LOCFRAME XSTACK, 10, STACK
        LOCFRAME IOVERLAY, 0, STATIC
        LOCFRAME DOVERLAY, 0, STATIC
        ARGFRAME ISTACK, 0, STACK
        ARGFRAME PSTACK, 0, STACK
        ARGFRAME XSTACK, 10, STACK
        ARGFRAME IOVERLAY, 0, STATIC
        ARGFRAME DOVERLAY, 0, STATIC
        FUNCALL Device_App_MessageMSGCB, osal_rand
        LOCFRAME ISTACK, 0, STACK
        LOCFRAME PSTACK, 0, STACK
        LOCFRAME XSTACK, 10, STACK
        LOCFRAME IOVERLAY, 0, STATIC
        LOCFRAME DOVERLAY, 0, STATIC
        ARGFRAME ISTACK, 0, STACK
        ARGFRAME PSTACK, 0, STACK
        ARGFRAME XSTACK, 10, STACK
        ARGFRAME IOVERLAY, 0, STATIC
        ARGFRAME DOVERLAY, 0, STATIC
        FUNCALL Device_App_MessageMSGCB, osal_start_timerEx
        LOCFRAME ISTACK, 0, STACK
        LOCFRAME PSTACK, 0, STACK
        LOCFRAME XSTACK, 10, STACK
        LOCFRAME IOVERLAY, 0, STATIC
        LOCFRAME DOVERLAY, 0, STATIC
        ARGFRAME ISTACK, 0, STACK
        ARGFRAME PSTACK, 0, STACK
        ARGFRAME XSTACK, 10, STACK
        ARGFRAME IOVERLAY, 0, STATIC
        ARGFRAME DOVERLAY, 0, STATIC
        MOV     A,#-0xa
        LCALL   ?BANKED_ENTER_XDATA
        CFI DPH0 load(1, XDATA, add(CFA_XSP16, literal(-1)))
        CFI DPL0 load(1, XDATA, add(CFA_XSP16, literal(-2)))
        CFI ?BRET_EXT load(1, XDATA, add(CFA_XSP16, literal(-3)))
        CFI ?RET_HIGH load(1, XDATA, add(CFA_XSP16, literal(-4)))
        CFI ?RET_LOW load(1, XDATA, add(CFA_XSP16, literal(-5)))
        CFI R7 load(1, XDATA, add(CFA_XSP16, literal(-6)))
        CFI V1 load(1, XDATA, add(CFA_XSP16, literal(-7)))
        CFI V0 load(1, XDATA, add(CFA_XSP16, literal(-8)))
        CFI VB load(1, XDATA, add(CFA_XSP16, literal(-9)))
        CFI R6 load(1, XDATA, add(CFA_XSP16, literal(-10)))
        CFI CFA_SP SP+0
        CFI CFA_XSP16 add(XSP16, 10)
        ; Saved register size: 10
        ; Auto size: 0
//  719   switch(pkt->clusterId)
        MOV     DPL,R2
        MOV     DPH,R3
        INC     DPTR
        INC     DPTR
        INC     DPTR
        INC     DPTR
        MOVX    A,@DPTR
        MOV     ?V0 + 0,A
        INC     DPTR
        MOVX    A,@DPTR
        MOV     ?V0 + 1,A
        MOV     R0,#?V0 + 0
        LCALL   ?US_SWITCH_SPARSE
`?<Jumptable for Device_App_MessageMSGCB>_0`:
        DATA
        DATA16
        DATA
        DATA16
        DATA
        DATA16
        DW        0
        DATA
        DATA16
        DATA
        DATA16
        DATA
        DATA16
        DW        3
        DATA
        DATA16
        DATA
        DATA16
        DATA
        DATA16
        DW        6
        DATA
        DATA16
        DATA
        DATA16
        DATA
        DATA16
        DW        ??Device_App_MessageMSGCB_0
        DATA
        DATA16
        DATA
        DATA16
        DATA
        DATA16
        DW        2304
        DATA
        DATA16
        DATA
        DATA16
        DATA
        DATA16
        DW        ??Device_App_MessageMSGCB_1
        DATA
        DATA16
        DATA
        DATA16
        DATA
        DATA16
        DW        2305
        DATA
        DATA16
        DATA
        DATA16
        DATA
        DATA16
        DW        ??Device_App_MessageMSGCB_2
        DATA
        DATA16
        DATA
        DATA16
        DW        ??CrossCallReturnLabel_18
        CODE
//  720   {
//  721   case ZCL_CLUSTER_ID_PREMIT_JOIN_ZB_NET:
//  722     if(pkt->cmd.Data[0] == 0xFF)
??Device_App_MessageMSGCB_1:
        MOV     A,R2
        ADD     A,#0x22
        MOV     R2,A
        MOV     A,R3
        ADDC    A,#0x0
        LCALL   ?Subroutine4 & 0xFFFF
??CrossCallReturnLabel_8:
        MOV     DPL,R0
        MOV     DPH,R1
        MOVX    A,@DPTR
        CPL     A
        JNZ     ??Device_App_MessageMSGCB_3
//  723     {
//  724       pkt->cmd.Data[0] = 120;            //pkt->cmd.Data[0] = 60;
        MOV     A,#0x78
        MOVX    @DPTR,A
//  725     }
//  726     NLME_PermitJoiningRequest(pkt->cmd.Data[0]);
??Device_App_MessageMSGCB_3:
        ; Setup parameters for call to function NLME_PermitJoiningRequest
        MOV     DPL,R2
        MOV     DPH,R3
        LCALL   ?Subroutine5 & 0xFFFF
??CrossCallReturnLabel_2:
        MOV     R1,A
        LCALL   ??NLME_PermitJoiningRequest?relay
//  727     break;
        LJMP    ??CrossCallReturnLabel_18 & 0xFFFF
//  728   case ZCL_CLUSTER_ID_SEND_DEVICE_INFO:
//  729     if(pkt->cmd.Data[0] == 0x01)
??Device_App_MessageMSGCB_2:
        MOV     A,R2
        ADD     A,#0x22
        MOV     DPL,A
        MOV     A,R3
        ADDC    A,#0x0
        MOV     DPH,A
        LCALL   ?Subroutine5 & 0xFFFF
??CrossCallReturnLabel_3:
        XRL     A,#0x1
        JNZ     ??CrossCallReturnLabel_18
//  730     {
//  731     if(g_u8sendDeviceInfoFlag == 0)//设备未发送完消息之前不接受新的发送任务
        MOV     DPTR,#g_u8sendDeviceInfoFlag
        MOVX    A,@DPTR
        JNZ     ??CrossCallReturnLabel_18
//  732       {
//  733         g_u8sendDeviceInfoFlag=1;
        MOV     A,#0x1
        MOVX    @DPTR,A
//  734         ZDApp_AnnounceNewAddress();
        ; Setup parameters for call to function ZDApp_AnnounceNewAddress
        LCALL   ??ZDApp_AnnounceNewAddress?relay
//  735         osal_start_timerEx(zclOnOffLight_TaskID, 
//  736                            ZCL_DEVICE_INFO_SEND_EVENT,
//  737                            500);
        ; Setup parameters for call to function osal_start_timerEx
        MOV     R4,#-0xc
        MOV     R5,#0x1
        MOV     R2,#0x0
        MOV     R3,#0x1
        SJMP    ??Device_App_MessageMSGCB_4
//  738       }
//  739     }break;
//  740        
//  741     
//  742   case ZCL_CLUSTER_ID_GEN_ON_OFF:
//  743     {
//  744       if(pkt->cmd.Data[3]== DEVICE_All || pkt->cmd.Data[3]== DEVICE_LIGHT)
??Device_App_MessageMSGCB_0:
        MOV     A,R2
        ADD     A,#0x22
        MOV     R0,A
        MOV     A,R3
        ADDC    A,#0x0
        MOV     R1,A
        MOV     A,R0
        MOV     R2,A
        MOV     A,R1
        LCALL   ?Subroutine4 & 0xFFFF
??CrossCallReturnLabel_9:
        MOV     A,R0
        ADD     A,#0x3
        MOV     DPL,A
        MOV     A,R1
        ADDC    A,#0x0
        MOV     DPH,A
        MOVX    A,@DPTR
        JZ      ??Device_App_MessageMSGCB_5
        XRL     A,#0x1
        JNZ     ??CrossCallReturnLabel_18
//  745       {
//  746         if(pkt->cmd.Data[2] == COMMAND_ON)
??Device_App_MessageMSGCB_5:
        MOV     A,R0
        ADD     A,#0x2
        MOV     DPL,A
        MOV     A,R1
        ADDC    A,#0x0
        MOV     DPH,A
        MOVX    A,@DPTR
        XRL     A,#0x1
        JNZ     ??Device_App_MessageMSGCB_6
//  747         {
//  748           LIGHT_TURN_ON_LIGHT0();
        SETB    0x80.2
        SJMP    ??Device_App_MessageMSGCB_7
//  749          
//  750         }
//  751         else if(pkt->cmd.Data[2] == COMMAND_OFF)
??Device_App_MessageMSGCB_6:
        MOVX    A,@DPTR
        JNZ     ??Device_App_MessageMSGCB_7
//  752         {
//  753           LIGHT_TURN_OFF_LIGHT0();
        CLR     0x80.2
//  754        
//  755         }
//  756         zclOnOffLight0_OnOff = pkt->cmd.Data[2];
??Device_App_MessageMSGCB_7:
        MOV     DPL,R2
        MOV     DPH,R3
        INC     DPTR
        MOVX    A,@DPTR
        MOV     DPH,A
        MOV     DPL,R0
        INC     DPTR
        INC     DPTR
        MOVX    A,@DPTR
        MOV     DPTR,#zclOnOffLight0_OnOff
        MOVX    @DPTR,A
//  757         
//  758         osal_start_timerEx(zclOnOffLight_TaskID, 
//  759                            ZCL_DEVICE_SEND_ONOFF_STATE_EVENT,
//  760                            ZCL_DEVICE_SEND_INFO_TIME_3S);
        ; Setup parameters for call to function osal_rand
        LCALL   ??osal_rand?relay
        ; Setup parameters for call to function osal_start_timerEx
        MOV     A,R2
        ADD     A,#-0x48
        MOV     R4,A
        CLR     A
        ADDC    A,#0xb
        MOV     R5,A
        MOV     R2,#0x2
        MOV     R3,#0x0
//  761       }
//  762     }
//  763     break;
//  764     
//  765   default:
//  766     break;
//  767   }
??Device_App_MessageMSGCB_4:
        LCALL   ??Subroutine9_0 & 0xFFFF
        CFI EndBlock cfiBlock22
//  768 
//  769 }
??CrossCallReturnLabel_18:
        REQUIRE ?Subroutine1
        REQUIRE _A_P0
        ; // Fall through to label ?Subroutine1

        RSEG BANKED_CODE:CODE:NOROOT(0)
?Subroutine1:
        CFI Block cfiBlock23 Using cfiCommon0
        CFI NoFunction
        CFI CFA_SP SP+0
        CFI CFA_XSP16 add(XSP16, 10)
        CFI VB load(1, XDATA, add(CFA_XSP16, literal(-9)))
        CFI DPL0 load(1, XDATA, add(CFA_XSP16, literal(-2)))
        CFI DPH0 load(1, XDATA, add(CFA_XSP16, literal(-1)))
        CFI R6 load(1, XDATA, add(CFA_XSP16, literal(-10)))
        CFI R7 load(1, XDATA, add(CFA_XSP16, literal(-6)))
        CFI V0 load(1, XDATA, add(CFA_XSP16, literal(-8)))
        CFI V1 load(1, XDATA, add(CFA_XSP16, literal(-7)))
        CFI ?BRET_EXT load(1, XDATA, add(CFA_XSP16, literal(-3)))
        CFI ?RET_HIGH load(1, XDATA, add(CFA_XSP16, literal(-4)))
        CFI ?RET_LOW load(1, XDATA, add(CFA_XSP16, literal(-5)))
        MOV     R7,#0x2
        LJMP    ?BANKED_LEAVE_XDATA
        CFI EndBlock cfiBlock23

        RSEG BANKED_CODE:CODE:NOROOT(0)
?Subroutine5:
        CFI Block cfiCond24 Using cfiCommon0
        CFI NoFunction
        CFI Conditional ??CrossCallReturnLabel_2
        CFI R6 load(1, XDATA, add(CFA_XSP16, literal(-10)))
        CFI VB load(1, XDATA, add(CFA_XSP16, literal(-9)))
        CFI V0 load(1, XDATA, add(CFA_XSP16, literal(-8)))
        CFI V1 load(1, XDATA, add(CFA_XSP16, literal(-7)))
        CFI R7 load(1, XDATA, add(CFA_XSP16, literal(-6)))
        CFI ?RET_LOW load(1, XDATA, add(CFA_XSP16, literal(-5)))
        CFI ?RET_HIGH load(1, XDATA, add(CFA_XSP16, literal(-4)))
        CFI ?BRET_EXT load(1, XDATA, add(CFA_XSP16, literal(-3)))
        CFI DPL0 load(1, XDATA, add(CFA_XSP16, literal(-2)))
        CFI DPH0 load(1, XDATA, add(CFA_XSP16, literal(-1)))
        CFI CFA_SP SP+0
        CFI CFA_XSP16 add(XSP16, 10)
        CFI Block cfiCond25 Using cfiCommon0
        CFI (cfiCond25) NoFunction
        CFI (cfiCond25) Conditional ??CrossCallReturnLabel_3
        CFI (cfiCond25) R6 load(1, XDATA, add(CFA_XSP16, literal(-10)))
        CFI (cfiCond25) VB load(1, XDATA, add(CFA_XSP16, literal(-9)))
        CFI (cfiCond25) V0 load(1, XDATA, add(CFA_XSP16, literal(-8)))
        CFI (cfiCond25) V1 load(1, XDATA, add(CFA_XSP16, literal(-7)))
        CFI (cfiCond25) R7 load(1, XDATA, add(CFA_XSP16, literal(-6)))
        CFI (cfiCond25) ?RET_LOW load(1, XDATA, add(CFA_XSP16, literal(-5)))
        CFI (cfiCond25) ?RET_HIGH load(1, XDATA, add(CFA_XSP16, literal(-4)))
        CFI (cfiCond25) ?BRET_EXT load(1, XDATA, add(CFA_XSP16, literal(-3)))
        CFI (cfiCond25) DPL0 load(1, XDATA, add(CFA_XSP16, literal(-2)))
        CFI (cfiCond25) DPH0 load(1, XDATA, add(CFA_XSP16, literal(-1)))
        CFI (cfiCond25) CFA_SP SP+0
        CFI (cfiCond25) CFA_XSP16 add(XSP16, 10)
        CFI Block cfiPicker26 Using cfiCommon1
        CFI (cfiPicker26) NoFunction
        CFI (cfiPicker26) Picker
        MOVX    A,@DPTR
        MOV     R0,A
        INC     DPTR
        MOVX    A,@DPTR
        MOV     DPH,A
        MOV     DPL,R0
        MOVX    A,@DPTR
        RET
        CFI EndBlock cfiCond24
        CFI EndBlock cfiCond25
        CFI EndBlock cfiPicker26

        RSEG BANKED_CODE:CODE:NOROOT(0)
?Subroutine2:
        CFI Block cfiCond27 Using cfiCommon0
        CFI NoFunction
        CFI Conditional ??CrossCallReturnLabel_19
        CFI R6 load(1, XDATA, add(CFA_XSP16, literal(-12)))
        CFI VB load(1, XDATA, add(CFA_XSP16, literal(-11)))
        CFI V0 load(1, XDATA, add(CFA_XSP16, literal(-10)))
        CFI V1 load(1, XDATA, add(CFA_XSP16, literal(-9)))
        CFI V2 load(1, XDATA, add(CFA_XSP16, literal(-8)))
        CFI V3 load(1, XDATA, add(CFA_XSP16, literal(-7)))
        CFI R7 load(1, XDATA, add(CFA_XSP16, literal(-6)))
        CFI ?RET_LOW load(1, XDATA, add(CFA_XSP16, literal(-5)))
        CFI ?RET_HIGH load(1, XDATA, add(CFA_XSP16, literal(-4)))
        CFI ?BRET_EXT load(1, XDATA, add(CFA_XSP16, literal(-3)))
        CFI DPL0 load(1, XDATA, add(CFA_XSP16, literal(-2)))
        CFI DPH0 load(1, XDATA, add(CFA_XSP16, literal(-1)))
        CFI CFA_SP SP+0
        CFI CFA_XSP16 add(XSP16, 12)
        CFI Block cfiCond28 Using cfiCommon0
        CFI (cfiCond28) NoFunction
        CFI (cfiCond28) Conditional ??CrossCallReturnLabel_10
        CFI (cfiCond28) DPL0 Frame(CFA_SP, 4)
        CFI (cfiCond28) DPH0 Frame(CFA_SP, 5)
        CFI (cfiCond28) CFA_SP SP+-5
        CFI Block cfiPicker29 Using cfiCommon1
        CFI (cfiPicker29) NoFunction
        CFI (cfiPicker29) Picker
        MOV     R4,#-0x18
        MOV     R5,#0x3
        MOV     R2,#0x1
        CFI EndBlock cfiCond27
        CFI EndBlock cfiCond28
        CFI EndBlock cfiPicker29
        REQUIRE ??Subroutine8_0
        ; // Fall through to label ??Subroutine8_0

        RSEG BANKED_CODE:CODE:NOROOT(0)
??Subroutine8_0:
        CFI Block cfiCond30 Using cfiCommon0
        CFI NoFunction
        CFI Conditional ??CrossCallReturnLabel_11
        CFI R6 load(1, XDATA, add(CFA_XSP16, literal(-12)))
        CFI VB load(1, XDATA, add(CFA_XSP16, literal(-11)))
        CFI V0 load(1, XDATA, add(CFA_XSP16, literal(-10)))
        CFI V1 load(1, XDATA, add(CFA_XSP16, literal(-9)))
        CFI V2 load(1, XDATA, add(CFA_XSP16, literal(-8)))
        CFI V3 load(1, XDATA, add(CFA_XSP16, literal(-7)))
        CFI R7 load(1, XDATA, add(CFA_XSP16, literal(-6)))
        CFI ?RET_LOW load(1, XDATA, add(CFA_XSP16, literal(-5)))
        CFI ?RET_HIGH load(1, XDATA, add(CFA_XSP16, literal(-4)))
        CFI ?BRET_EXT load(1, XDATA, add(CFA_XSP16, literal(-3)))
        CFI DPL0 load(1, XDATA, add(CFA_XSP16, literal(-2)))
        CFI DPH0 load(1, XDATA, add(CFA_XSP16, literal(-1)))
        CFI CFA_SP SP+0
        CFI CFA_XSP16 add(XSP16, 12)
        CFI Block cfiCond31 Using cfiCommon0
        CFI (cfiCond31) NoFunction
        CFI (cfiCond31) Conditional ??CrossCallReturnLabel_19
        CFI (cfiCond31) R6 load(1, XDATA, add(CFA_XSP16, literal(-12)))
        CFI (cfiCond31) VB load(1, XDATA, add(CFA_XSP16, literal(-11)))
        CFI (cfiCond31) V0 load(1, XDATA, add(CFA_XSP16, literal(-10)))
        CFI (cfiCond31) V1 load(1, XDATA, add(CFA_XSP16, literal(-9)))
        CFI (cfiCond31) V2 load(1, XDATA, add(CFA_XSP16, literal(-8)))
        CFI (cfiCond31) V3 load(1, XDATA, add(CFA_XSP16, literal(-7)))
        CFI (cfiCond31) R7 load(1, XDATA, add(CFA_XSP16, literal(-6)))
        CFI (cfiCond31) ?RET_LOW load(1, XDATA, add(CFA_XSP16, literal(-5)))
        CFI (cfiCond31) ?RET_HIGH load(1, XDATA, add(CFA_XSP16, literal(-4)))
        CFI (cfiCond31) ?BRET_EXT load(1, XDATA, add(CFA_XSP16, literal(-3)))
        CFI (cfiCond31) DPL0 load(1, XDATA, add(CFA_XSP16, literal(-2)))
        CFI (cfiCond31) DPH0 load(1, XDATA, add(CFA_XSP16, literal(-1)))
        CFI (cfiCond31) CFA_SP SP+0
        CFI (cfiCond31) CFA_XSP16 add(XSP16, 12)
        CFI Block cfiCond32 Using cfiCommon0
        CFI (cfiCond32) NoFunction
        CFI (cfiCond32) Conditional ??CrossCallReturnLabel_10
        CFI (cfiCond32) DPL0 Frame(CFA_SP, 4)
        CFI (cfiCond32) DPH0 Frame(CFA_SP, 5)
        CFI (cfiCond32) CFA_SP SP+-5
        CFI Block cfiPicker33 Using cfiCommon1
        CFI (cfiPicker33) NoFunction
        CFI (cfiPicker33) Picker
        MOV     R3,#0x0
        CFI EndBlock cfiCond30
        CFI EndBlock cfiCond31
        CFI EndBlock cfiCond32
        CFI EndBlock cfiPicker33
        REQUIRE ??Subroutine9_0
        ; // Fall through to label ??Subroutine9_0

        RSEG BANKED_CODE:CODE:NOROOT(0)
??Subroutine9_0:
        CFI Block cfiCond34 Using cfiCommon0
        CFI NoFunction
        CFI Conditional ??CrossCallReturnLabel_12
        CFI R6 load(1, XDATA, add(CFA_XSP16, literal(-12)))
        CFI VB load(1, XDATA, add(CFA_XSP16, literal(-11)))
        CFI V0 load(1, XDATA, add(CFA_XSP16, literal(-10)))
        CFI V1 load(1, XDATA, add(CFA_XSP16, literal(-9)))
        CFI V2 load(1, XDATA, add(CFA_XSP16, literal(-8)))
        CFI V3 load(1, XDATA, add(CFA_XSP16, literal(-7)))
        CFI R7 load(1, XDATA, add(CFA_XSP16, literal(-6)))
        CFI ?RET_LOW load(1, XDATA, add(CFA_XSP16, literal(-5)))
        CFI ?RET_HIGH load(1, XDATA, add(CFA_XSP16, literal(-4)))
        CFI ?BRET_EXT load(1, XDATA, add(CFA_XSP16, literal(-3)))
        CFI DPL0 load(1, XDATA, add(CFA_XSP16, literal(-2)))
        CFI DPH0 load(1, XDATA, add(CFA_XSP16, literal(-1)))
        CFI CFA_SP SP+0
        CFI CFA_XSP16 add(XSP16, 12)
        CFI Block cfiCond35 Using cfiCommon0
        CFI (cfiCond35) NoFunction
        CFI (cfiCond35) Conditional ??CrossCallReturnLabel_13
        CFI (cfiCond35) R6 load(1, XDATA, add(CFA_XSP16, literal(-12)))
        CFI (cfiCond35) VB load(1, XDATA, add(CFA_XSP16, literal(-11)))
        CFI (cfiCond35) V0 load(1, XDATA, add(CFA_XSP16, literal(-10)))
        CFI (cfiCond35) V1 load(1, XDATA, add(CFA_XSP16, literal(-9)))
        CFI (cfiCond35) V2 load(1, XDATA, add(CFA_XSP16, literal(-8)))
        CFI (cfiCond35) V3 load(1, XDATA, add(CFA_XSP16, literal(-7)))
        CFI (cfiCond35) R7 load(1, XDATA, add(CFA_XSP16, literal(-6)))
        CFI (cfiCond35) ?RET_LOW load(1, XDATA, add(CFA_XSP16, literal(-5)))
        CFI (cfiCond35) ?RET_HIGH load(1, XDATA, add(CFA_XSP16, literal(-4)))
        CFI (cfiCond35) ?BRET_EXT load(1, XDATA, add(CFA_XSP16, literal(-3)))
        CFI (cfiCond35) DPL0 load(1, XDATA, add(CFA_XSP16, literal(-2)))
        CFI (cfiCond35) DPH0 load(1, XDATA, add(CFA_XSP16, literal(-1)))
        CFI (cfiCond35) CFA_SP SP+0
        CFI (cfiCond35) CFA_XSP16 add(XSP16, 12)
        CFI Block cfiCond36 Using cfiCommon0
        CFI (cfiCond36) NoFunction
        CFI (cfiCond36) Conditional ??CrossCallReturnLabel_14
        CFI (cfiCond36) R6 load(1, XDATA, add(CFA_XSP16, literal(-12)))
        CFI (cfiCond36) VB load(1, XDATA, add(CFA_XSP16, literal(-11)))
        CFI (cfiCond36) V0 load(1, XDATA, add(CFA_XSP16, literal(-10)))
        CFI (cfiCond36) V1 load(1, XDATA, add(CFA_XSP16, literal(-9)))
        CFI (cfiCond36) V2 load(1, XDATA, add(CFA_XSP16, literal(-8)))
        CFI (cfiCond36) V3 load(1, XDATA, add(CFA_XSP16, literal(-7)))
        CFI (cfiCond36) R7 load(1, XDATA, add(CFA_XSP16, literal(-6)))
        CFI (cfiCond36) ?RET_LOW load(1, XDATA, add(CFA_XSP16, literal(-5)))
        CFI (cfiCond36) ?RET_HIGH load(1, XDATA, add(CFA_XSP16, literal(-4)))
        CFI (cfiCond36) ?BRET_EXT load(1, XDATA, add(CFA_XSP16, literal(-3)))
        CFI (cfiCond36) DPL0 load(1, XDATA, add(CFA_XSP16, literal(-2)))
        CFI (cfiCond36) DPH0 load(1, XDATA, add(CFA_XSP16, literal(-1)))
        CFI (cfiCond36) CFA_SP SP+0
        CFI (cfiCond36) CFA_XSP16 add(XSP16, 12)
        CFI Block cfiCond37 Using cfiCommon0
        CFI (cfiCond37) NoFunction
        CFI (cfiCond37) Conditional ??CrossCallReturnLabel_15
        CFI (cfiCond37) R6 load(1, XDATA, add(CFA_XSP16, literal(-12)))
        CFI (cfiCond37) VB load(1, XDATA, add(CFA_XSP16, literal(-11)))
        CFI (cfiCond37) V0 load(1, XDATA, add(CFA_XSP16, literal(-10)))
        CFI (cfiCond37) V1 load(1, XDATA, add(CFA_XSP16, literal(-9)))
        CFI (cfiCond37) V2 load(1, XDATA, add(CFA_XSP16, literal(-8)))
        CFI (cfiCond37) V3 load(1, XDATA, add(CFA_XSP16, literal(-7)))
        CFI (cfiCond37) R7 load(1, XDATA, add(CFA_XSP16, literal(-6)))
        CFI (cfiCond37) ?RET_LOW load(1, XDATA, add(CFA_XSP16, literal(-5)))
        CFI (cfiCond37) ?RET_HIGH load(1, XDATA, add(CFA_XSP16, literal(-4)))
        CFI (cfiCond37) ?BRET_EXT load(1, XDATA, add(CFA_XSP16, literal(-3)))
        CFI (cfiCond37) DPL0 load(1, XDATA, add(CFA_XSP16, literal(-2)))
        CFI (cfiCond37) DPH0 load(1, XDATA, add(CFA_XSP16, literal(-1)))
        CFI (cfiCond37) CFA_SP SP+0
        CFI (cfiCond37) CFA_XSP16 add(XSP16, 12)
        CFI Block cfiCond38 Using cfiCommon0
        CFI (cfiCond38) NoFunction
        CFI (cfiCond38) Conditional ??CrossCallReturnLabel_16
        CFI (cfiCond38) R6 load(1, XDATA, add(CFA_XSP16, literal(-12)))
        CFI (cfiCond38) VB load(1, XDATA, add(CFA_XSP16, literal(-11)))
        CFI (cfiCond38) V0 load(1, XDATA, add(CFA_XSP16, literal(-10)))
        CFI (cfiCond38) V1 load(1, XDATA, add(CFA_XSP16, literal(-9)))
        CFI (cfiCond38) V2 load(1, XDATA, add(CFA_XSP16, literal(-8)))
        CFI (cfiCond38) V3 load(1, XDATA, add(CFA_XSP16, literal(-7)))
        CFI (cfiCond38) R7 load(1, XDATA, add(CFA_XSP16, literal(-6)))
        CFI (cfiCond38) ?RET_LOW load(1, XDATA, add(CFA_XSP16, literal(-5)))
        CFI (cfiCond38) ?RET_HIGH load(1, XDATA, add(CFA_XSP16, literal(-4)))
        CFI (cfiCond38) ?BRET_EXT load(1, XDATA, add(CFA_XSP16, literal(-3)))
        CFI (cfiCond38) DPL0 load(1, XDATA, add(CFA_XSP16, literal(-2)))
        CFI (cfiCond38) DPH0 load(1, XDATA, add(CFA_XSP16, literal(-1)))
        CFI (cfiCond38) CFA_SP SP+0
        CFI (cfiCond38) CFA_XSP16 add(XSP16, 12)
        CFI Block cfiCond39 Using cfiCommon0
        CFI (cfiCond39) NoFunction
        CFI (cfiCond39) Conditional ??CrossCallReturnLabel_17
        CFI (cfiCond39) R6 load(1, XDATA, add(CFA_XSP16, literal(-12)))
        CFI (cfiCond39) VB load(1, XDATA, add(CFA_XSP16, literal(-11)))
        CFI (cfiCond39) V0 load(1, XDATA, add(CFA_XSP16, literal(-10)))
        CFI (cfiCond39) V1 load(1, XDATA, add(CFA_XSP16, literal(-9)))
        CFI (cfiCond39) V2 load(1, XDATA, add(CFA_XSP16, literal(-8)))
        CFI (cfiCond39) V3 load(1, XDATA, add(CFA_XSP16, literal(-7)))
        CFI (cfiCond39) R7 load(1, XDATA, add(CFA_XSP16, literal(-6)))
        CFI (cfiCond39) ?RET_LOW load(1, XDATA, add(CFA_XSP16, literal(-5)))
        CFI (cfiCond39) ?RET_HIGH load(1, XDATA, add(CFA_XSP16, literal(-4)))
        CFI (cfiCond39) ?BRET_EXT load(1, XDATA, add(CFA_XSP16, literal(-3)))
        CFI (cfiCond39) DPL0 load(1, XDATA, add(CFA_XSP16, literal(-2)))
        CFI (cfiCond39) DPH0 load(1, XDATA, add(CFA_XSP16, literal(-1)))
        CFI (cfiCond39) CFA_SP SP+0
        CFI (cfiCond39) CFA_XSP16 add(XSP16, 12)
        CFI Block cfiCond40 Using cfiCommon0
        CFI (cfiCond40) NoFunction
        CFI (cfiCond40) Conditional ??CrossCallReturnLabel_18
        CFI (cfiCond40) R6 load(1, XDATA, add(CFA_XSP16, literal(-10)))
        CFI (cfiCond40) VB load(1, XDATA, add(CFA_XSP16, literal(-9)))
        CFI (cfiCond40) V0 load(1, XDATA, add(CFA_XSP16, literal(-8)))
        CFI (cfiCond40) V1 load(1, XDATA, add(CFA_XSP16, literal(-7)))
        CFI (cfiCond40) R7 load(1, XDATA, add(CFA_XSP16, literal(-6)))
        CFI (cfiCond40) ?RET_LOW load(1, XDATA, add(CFA_XSP16, literal(-5)))
        CFI (cfiCond40) ?RET_HIGH load(1, XDATA, add(CFA_XSP16, literal(-4)))
        CFI (cfiCond40) ?BRET_EXT load(1, XDATA, add(CFA_XSP16, literal(-3)))
        CFI (cfiCond40) DPL0 load(1, XDATA, add(CFA_XSP16, literal(-2)))
        CFI (cfiCond40) DPH0 load(1, XDATA, add(CFA_XSP16, literal(-1)))
        CFI (cfiCond40) CFA_SP SP+0
        CFI (cfiCond40) CFA_XSP16 add(XSP16, 10)
        CFI Block cfiCond41 Using cfiCommon0
        CFI (cfiCond41) NoFunction
        CFI (cfiCond41) Conditional ??CrossCallReturnLabel_11
        CFI (cfiCond41) R6 load(1, XDATA, add(CFA_XSP16, literal(-12)))
        CFI (cfiCond41) VB load(1, XDATA, add(CFA_XSP16, literal(-11)))
        CFI (cfiCond41) V0 load(1, XDATA, add(CFA_XSP16, literal(-10)))
        CFI (cfiCond41) V1 load(1, XDATA, add(CFA_XSP16, literal(-9)))
        CFI (cfiCond41) V2 load(1, XDATA, add(CFA_XSP16, literal(-8)))
        CFI (cfiCond41) V3 load(1, XDATA, add(CFA_XSP16, literal(-7)))
        CFI (cfiCond41) R7 load(1, XDATA, add(CFA_XSP16, literal(-6)))
        CFI (cfiCond41) ?RET_LOW load(1, XDATA, add(CFA_XSP16, literal(-5)))
        CFI (cfiCond41) ?RET_HIGH load(1, XDATA, add(CFA_XSP16, literal(-4)))
        CFI (cfiCond41) ?BRET_EXT load(1, XDATA, add(CFA_XSP16, literal(-3)))
        CFI (cfiCond41) DPL0 load(1, XDATA, add(CFA_XSP16, literal(-2)))
        CFI (cfiCond41) DPH0 load(1, XDATA, add(CFA_XSP16, literal(-1)))
        CFI (cfiCond41) CFA_SP SP+0
        CFI (cfiCond41) CFA_XSP16 add(XSP16, 12)
        CFI Block cfiCond42 Using cfiCommon0
        CFI (cfiCond42) NoFunction
        CFI (cfiCond42) Conditional ??CrossCallReturnLabel_19
        CFI (cfiCond42) R6 load(1, XDATA, add(CFA_XSP16, literal(-12)))
        CFI (cfiCond42) VB load(1, XDATA, add(CFA_XSP16, literal(-11)))
        CFI (cfiCond42) V0 load(1, XDATA, add(CFA_XSP16, literal(-10)))
        CFI (cfiCond42) V1 load(1, XDATA, add(CFA_XSP16, literal(-9)))
        CFI (cfiCond42) V2 load(1, XDATA, add(CFA_XSP16, literal(-8)))
        CFI (cfiCond42) V3 load(1, XDATA, add(CFA_XSP16, literal(-7)))
        CFI (cfiCond42) R7 load(1, XDATA, add(CFA_XSP16, literal(-6)))
        CFI (cfiCond42) ?RET_LOW load(1, XDATA, add(CFA_XSP16, literal(-5)))
        CFI (cfiCond42) ?RET_HIGH load(1, XDATA, add(CFA_XSP16, literal(-4)))
        CFI (cfiCond42) ?BRET_EXT load(1, XDATA, add(CFA_XSP16, literal(-3)))
        CFI (cfiCond42) DPL0 load(1, XDATA, add(CFA_XSP16, literal(-2)))
        CFI (cfiCond42) DPH0 load(1, XDATA, add(CFA_XSP16, literal(-1)))
        CFI (cfiCond42) CFA_SP SP+0
        CFI (cfiCond42) CFA_XSP16 add(XSP16, 12)
        CFI Block cfiCond43 Using cfiCommon0
        CFI (cfiCond43) NoFunction
        CFI (cfiCond43) Conditional ??CrossCallReturnLabel_10
        CFI (cfiCond43) DPL0 Frame(CFA_SP, 4)
        CFI (cfiCond43) DPH0 Frame(CFA_SP, 5)
        CFI (cfiCond43) CFA_SP SP+-5
        CFI Block cfiPicker44 Using cfiCommon1
        CFI (cfiPicker44) NoFunction
        CFI (cfiPicker44) Picker
        MOV     DPTR,#zclOnOffLight_TaskID
        MOVX    A,@DPTR
        MOV     R1,A
        LCALL   ??osal_start_timerEx?relay
        RET
        CFI EndBlock cfiCond34
        CFI EndBlock cfiCond35
        CFI EndBlock cfiCond36
        CFI EndBlock cfiCond37
        CFI EndBlock cfiCond38
        CFI EndBlock cfiCond39
        CFI EndBlock cfiCond40
        CFI EndBlock cfiCond41
        CFI EndBlock cfiCond42
        CFI EndBlock cfiCond43
        CFI EndBlock cfiPicker44
//  770 
//  771 
//  772 //////////////////////////////////////////////////////////////////////////////////
//  773 //判断设备是否是新节点设备加入网络，是则打开设备
//  774 ///////////////////////////////////////////////////////////////////////////////////

        RSEG BANKED_CODE:CODE:NOROOT(0)
//  775 void AppDeviceNwkJionState(void)
AppDeviceNwkJionState:
        CFI Block cfiBlock45 Using cfiCommon0
        CFI Function AppDeviceNwkJionState
        CODE
//  776 {
        FUNCALL AppDeviceNwkJionState, osal_nv_read
        LOCFRAME ISTACK, 0, STACK
        LOCFRAME PSTACK, 0, STACK
        LOCFRAME XSTACK, 14, STACK
        LOCFRAME IOVERLAY, 0, STATIC
        LOCFRAME DOVERLAY, 0, STATIC
        ARGFRAME ISTACK, 0, STACK
        ARGFRAME PSTACK, 0, STACK
        ARGFRAME XSTACK, 14, STACK
        ARGFRAME IOVERLAY, 0, STATIC
        ARGFRAME DOVERLAY, 0, STATIC
        FUNCALL AppDeviceNwkJionState, NLME_PermitJoiningRequest
        LOCFRAME ISTACK, 0, STACK
        LOCFRAME PSTACK, 0, STACK
        LOCFRAME XSTACK, 10, STACK
        LOCFRAME IOVERLAY, 0, STATIC
        LOCFRAME DOVERLAY, 0, STATIC
        ARGFRAME ISTACK, 0, STACK
        ARGFRAME PSTACK, 0, STACK
        ARGFRAME XSTACK, 10, STACK
        ARGFRAME IOVERLAY, 0, STATIC
        ARGFRAME DOVERLAY, 0, STATIC
        FUNCALL AppDeviceNwkJionState, NLME_PermitJoiningRequest
        LOCFRAME ISTACK, 0, STACK
        LOCFRAME PSTACK, 0, STACK
        LOCFRAME XSTACK, 10, STACK
        LOCFRAME IOVERLAY, 0, STATIC
        LOCFRAME DOVERLAY, 0, STATIC
        ARGFRAME ISTACK, 0, STACK
        ARGFRAME PSTACK, 0, STACK
        ARGFRAME XSTACK, 10, STACK
        ARGFRAME IOVERLAY, 0, STATIC
        ARGFRAME DOVERLAY, 0, STATIC
        FUNCALL AppDeviceNwkJionState, NLME_PermitJoiningRequest
        LOCFRAME ISTACK, 0, STACK
        LOCFRAME PSTACK, 0, STACK
        LOCFRAME XSTACK, 10, STACK
        LOCFRAME IOVERLAY, 0, STATIC
        LOCFRAME DOVERLAY, 0, STATIC
        ARGFRAME ISTACK, 0, STACK
        ARGFRAME PSTACK, 0, STACK
        ARGFRAME XSTACK, 10, STACK
        ARGFRAME IOVERLAY, 0, STATIC
        ARGFRAME DOVERLAY, 0, STATIC
        FUNCALL AppDeviceNwkJionState, osal_nv_item_init
        LOCFRAME ISTACK, 0, STACK
        LOCFRAME PSTACK, 0, STACK
        LOCFRAME XSTACK, 12, STACK
        LOCFRAME IOVERLAY, 0, STATIC
        LOCFRAME DOVERLAY, 0, STATIC
        ARGFRAME ISTACK, 0, STACK
        ARGFRAME PSTACK, 0, STACK
        ARGFRAME XSTACK, 12, STACK
        ARGFRAME IOVERLAY, 0, STATIC
        ARGFRAME DOVERLAY, 0, STATIC
        FUNCALL AppDeviceNwkJionState, osal_nv_write
        LOCFRAME ISTACK, 0, STACK
        LOCFRAME PSTACK, 0, STACK
        LOCFRAME XSTACK, 14, STACK
        LOCFRAME IOVERLAY, 0, STATIC
        LOCFRAME DOVERLAY, 0, STATIC
        ARGFRAME ISTACK, 0, STACK
        ARGFRAME PSTACK, 0, STACK
        ARGFRAME XSTACK, 14, STACK
        ARGFRAME IOVERLAY, 0, STATIC
        ARGFRAME DOVERLAY, 0, STATIC
        MOV     A,#-0xa
        LCALL   ?BANKED_ENTER_XDATA
        CFI DPH0 load(1, XDATA, add(CFA_XSP16, literal(-1)))
        CFI DPL0 load(1, XDATA, add(CFA_XSP16, literal(-2)))
        CFI ?BRET_EXT load(1, XDATA, add(CFA_XSP16, literal(-3)))
        CFI ?RET_HIGH load(1, XDATA, add(CFA_XSP16, literal(-4)))
        CFI ?RET_LOW load(1, XDATA, add(CFA_XSP16, literal(-5)))
        CFI R7 load(1, XDATA, add(CFA_XSP16, literal(-6)))
        CFI V1 load(1, XDATA, add(CFA_XSP16, literal(-7)))
        CFI V0 load(1, XDATA, add(CFA_XSP16, literal(-8)))
        CFI VB load(1, XDATA, add(CFA_XSP16, literal(-9)))
        CFI R6 load(1, XDATA, add(CFA_XSP16, literal(-10)))
        CFI CFA_SP SP+0
        CFI CFA_XSP16 add(XSP16, 10)
        ; Saved register size: 10
        ; Auto size: 0
//  777   if(SUCCESS == osal_nv_read(ZDAPP_NV_SYSTEM_RESTART_FLAG,0,sizeof(ReJoinNetFlagInFlash),ReJoinNetFlagInFlash))
        ; Setup parameters for call to function osal_nv_read
        MOV     ?V0 + 0,#ReJoinNetFlagInFlash & 0xff
        MOV     ?V0 + 1,#(ReJoinNetFlagInFlash >> 8) & 0xff
        MOV     R0,#?V0 + 0
        LCALL   ?PUSH_XSTACK_I_TWO
        CFI CFA_XSP16 add(XSP16, 12)
        MOV     ?V0 + 0,#0x1
        MOV     ?V0 + 1,#0x0
        MOV     R0,#?V0 + 0
        LCALL   ?PUSH_XSTACK_I_TWO
        CFI CFA_XSP16 add(XSP16, 14)
        MOV     R4,#0x0
        MOV     R5,#0x0
        MOV     R2,#0x1
        MOV     R3,#0x4
        LCALL   ??osal_nv_read?relay
        MOV     A,#0x4
        LCALL   ?DEALLOC_XSTACK8
        CFI CFA_XSP16 add(XSP16, 10)
        MOV     A,R1
        MOV     DPTR,#ReJoinNetFlagInFlash
        JNZ     ??AppDeviceNwkJionState_0
//  778   {
//  779     if(ReJoinNetFlagInFlash[0] == 0x01)//表示复位重启
        MOVX    A,@DPTR
        XRL     A,#0x1
        JNZ     ??AppDeviceNwkJionState_1
//  780     {
//  781       NLME_PermitJoiningRequest(60);//上电网络允许加入
        ; Setup parameters for call to function NLME_PermitJoiningRequest
        MOV     R1,#0x3c
??AppDeviceNwkJionState_2:
        LCALL   ??NLME_PermitJoiningRequest?relay
        SJMP    ??AppDeviceNwkJionState_3
//  782     }
//  783     else
//  784     {
//  785       NLME_PermitJoiningRequest(0);//上电关闭网络允许加入
??AppDeviceNwkJionState_1:
        ; Setup parameters for call to function NLME_PermitJoiningRequest
        MOV     R1,#0x0
        SJMP    ??AppDeviceNwkJionState_2
//  786     }
//  787     
//  788   }
//  789   else
//  790   {
//  791     ReJoinNetFlagInFlash[0] = 0x02;
??AppDeviceNwkJionState_0:
        MOV     A,#0x2
        MOVX    @DPTR,A
//  792     NLME_PermitJoiningRequest(60);//上电网络允许加入
        ; Setup parameters for call to function NLME_PermitJoiningRequest
        MOV     R1,#0x3c
        LCALL   ??NLME_PermitJoiningRequest?relay
//  793     osal_nv_item_init(ZDAPP_NV_SYSTEM_RESTART_FLAG,sizeof(ReJoinNetFlagInFlash),NULL);
        ; Setup parameters for call to function osal_nv_item_init
        CLR     A
        MOV     ?V0 + 0,A
        MOV     R0,#?V0 + 0
        LCALL   ?PUSH_XSTACK_I_TWO
        CFI CFA_XSP16 add(XSP16, 12)
        MOV     R4,#0x1
        MOV     R5,#0x0
        MOV     R2,#0x1
        MOV     R3,#0x4
        LCALL   ??osal_nv_item_init?relay
        MOV     A,#0x2
        LCALL   ?DEALLOC_XSTACK8
        CFI CFA_XSP16 add(XSP16, 10)
//  794     osal_nv_write(ZDAPP_NV_SYSTEM_RESTART_FLAG,0,sizeof(ReJoinNetFlagInFlash),ReJoinNetFlagInFlash);
        ; Setup parameters for call to function osal_nv_write
        MOV     ?V0 + 0,#ReJoinNetFlagInFlash & 0xff
        MOV     ?V0 + 1,#(ReJoinNetFlagInFlash >> 8) & 0xff
        MOV     R0,#?V0 + 0
        LCALL   ?PUSH_XSTACK_I_TWO
        CFI CFA_XSP16 add(XSP16, 12)
        MOV     ?V0 + 0,#0x1
        MOV     ?V0 + 1,#0x0
        MOV     R0,#?V0 + 0
        LCALL   ?PUSH_XSTACK_I_TWO
        CFI CFA_XSP16 add(XSP16, 14)
        MOV     R4,#0x0
        MOV     R5,#0x0
        MOV     R2,#0x1
        MOV     R3,#0x4
        LCALL   ??osal_nv_write?relay
        MOV     A,#0x4
        LCALL   ?DEALLOC_XSTACK8
        CFI CFA_XSP16 add(XSP16, 10)
//  795   }
//  796 }
??AppDeviceNwkJionState_3:
        LJMP    ?Subroutine1 & 0xFFFF
        CFI EndBlock cfiBlock45

        RSEG XDATA_ID:CODE:NOROOT(0)
`?<Initializer for zclDevice_JoinNetworkOk>`:
        DATA8
        DB 6

        RSEG XDATA_ID:CODE:NOROOT(0)
`?<Initializer for ReJoinNetFlagInFlash>`:
        DATA8
        DB 255

        RSEG XDATA_ID:CODE:NOROOT(0)
`?<Initializer for zclOnOffLight0_CmdCallbacks>`:
        DATA16
        DW ??zclOnOffLight_BasicResetCB?relay
        DW ??zclOnOffLight_IdentifyCB?relay
        DW ??zclOnOffLight_IdentifyQueryRspCB?relay
        DW ??zclOnOffLight0_OnOffCB?relay
        DW 0H
        DW 0H
        DW 0H
        DW 0H
        DW 0H
        DW 0H
        DW 0H
        DW 0H
        DW 0H
        DW 0H
        DB 0, 0

        RSEG BANK_RELAYS:CODE:REORDER:NOROOT(0)
??zclOnOffLight_Init?relay:
        LCALL   ?BDISPATCH
        DATA
        DC24    zclOnOffLight_Init

        RSEG BANK_RELAYS:CODE:REORDER:NOROOT(0)
??zclOnOffLight_event_loop?relay:
        LCALL   ?BDISPATCH
        DATA
        DC24    zclOnOffLight_event_loop

        RSEG BANK_RELAYS:CODE:REORDER:NOROOT(0)
??zclOnOffLight_BasicResetCB?relay:
        LCALL   ?BDISPATCH
        DATA
        DC24    zclOnOffLight_BasicResetCB

        RSEG BANK_RELAYS:CODE:REORDER:NOROOT(0)
??zclOnOffLight_IdentifyCB?relay:
        LCALL   ?BDISPATCH
        DATA
        DC24    zclOnOffLight_IdentifyCB

        RSEG BANK_RELAYS:CODE:REORDER:NOROOT(0)
??zclOnOffLight_IdentifyQueryRspCB?relay:
        LCALL   ?BDISPATCH
        DATA
        DC24    zclOnOffLight_IdentifyQueryRspCB

        RSEG BANK_RELAYS:CODE:REORDER:NOROOT(0)
??zclOnOffLight0_OnOffCB?relay:
        LCALL   ?BDISPATCH
        DATA
        DC24    zclOnOffLight0_OnOffCB

        RSEG BANK_RELAYS:CODE:REORDER:NOROOT(0)
??Device_App_MessageMSGCB?relay:
        LCALL   ?BDISPATCH
        DATA
        DC24    Device_App_MessageMSGCB

        RSEG BANK_RELAYS:CODE:REORDER:NOROOT(0)
??AppDeviceNwkJionState?relay:
        LCALL   ?BDISPATCH
        DATA
        DC24    AppDeviceNwkJionState

        END
// 
// 1 103 bytes in segment BANKED_CODE
//    48 bytes in segment BANK_RELAYS
//     2 bytes in segment SFR_AN
//    32 bytes in segment XDATA_I
//    32 bytes in segment XDATA_ID
//    13 bytes in segment XDATA_Z
// 
// 1 183 bytes of CODE  memory
//     0 bytes of DATA  memory (+ 2 bytes shared)
//    45 bytes of XDATA memory
//
//Errors: none
//Warnings: none
