###############################################################################
#                                                                             #
# IAR C/C++ Compiler V8.10.1.10194/W32 for 8051         05/Jun/2017  15:12:58 #
# Copyright 2004-2011 IAR Systems AB.                                         #
#                                                                             #
#    Core               =  plain                                              #
#    Code model         =  banked                                             #
#    Data model         =  large                                              #
#    Calling convention =  xdata reentrant                                    #
#    Constant location  =  data_rom                                           #
#    Dptr setup         =  1,16                                               #
#    Source file        =  D:\work space\Smart Product\Two                    #
#                          YHY\SmartLightSwitch\one\v1.04.0\ZStack-CC2530-2.5 #
#                          .1a Green V3.1 02\Projects\zstack\HomeAutomation\S #
#                          martSwitchLight\Source\zcl_device_info.c           #
#    Command line       =  -f "D:\work space\Smart Product\Two                #
#                          YHY\SmartLightSwitch\one\v1.04.0\ZStack-CC2530-2.5 #
#                          .1a Green V3.1 02\Projects\zstack\HomeAutomation\S #
#                          martSwitchLight\CC2530DB\..\Tools\CC2530DB\f8wRout #
#                          er.cfg" (-DCPU32MHZ -DROOT=__near_func             #
#                          -DMAC_CFG_APP_PENDING_QUEUE=TRUE                   #
#                          -DMAC_CFG_TX_DATA_MAX=5 -DMAC_CFG_TX_MAX=8         #
#                          -DMAC_CFG_RX_MAX=5 -DRTR_NWK -DNV_RESTORE          #
#                          -DNV_INIT -DHAL_PA_LNA -DHAL_KEY=FALSE             #
#                          -DHAL_LED=FALSE -DHAL_LCD=FALSE -DHAL_ADC=FALSE    #
#                          -DWDT_IN_PM1 -DTC_LINKKEY_JOIN                     #
#                          -DMAX_NEIGHBOR_ENTRIES=48 -DTVSA_DATA_CNF=1        #
#                          -DPACKET_FILTER_STATS -DNWK_LINK_STATUS_PERIOD=60) #
#                           -f "D:\work space\Smart Product\Two               #
#                          YHY\SmartLightSwitch\one\v1.04.0\ZStack-CC2530-2.5 #
#                          .1a Green V3.1 02\Projects\zstack\HomeAutomation\S #
#                          martSwitchLight\CC2530DB\..\Tools\CC2530DB\f8wConf #
#                          ig.cfg" (-DZIGBEEPRO -DSECURE=1                    #
#                          -DZG_SECURE_DYNAMIC=0 -DREFLECTOR                  #
#                          -DDEFAULT_CHANLIST=0x06108800                      #
#                          -DZDAPP_CONFIG_PAN_ID=0xFFFF                       #
#                          -DNWK_START_DELAY=100 -DEXTENDED_JOINING_RANDOM_MA #
#                          SK=0x007F -DBEACON_REQUEST_DELAY=1000              #
#                          -DBEACON_REQ_DELAY_MASK=0x00FF                     #
#                          -DLINK_STATUS_JITTER_MASK=0x007F                   #
#                          -DROUTE_EXPIRY_TIME=30 -DAPSC_ACK_WAIT_DURATION_PO #
#                          LLED=3000 -DNWK_INDIRECT_MSG_TIMEOUT=7             #
#                          -DMAX_RREQ_ENTRIES=8 -DAPSC_MAX_FRAME_RETRIES=3    #
#                          -DNWK_MAX_DATA_RETRIES=2                           #
#                          -DMAX_POLL_FAILURE_RETRIES=2 -DMAX_BCAST=9         #
#                          -DAPS_MAX_GROUPS=16 -DMAX_RTG_ENTRIES=40           #
#                          -DNWK_MAX_BINDING_ENTRIES=4                        #
#                          -DMAX_BINDING_CLUSTER_IDS=4                        #
#                          -DDEFAULT_KEY={0x79,0x69,0x20,0x68,0x75,0x69,0x20, #
#                          0x79,0x75,0x6E,0x20,0x73,0x6D,0x61,0x72,0x74}      #
#                          -DMAC_MAX_FRAME_SIZE=116                           #
#                          -DZDNWKMGR_MIN_TRANSMISSIONS=20 "-DCONST=const     #
#                          __code" -DGENERIC=__generic                        #
#                          -DRFD_RCVC_ALWAYS_ON=TRUE -DPOLL_RATE=0            #
#                          -DQUEUED_POLL_RATE=0 -DRESPONSE_POLL_RATE=0        #
#                          -DREJOIN_POLL_RATE=440) -f "D:\work space\Smart    #
#                          Product\Two YHY\SmartLightSwitch\one\v1.04.0\ZStac #
#                          k-CC2530-2.5.1a Green V3.1                         #
#                          02\Projects\zstack\HomeAutomation\SmartSwitchLight #
#                          \CC2530DB\..\Tools\CC2530DB\f8wZCL.cfg"            #
#                          (-DZCL_READ -DZCL_WRITE -DZCL_REPORT -DZCL_BASIC   #
#                          -DZCL_IDENTIFY -DZCL_ON_OFF -DZCL_KEY_ESTABLISH    #
#                          -DZCL_KEY_ESTABLISHMENT_KEY_GENERATE_TIMEOUT=4     #
#                          -DZCL_KEY_ESTABLISHMENT_MAC_GENERATE_TIMEOUT=10    #
#                          -DZCL_KEY_ESTABLISHMENT_EKEY_GENERATE_TIMEOUT=10   #
#                          -DZCL_LOAD_CONTROL -DZCL_SIMPLE_METERING           #
#                          -DZCL_PRICING -DZCL_MESSAGE -DZCL_TUNNELING        #
#                          -DZCL_TOU) -DZCL_DEVICE_MGMT "D:\work space\Smart  #
#                          Product\Two YHY\SmartLightSwitch\one\v1.04.0\ZStac #
#                          k-CC2530-2.5.1a Green V3.1                         #
#                          02\Projects\zstack\HomeAutomation\SmartSwitchLight #
#                          \Source\zcl_device_info.c" -lC "D:\work            #
#                          space\Smart Product\Two YHY\SmartLightSwitch\one\v #
#                          1.04.0\ZStack-CC2530-2.5.1a Green V3.1             #
#                          02\Projects\zstack\HomeAutomation\SmartSwitchLight #
#                          \CC2530DB\RouterDeviceEB\List\" -lA "D:\work       #
#                          space\Smart Product\Two YHY\SmartLightSwitch\one\v #
#                          1.04.0\ZStack-CC2530-2.5.1a Green V3.1             #
#                          02\Projects\zstack\HomeAutomation\SmartSwitchLight #
#                          \CC2530DB\RouterDeviceEB\List\" --diag_suppress    #
#                          Pe001,Pa010 -o "D:\work space\Smart Product\Two    #
#                          YHY\SmartLightSwitch\one\v1.04.0\ZStack-CC2530-2.5 #
#                          .1a Green V3.1 02\Projects\zstack\HomeAutomation\S #
#                          martSwitchLight\CC2530DB\RouterDeviceEB\Obj\" -e   #
#                          --debug --core=plain --dptr=16,1                   #
#                          --data_model=large --code_model=banked             #
#                          --calling_convention=xdata_reentrant               #
#                          --place_constants=data_rom --nr_virtual_regs 16    #
#                          -I "D:\work space\Smart Product\Two                #
#                          YHY\SmartLightSwitch\one\v1.04.0\ZStack-CC2530-2.5 #
#                          .1a Green V3.1 02\Projects\zstack\HomeAutomation\S #
#                          martSwitchLight\CC2530DB\" -I "D:\work             #
#                          space\Smart Product\Two YHY\SmartLightSwitch\one\v #
#                          1.04.0\ZStack-CC2530-2.5.1a Green V3.1             #
#                          02\Projects\zstack\HomeAutomation\SmartSwitchLight #
#                          \CC2530DB\..\Source\" -I "D:\work space\Smart      #
#                          Product\Two YHY\SmartLightSwitch\one\v1.04.0\ZStac #
#                          k-CC2530-2.5.1a Green V3.1                         #
#                          02\Projects\zstack\HomeAutomation\SmartSwitchLight #
#                          \CC2530DB\..\..\Source\" -I "D:\work space\Smart   #
#                          Product\Two YHY\SmartLightSwitch\one\v1.04.0\ZStac #
#                          k-CC2530-2.5.1a Green V3.1                         #
#                          02\Projects\zstack\HomeAutomation\SmartSwitchLight #
#                          \CC2530DB\..\..\..\ZMain\TI2530DB\" -I "D:\work    #
#                          space\Smart Product\Two YHY\SmartLightSwitch\one\v #
#                          1.04.0\ZStack-CC2530-2.5.1a Green V3.1             #
#                          02\Projects\zstack\HomeAutomation\SmartSwitchLight #
#                          \CC2530DB\..\..\..\..\..\Components\hal\include\"  #
#                          -I "D:\work space\Smart Product\Two                #
#                          YHY\SmartLightSwitch\one\v1.04.0\ZStack-CC2530-2.5 #
#                          .1a Green V3.1 02\Projects\zstack\HomeAutomation\S #
#                          martSwitchLight\CC2530DB\..\..\..\..\..\Components #
#                          \hal\target\CC2530EB\" -I "D:\work space\Smart     #
#                          Product\Two YHY\SmartLightSwitch\one\v1.04.0\ZStac #
#                          k-CC2530-2.5.1a Green V3.1                         #
#                          02\Projects\zstack\HomeAutomation\SmartSwitchLight #
#                          \CC2530DB\..\..\..\..\..\Components\mac\include\"  #
#                          -I "D:\work space\Smart Product\Two                #
#                          YHY\SmartLightSwitch\one\v1.04.0\ZStack-CC2530-2.5 #
#                          .1a Green V3.1 02\Projects\zstack\HomeAutomation\S #
#                          martSwitchLight\CC2530DB\..\..\..\..\..\Components #
#                          \mac\high_level\" -I "D:\work space\Smart          #
#                          Product\Two YHY\SmartLightSwitch\one\v1.04.0\ZStac #
#                          k-CC2530-2.5.1a Green V3.1                         #
#                          02\Projects\zstack\HomeAutomation\SmartSwitchLight #
#                          \CC2530DB\..\..\..\..\..\Components\mac\low_level\ #
#                          srf04\" -I "D:\work space\Smart Product\Two        #
#                          YHY\SmartLightSwitch\one\v1.04.0\ZStack-CC2530-2.5 #
#                          .1a Green V3.1 02\Projects\zstack\HomeAutomation\S #
#                          martSwitchLight\CC2530DB\..\..\..\..\..\Components #
#                          \mac\low_level\srf04\single_chip\" -I "D:\work     #
#                          space\Smart Product\Two YHY\SmartLightSwitch\one\v #
#                          1.04.0\ZStack-CC2530-2.5.1a Green V3.1             #
#                          02\Projects\zstack\HomeAutomation\SmartSwitchLight #
#                          \CC2530DB\..\..\..\..\..\Components\mt\" -I        #
#                          "D:\work space\Smart Product\Two                   #
#                          YHY\SmartLightSwitch\one\v1.04.0\ZStack-CC2530-2.5 #
#                          .1a Green V3.1 02\Projects\zstack\HomeAutomation\S #
#                          martSwitchLight\CC2530DB\..\..\..\..\..\Components #
#                          \osal\include\" -I "D:\work space\Smart            #
#                          Product\Two YHY\SmartLightSwitch\one\v1.04.0\ZStac #
#                          k-CC2530-2.5.1a Green V3.1                         #
#                          02\Projects\zstack\HomeAutomation\SmartSwitchLight #
#                          \CC2530DB\..\..\..\..\..\Components\services\saddr #
#                          \" -I "D:\work space\Smart Product\Two             #
#                          YHY\SmartLightSwitch\one\v1.04.0\ZStack-CC2530-2.5 #
#                          .1a Green V3.1 02\Projects\zstack\HomeAutomation\S #
#                          martSwitchLight\CC2530DB\..\..\..\..\..\Components #
#                          \services\sdata\" -I "D:\work space\Smart          #
#                          Product\Two YHY\SmartLightSwitch\one\v1.04.0\ZStac #
#                          k-CC2530-2.5.1a Green V3.1                         #
#                          02\Projects\zstack\HomeAutomation\SmartSwitchLight #
#                          \CC2530DB\..\..\..\..\..\Components\stack\af\" -I  #
#                          "D:\work space\Smart Product\Two                   #
#                          YHY\SmartLightSwitch\one\v1.04.0\ZStack-CC2530-2.5 #
#                          .1a Green V3.1 02\Projects\zstack\HomeAutomation\S #
#                          martSwitchLight\CC2530DB\..\..\..\..\..\Components #
#                          \stack\nwk\" -I "D:\work space\Smart Product\Two   #
#                          YHY\SmartLightSwitch\one\v1.04.0\ZStack-CC2530-2.5 #
#                          .1a Green V3.1 02\Projects\zstack\HomeAutomation\S #
#                          martSwitchLight\CC2530DB\..\..\..\..\..\Components #
#                          \stack\sapi\" -I "D:\work space\Smart Product\Two  #
#                          YHY\SmartLightSwitch\one\v1.04.0\ZStack-CC2530-2.5 #
#                          .1a Green V3.1 02\Projects\zstack\HomeAutomation\S #
#                          martSwitchLight\CC2530DB\..\..\..\..\..\Components #
#                          \stack\sec\" -I "D:\work space\Smart Product\Two   #
#                          YHY\SmartLightSwitch\one\v1.04.0\ZStack-CC2530-2.5 #
#                          .1a Green V3.1 02\Projects\zstack\HomeAutomation\S #
#                          martSwitchLight\CC2530DB\..\..\..\..\..\Components #
#                          \stack\sys\" -I "D:\work space\Smart Product\Two   #
#                          YHY\SmartLightSwitch\one\v1.04.0\ZStack-CC2530-2.5 #
#                          .1a Green V3.1 02\Projects\zstack\HomeAutomation\S #
#                          martSwitchLight\CC2530DB\..\..\..\..\..\Components #
#                          \stack\zcl\" -I "D:\work space\Smart Product\Two   #
#                          YHY\SmartLightSwitch\one\v1.04.0\ZStack-CC2530-2.5 #
#                          .1a Green V3.1 02\Projects\zstack\HomeAutomation\S #
#                          martSwitchLight\CC2530DB\..\..\..\..\..\Components #
#                          \stack\zdo\" -I "D:\work space\Smart Product\Two   #
#                          YHY\SmartLightSwitch\one\v1.04.0\ZStack-CC2530-2.5 #
#                          .1a Green V3.1 02\Projects\zstack\HomeAutomation\S #
#                          martSwitchLight\CC2530DB\..\..\..\..\..\Components #
#                          \zmac\" -I "D:\work space\Smart Product\Two        #
#                          YHY\SmartLightSwitch\one\v1.04.0\ZStack-CC2530-2.5 #
#                          .1a Green V3.1 02\Projects\zstack\HomeAutomation\S #
#                          martSwitchLight\CC2530DB\..\..\..\..\..\Components #
#                          \zmac\f8w\" -Oh --require_prototypes               #
#    List file          =  D:\work space\Smart Product\Two                    #
#                          YHY\SmartLightSwitch\one\v1.04.0\ZStack-CC2530-2.5 #
#                          .1a Green V3.1 02\Projects\zstack\HomeAutomation\S #
#                          martSwitchLight\CC2530DB\RouterDeviceEB\List\zcl_d #
#                          evice_info.lst                                     #
#    Object file        =  D:\work space\Smart Product\Two                    #
#                          YHY\SmartLightSwitch\one\v1.04.0\ZStack-CC2530-2.5 #
#                          .1a Green V3.1 02\Projects\zstack\HomeAutomation\S #
#                          martSwitchLight\CC2530DB\RouterDeviceEB\Obj\zcl_de #
#                          vice_info.r51                                      #
#                                                                             #
#                                                                             #
###############################################################################

D:\work space\Smart Product\Two YHY\SmartLightSwitch\one\v1.04.0\ZStack-CC2530-2.5.1a Green V3.1 02\Projects\zstack\HomeAutomation\SmartSwitchLight\Source\zcl_device_info.c
      1          #include "zcl.h"
      2          #include "ZDObject.h"
      3          #include "zcl_device_info.h"
      4          #include "zcl_onofflight.h"
      5          #include "OnBoard.h"

   \                                 In  segment SFR_AN, at 0x80
   \   union <unnamed> volatile __sfr _A_P0
   \                     _A_P0:
   \   000000                DS 1
      6          #include "ZGlobals.h"
      7          #include "ZComDef.h"
      8          #include "zcl_light_control.h"
      9          
     10          extern byte zclOnOffLight_TaskID;
     11          #define ZCL_TASK_ID zclOnOffLight_TaskID
     12          

   \                                 In  segment XDATA_Z, align 1, keep-with-next
     13          afAddrType_t zclIASZoneMotionIR_Coord_nwkAddr;
   \                     zclIASZoneMotionIR_Coord_nwkAddr:
   \   000000                DS 12
   \   00000C                REQUIRE __INIT_XDATA_Z

   \                                 In  segment XDATA_Z, align 1, keep-with-next
     14          static uint16 gDeviceInfoSendStatus = 0;
   \                     gDeviceInfoSendStatus:
   \   000000                DS 2
   \   000002                REQUIRE __INIT_XDATA_Z
     15          

   \                                 In  segment XDATA_I, align 1, keep-with-next
     16          uint8 softeVision[3] = {0x01,0x09,0x00};//软件版本号
   \                     softeVision:
   \   000000                DS 3
   \   000003                REQUIRE `?<Initializer for softeVision>`
   \   000003                REQUIRE __INIT_XDATA_I

   \                                 In  segment XDATA_Z, align 1, keep-with-next
     17          uint8 hardVision[2] = {0x00,0x00};//硬件北版本号
   \                     hardVision:
   \   000000                DS 2
   \   000002                REQUIRE __INIT_XDATA_Z

   \                                 In  segment XDATA_Z, align 1, keep-with-next
     18          uint8 g_u8HeartBeatCount = 0;//心跳包计数
   \                     g_u8HeartBeatCount:
   \   000000                DS 1
   \   000001                REQUIRE __INIT_XDATA_Z
     19          extern uint8 g_u8sendDeviceInfoFlag;
     20          
     21          

   \                                 In  segment BANKED_CODE, align 1, keep-with-next
     22          void zclDeviceInfoInit(void)
   \                     zclDeviceInfoInit:
     23          {
   \   000000   C082         PUSH    DPL
   \   000002   C083         PUSH    DPH
   \   000004                ; Saved register size: 2
   \   000004                ; Auto size: 0
     24            gDeviceInfoSendStatus = 0;
   \   000004   90....       MOV     DPTR,#gDeviceInfoSendStatus
   \   000007   E4           CLR     A
   \   000008   F0           MOVX    @DPTR,A
   \   000009   A3           INC     DPTR
   \   00000A   F0           MOVX    @DPTR,A
     25            zclIASZoneMotionIR_Coord_nwkAddr.addrMode = afAddr16Bit;
   \   00000B   90....       MOV     DPTR,#zclIASZoneMotionIR_Coord_nwkAddr + 8
   \   00000E   7402         MOV     A,#0x2
   \   000010   F0           MOVX    @DPTR,A
     26            zclIASZoneMotionIR_Coord_nwkAddr.addr.shortAddr = 0x0000;
   \   000011   90....       MOV     DPTR,#zclIASZoneMotionIR_Coord_nwkAddr
   \   000014   E4           CLR     A
   \   000015   F0           MOVX    @DPTR,A
   \   000016   A3           INC     DPTR
   \   000017   F0           MOVX    @DPTR,A
     27            zclIASZoneMotionIR_Coord_nwkAddr.endPoint = 0xF0;
   \   000018   90....       MOV     DPTR,#zclIASZoneMotionIR_Coord_nwkAddr + 9
   \   00001B   74F0         MOV     A,#-0x10
   \   00001D   F0           MOVX    @DPTR,A
     28          }
   \   00001E   D083         POP     DPH
   \   000020   D082         POP     DPL
   \   000022   02....       LJMP    ?BRET
     29          

   \                                 In  segment BANKED_CODE, align 1, keep-with-next
     30          static void zclActiveEPRsp(void)
   \                     zclActiveEPRsp:
     31          {
   \   000000   74F6         MOV     A,#-0xa
   \   000002   12....       LCALL   ?BANKED_ENTER_XDATA
   \   000005                ; Saved register size: 10
   \   000005                ; Auto size: 73
   \   000005   74B7         MOV     A,#-0x49
   \   000007   12....       LCALL   ?ALLOC_XSTACK8
     32            uint8 pBuf[64];
     33            byte cnt = 0;
     34            zAddrType_t srcAddr;
     35            
     36            srcAddr.addrMode = afAddr16Bit;
   \   00000A   7408         MOV     A,#0x8
   \   00000C   12....       LCALL   ?XSTACK_DISP0_8
   \   00000F   7402         MOV     A,#0x2
   \   000011   F0           MOVX    @DPTR,A
     37            srcAddr.addr.shortAddr = 0x0000;
   \   000012   85..82       MOV     DPL,?XSP + 0
   \   000015   85..83       MOV     DPH,?XSP + 1
   \   000018   E4           CLR     A
   \   000019   F0           MOVX    @DPTR,A
   \   00001A   A3           INC     DPTR
   \   00001B   F0           MOVX    @DPTR,A
     38            
     39            cnt = afNumEndPoints() - 1;
   \   00001C                ; Setup parameters for call to function afNumEndPoints
   \   00001C   12....       LCALL   ??afNumEndPoints?relay
   \   00001F   E9           MOV     A,R1
   \   000020   FE           MOV     R6,A
     40            afEndPoints( (uint8 *)pBuf, true );
   \   000021                ; Setup parameters for call to function afEndPoints
   \   000021   7901         MOV     R1,#0x1
   \   000023   7409         MOV     A,#0x9
   \   000025   12....       LCALL   ?XSTACK_DISP0_8
   \   000028   AA82         MOV     R2,DPL
   \   00002A   AB83         MOV     R3,DPH
   \   00002C   12....       LCALL   ??afEndPoints?relay
     41            ZDP_ActiveEPRsp(0x0, &srcAddr, ZDP_SUCCESS,
     42                            NLME_GetShortAddr(), 
     43                            cnt, (uint8 *)pBuf, 0);
   \   00002F                ; Setup parameters for call to function ZDP_EPRsp
   \   00002F   75..00       MOV     ?V0 + 0,#0x0
   \   000032   78..         MOV     R0,#?V0 + 0
   \   000034   12....       LCALL   ?PUSH_XSTACK_I_ONE
   \   000037   740A         MOV     A,#0xa
   \   000039   12....       LCALL   ?XSTACK_DISP0_8
   \   00003C   8582..       MOV     ?V0 + 0,DPL
   \   00003F   8583..       MOV     ?V0 + 1,DPH
   \   000042   78..         MOV     R0,#?V0 + 0
   \   000044   12....       LCALL   ?PUSH_XSTACK_I_TWO
   \   000047   74FF         MOV     A,#-0x1
   \   000049   2E           ADD     A,R6
   \   00004A   F5..         MOV     ?V0 + 0,A
   \   00004C   78..         MOV     R0,#?V0 + 0
   \   00004E   12....       LCALL   ?PUSH_XSTACK_I_ONE
   \   000051                ; Setup parameters for call to function NLME_GetShortAddr
   \   000051   12....       LCALL   ??NLME_GetShortAddr?relay
   \   000054   8A..         MOV     ?V0 + 0,R2
   \   000056   8B..         MOV     ?V0 + 1,R3
   \   000058   78..         MOV     R0,#?V0 + 0
   \   00005A   12....       LCALL   ?PUSH_XSTACK_I_TWO
   \   00005D   75..00       MOV     ?V0 + 0,#0x0
   \   000060   78..         MOV     R0,#?V0 + 0
   \   000062   12....       LCALL   ?PUSH_XSTACK_I_ONE
   \   000065   7407         MOV     A,#0x7
   \   000067   12....       LCALL   ?XSTACK_DISP0_8
   \   00006A   AC82         MOV     R4,DPL
   \   00006C   AD83         MOV     R5,DPH
   \   00006E   7900         MOV     R1,#0x0
   \   000070   7A05         MOV     R2,#0x5
   \   000072   7B80         MOV     R3,#-0x80
   \   000074   12....       LCALL   ??ZDP_EPRsp?relay
   \   000077   7407         MOV     A,#0x7
   \   000079   12....       LCALL   ?DEALLOC_XSTACK8
     44            gDeviceInfoSendStatus++;
   \   00007C   12....       LCALL   ?Subroutine3 & 0xFFFF
     45            
     46            if(g_u8sendDeviceInfoFlag == 0)
   \                     ??CrossCallReturnLabel_4:
   \   00007F   7005         JNZ     ??zclActiveEPRsp_0
     47            {
     48          
     49              osal_start_timerEx(ZCL_TASK_ID, 
     50                                 ZCL_DEVICE_INFO_SEND_EVENT,
     51                                 ZCL_DEVICE_SEND_INFO_TIME_1S);
   \   000081                ; Setup parameters for call to function osal_rand
   \   000081   12....       LCALL   ?Subroutine2 & 0xFFFF
     52            }
   \                     ??CrossCallReturnLabel_2:
   \   000084   8008         SJMP    ??zclActiveEPRsp_1
     53            else if(g_u8sendDeviceInfoFlag == 1)
   \                     ??zclActiveEPRsp_0:
   \   000086   6401         XRL     A,#0x1
   \   000088   7007         JNZ     ??CrossCallReturnLabel_8
     54            {
     55                osal_start_timerEx(ZCL_TASK_ID, 
     56                                 ZCL_DEVICE_INFO_SEND_EVENT,
     57                                 ZCL_DEVICE_SEND_INFO_TIME_200MS);
   \   00008A                ; Setup parameters for call to function osal_start_timerEx
   \   00008A   7CC8         MOV     R4,#-0x38
   \   00008C   7D00         MOV     R5,#0x0
     58            }
   \                     ??zclActiveEPRsp_1:
   \   00008E   12....       LCALL   ?Subroutine5 & 0xFFFF
     59          }
   \                     ??CrossCallReturnLabel_8:
   \   000091   7449         MOV     A,#0x49
   \   000093                REQUIRE ?Subroutine0
   \   000093                ; // Fall through to label ?Subroutine0

   \                                 In  segment BANKED_CODE, align 1, keep-with-next
   \                     ?Subroutine0:
   \   000000   12....       LCALL   ?DEALLOC_XSTACK8
   \   000003                REQUIRE ??Subroutine6_0
   \   000003                ; // Fall through to label ??Subroutine6_0

   \                                 In  segment BANKED_CODE, align 1, keep-with-next
   \                     ??Subroutine6_0:
   \   000000   7F02         MOV     R7,#0x2
   \   000002   02....       LJMP    ?BANKED_LEAVE_XDATA

   \                                 In  segment BANKED_CODE, align 1, keep-with-next
   \                     ?Subroutine5:
   \   000000   7A00         MOV     R2,#0x0
   \   000002   7B01         MOV     R3,#0x1
   \   000004                REQUIRE ??Subroutine7_0
   \   000004                ; // Fall through to label ??Subroutine7_0

   \                                 In  segment BANKED_CODE, align 1, keep-with-next
   \                     ??Subroutine7_0:
   \   000000   90....       MOV     DPTR,#zclOnOffLight_TaskID
   \   000003   E0           MOVX    A,@DPTR
   \   000004   F9           MOV     R1,A
   \   000005   12....       LCALL   ??osal_start_timerEx?relay
   \   000008   22           RET

   \                                 In  segment BANKED_CODE, align 1, keep-with-next
   \                     ?Subroutine3:
   \   000000   90....       MOV     DPTR,#gDeviceInfoSendStatus
   \   000003   E0           MOVX    A,@DPTR
   \   000004   2401         ADD     A,#0x1
   \   000006   F0           MOVX    @DPTR,A
   \   000007   A3           INC     DPTR
   \   000008   E0           MOVX    A,@DPTR
   \   000009   3400         ADDC    A,#0x0
   \   00000B   F0           MOVX    @DPTR,A
   \   00000C   90....       MOV     DPTR,#g_u8sendDeviceInfoFlag
   \   00000F   E0           MOVX    A,@DPTR
   \   000010   22           RET

   \                                 In  segment BANKED_CODE, align 1, keep-with-next
   \                     ?Subroutine2:
   \   000000   12....       LCALL   ??osal_rand?relay
   \   000003                ; Setup parameters for call to function osal_start_timerEx
   \   000003                ; Setup parameters for call to function osal_start_timerEx
   \   000003   EA           MOV     A,R2
   \   000004   75F014       MOV     B,#0x14
   \   000007   A4           MUL     AB
   \   000008   24E8         ADD     A,#-0x18
   \   00000A   FC           MOV     R4,A
   \   00000B   E5F0         MOV     A,B
   \   00000D   3403         ADDC    A,#0x3
   \   00000F   FD           MOV     R5,A
   \   000010   22           RET
     60          

   \                                 In  segment BANKED_CODE, align 1, keep-with-next
     61          static void zclSimpleDescRsp(uint16 endpoint)
   \                     zclSimpleDescRsp:
     62          {
   \   000000   74F2         MOV     A,#-0xe
   \   000002   12....       LCALL   ?BANKED_ENTER_XDATA
   \   000005                ; Saved register size: 14
   \   000005                ; Auto size: 0
   \   000005   8A..         MOV     ?V0 + 2,R2
     63            zdoIncomingMsg_t *imMsg;
     64            uint16 nwkAddr = 0;
     65            
     66            nwkAddr = NLME_GetShortAddr();
   \   000007                ; Setup parameters for call to function NLME_GetShortAddr
   \   000007   12....       LCALL   ??NLME_GetShortAddr?relay
   \   00000A   8A..         MOV     ?V0 + 0,R2
   \   00000C   8B..         MOV     ?V0 + 1,R3
     67            
     68            imMsg = (zdoIncomingMsg_t *)osal_msg_allocate( sizeof( zdoIncomingMsg_t ) + 3 );
   \   00000E                ; Setup parameters for call to function osal_msg_allocate
   \   00000E   7A18         MOV     R2,#0x18
   \   000010   7B00         MOV     R3,#0x0
   \   000012   12....       LCALL   ??osal_msg_allocate?relay
   \   000015   8A..         MOV     ?V0 + 4,R2
   \   000017   8B..         MOV     ?V0 + 5,R3
   \   000019   AE..         MOV     R6,?V0 + 4
   \   00001B   AF..         MOV     R7,?V0 + 5
     69            imMsg->srcAddr.addrMode = afAddr16Bit;
   \   00001D   8E82         MOV     DPL,R6
   \   00001F   8F83         MOV     DPH,R7
   \   000021   A3           INC     DPTR
   \   000022   A3           INC     DPTR
   \   000023   A3           INC     DPTR
   \   000024   A3           INC     DPTR
   \   000025   A3           INC     DPTR
   \   000026   A3           INC     DPTR
   \   000027   A3           INC     DPTR
   \   000028   A3           INC     DPTR
   \   000029   A3           INC     DPTR
   \   00002A   A3           INC     DPTR
   \   00002B   7402         MOV     A,#0x2
   \   00002D   F0           MOVX    @DPTR,A
     70            imMsg->srcAddr.addr.shortAddr = 0x0000;
   \   00002E   8E82         MOV     DPL,R6
   \   000030   8F83         MOV     DPH,R7
   \   000032   A3           INC     DPTR
   \   000033   A3           INC     DPTR
   \   000034   E4           CLR     A
   \   000035   F0           MOVX    @DPTR,A
   \   000036   A3           INC     DPTR
   \   000037   F0           MOVX    @DPTR,A
     71            imMsg->TransSeq = (uint8)0x00;
   \   000038   EE           MOV     A,R6
   \   000039   240F         ADD     A,#0xf
   \   00003B   F582         MOV     DPL,A
   \   00003D   EF           MOV     A,R7
   \   00003E   3400         ADDC    A,#0x0
   \   000040   F583         MOV     DPH,A
   \   000042   E4           CLR     A
   \   000043   F0           MOVX    @DPTR,A
     72            imMsg->asdu = (byte*)(((byte*)imMsg) + sizeof( zdoIncomingMsg_t ));
   \   000044   EE           MOV     A,R6
   \   000045   2415         ADD     A,#0x15
   \   000047   F8           MOV     R0,A
   \   000048   EF           MOV     A,R7
   \   000049   3400         ADDC    A,#0x0
   \   00004B   F9           MOV     R1,A
   \   00004C   EE           MOV     A,R6
   \   00004D   2413         ADD     A,#0x13
   \   00004F   FA           MOV     R2,A
   \   000050   EF           MOV     A,R7
   \   000051   3400         ADDC    A,#0x0
   \   000053   FB           MOV     R3,A
   \   000054   8A82         MOV     DPL,R2
   \   000056   8B83         MOV     DPH,R3
   \   000058   E8           MOV     A,R0
   \   000059   F0           MOVX    @DPTR,A
   \   00005A   A3           INC     DPTR
   \   00005B   E9           MOV     A,R1
   \   00005C   F0           MOVX    @DPTR,A
     73            imMsg->asdu[0] = LO_UINT16( nwkAddr );
   \   00005D   8882         MOV     DPL,R0
   \   00005F   8983         MOV     DPH,R1
   \   000061   E5..         MOV     A,?V0 + 0
   \   000063   F0           MOVX    @DPTR,A
     74            imMsg->asdu[1] = HI_UINT16( nwkAddr );
   \   000064   E5..         MOV     A,?V0 + 1
   \   000066   F5..         MOV     ?V0 + 0,A
   \   000068   12....       LCALL   ?Subroutine4 & 0xFFFF
   \                     ??CrossCallReturnLabel_6:
   \   00006B   E5..         MOV     A,?V0 + 0
   \   00006D   F0           MOVX    @DPTR,A
     75            imMsg->asdu[2] = endpoint;
   \   00006E   12....       LCALL   ?Subroutine4 & 0xFFFF
   \                     ??CrossCallReturnLabel_7:
   \   000071   A3           INC     DPTR
   \   000072   E5..         MOV     A,?V0 + 2
   \   000074   F0           MOVX    @DPTR,A
     76            
     77            ZDO_ProcessSimpleDescReq(imMsg);
   \   000075                ; Setup parameters for call to function ZDO_ProcessSimpleDescReq
   \   000075   EE           MOV     A,R6
   \   000076   FA           MOV     R2,A
   \   000077   EF           MOV     A,R7
   \   000078   FB           MOV     R3,A
   \   000079   12....       LCALL   ??ZDO_ProcessSimpleDescReq?relay
     78            osal_msg_deallocate((uint8 *)imMsg);
   \   00007C                ; Setup parameters for call to function osal_msg_deallocate
   \   00007C   EE           MOV     A,R6
   \   00007D   FA           MOV     R2,A
   \   00007E   EF           MOV     A,R7
   \   00007F   FB           MOV     R3,A
   \   000080   12....       LCALL   ??osal_msg_deallocate?relay
     79            
     80            gDeviceInfoSendStatus++;
   \   000083   12....       LCALL   ?Subroutine3 & 0xFFFF
     81            
     82            if(g_u8sendDeviceInfoFlag == 0)
   \                     ??CrossCallReturnLabel_5:
   \   000086   7005         JNZ     ??zclSimpleDescRsp_0
     83            {
     84              osal_start_timerEx(ZCL_TASK_ID, 
     85                                 ZCL_DEVICE_INFO_SEND_EVENT,
     86                                 ZCL_DEVICE_SEND_INFO_TIME_1S);
   \   000088                ; Setup parameters for call to function osal_rand
   \   000088   12....       LCALL   ?Subroutine2 & 0xFFFF
     87            }
   \                     ??CrossCallReturnLabel_3:
   \   00008B   8008         SJMP    ??zclSimpleDescRsp_1
     88            else if(g_u8sendDeviceInfoFlag == 1)
   \                     ??zclSimpleDescRsp_0:
   \   00008D   6401         XRL     A,#0x1
   \   00008F   7007         JNZ     ??CrossCallReturnLabel_9
     89            {
     90              osal_start_timerEx(ZCL_TASK_ID, 
     91                                 ZCL_DEVICE_INFO_SEND_EVENT,
     92                                 ZCL_DEVICE_SEND_INFO_TIME_200MS);
   \   000091                ; Setup parameters for call to function osal_start_timerEx
   \   000091   7CC8         MOV     R4,#-0x38
   \   000093   7D00         MOV     R5,#0x0
     93            }
   \                     ??zclSimpleDescRsp_1:
   \   000095   12....       LCALL   ?Subroutine5 & 0xFFFF
     94          }
   \                     ??CrossCallReturnLabel_9:
   \   000098   7F06         MOV     R7,#0x6
   \   00009A   02....       LJMP    ?BANKED_LEAVE_XDATA

   \                                 In  segment BANKED_CODE, align 1, keep-with-next
   \                     ?Subroutine4:
   \   000000   8A82         MOV     DPL,R2
   \   000002   8B83         MOV     DPH,R3
   \   000004   E0           MOVX    A,@DPTR
   \   000005   F8           MOV     R0,A
   \   000006   A3           INC     DPTR
   \   000007   E0           MOVX    A,@DPTR
   \   000008   F583         MOV     DPH,A
   \   00000A   8882         MOV     DPL,R0
   \   00000C   A3           INC     DPTR
   \   00000D   22           RET
     95          

   \                                 In  segment XDATA_I, align 1, keep-with-next
     96          static endPointDesc_t zclHeartbeatDesc = {
   \                     zclHeartbeatDesc:
   \   000000                DS 6
   \   000006                REQUIRE `?<Initializer for zclHeartbeatDesc>`
   \   000006                REQUIRE __INIT_XDATA_I
     97            ZCL_HEARTBEAT_ENDPOINT,
     98            &ZCL_TASK_ID,
     99            (SimpleDescriptionFormat_t *)&zclOnOffLight0_SimpleDesc,
    100            (afNetworkLatencyReq_t)0
    101          };
    102          

   \                                 In  segment XDATA_Z, align 1, keep-with-next
    103          static uint8 zclHeartbeatCounter = 0;
   \                     zclHeartbeatCounter:
   \   000000                DS 1
   \   000001                REQUIRE __INIT_XDATA_Z
    104          

   \                                 In  segment BANKED_CODE, align 1, keep-with-next
    105          afStatus_t zclSendHeartbeat(void)
   \                     zclSendHeartbeat:
    106          {
   \   000000   74F6         MOV     A,#-0xa
   \   000002   12....       LCALL   ?BANKED_ENTER_XDATA
   \   000005                ; Saved register size: 10
   \   000005                ; Auto size: 6
   \   000005   74FA         MOV     A,#-0x6
   \   000007   12....       LCALL   ?ALLOC_XSTACK8
    107            afStatus_t stat;
    108            uint8 SendDataBuf[6]={0,0,0,0,0,0};
   \   00000A   85..82       MOV     DPL,?XSP + 0
   \   00000D   85..83       MOV     DPH,?XSP + 1
   \   000010   AC82         MOV     R4,DPL
   \   000012   AD83         MOV     R5,DPH
   \   000014   7583..       MOV     DPH,#(`?<Constant {0, 0, 0, 0, 0, 0}>` >> 8) & 0xff
   \   000017   7582..       MOV     DPL,#`?<Constant {0, 0, 0, 0, 0, 0}>` & 0xff
   \   00001A   7406         MOV     A,#0x6
   \   00001C   12....       LCALL   ?MOVE_LONG8_XDATA_XDATA
    109            
    110            SendDataBuf[0] = 0xFF;
   \   00001F   85..82       MOV     DPL,?XSP + 0
   \   000022   85..83       MOV     DPH,?XSP + 1
   \   000025   74FF         MOV     A,#-0x1
   \   000027   F0           MOVX    @DPTR,A
    111            SendDataBuf[1] = softeVision[0];
   \   000028   90....       MOV     DPTR,#softeVision
   \   00002B   E0           MOVX    A,@DPTR
   \   00002C   C0E0         PUSH    A
   \   00002E   7401         MOV     A,#0x1
   \   000030   12....       LCALL   ?XSTACK_DISP0_8
   \   000033   D0E0         POP     A
   \   000035   F0           MOVX    @DPTR,A
    112            SendDataBuf[2] = softeVision[1];
   \   000036   90....       MOV     DPTR,#softeVision + 1
   \   000039   E0           MOVX    A,@DPTR
   \   00003A   C0E0         PUSH    A
   \   00003C   7402         MOV     A,#0x2
   \   00003E   12....       LCALL   ?XSTACK_DISP0_8
   \   000041   D0E0         POP     A
   \   000043   F0           MOVX    @DPTR,A
    113            SendDataBuf[3] = softeVision[2];
   \   000044   90....       MOV     DPTR,#softeVision + 2
   \   000047   E0           MOVX    A,@DPTR
   \   000048   C0E0         PUSH    A
   \   00004A   7403         MOV     A,#0x3
   \   00004C   12....       LCALL   ?XSTACK_DISP0_8
   \   00004F   D0E0         POP     A
   \   000051   F0           MOVX    @DPTR,A
    114            SendDataBuf[4] = hardVision[0];
   \   000052   90....       MOV     DPTR,#hardVision
   \   000055   E0           MOVX    A,@DPTR
   \   000056   C0E0         PUSH    A
   \   000058   7404         MOV     A,#0x4
   \   00005A   12....       LCALL   ?XSTACK_DISP0_8
   \   00005D   D0E0         POP     A
   \   00005F   F0           MOVX    @DPTR,A
    115            SendDataBuf[5] = hardVision[1];
   \   000060   90....       MOV     DPTR,#hardVision + 1
   \   000063   E0           MOVX    A,@DPTR
   \   000064   C0E0         PUSH    A
   \   000066   7405         MOV     A,#0x5
   \   000068   12....       LCALL   ?XSTACK_DISP0_8
   \   00006B   D0E0         POP     A
   \   00006D   F0           MOVX    @DPTR,A
    116            
    117            g_u8HeartBeatCount++;
   \   00006E   90....       MOV     DPTR,#g_u8HeartBeatCount
   \   000071   E0           MOVX    A,@DPTR
   \   000072   04           INC     A
   \   000073   F0           MOVX    @DPTR,A
    118            if(g_u8HeartBeatCount >= 2)
   \   000074   C3           CLR     C
   \   000075   9402         SUBB    A,#0x2
   \   000077   404F         JC      ??zclSendHeartbeat_0
    119            {
    120              g_u8HeartBeatCount=0;
   \   000079   E4           CLR     A
   \   00007A   F0           MOVX    @DPTR,A
    121              stat = AF_DataRequest(&zclIASZoneMotionIR_Coord_nwkAddr, 
    122                                    &zclHeartbeatDesc,
    123                                    ZCL_HEARTBEAT_CLUSTERID,
    124                                    sizeof(SendDataBuf),
    125                                    SendDataBuf,
    126                                    (uint8 *)&zclHeartbeatCounter,
    127                                    0,
    128                                    AF_DEFAULT_RADIUS);
   \   00007B                ; Setup parameters for call to function AF_DataRequest
   \   00007B   75..1E       MOV     ?V0 + 0,#0x1e
   \   00007E   78..         MOV     R0,#?V0 + 0
   \   000080   12....       LCALL   ?PUSH_XSTACK_I_ONE
   \   000083   75....       MOV     ?V0 + 0,#zclHeartbeatCounter & 0xff
   \   000086   75....       MOV     ?V0 + 1,#(zclHeartbeatCounter >> 8) & 0xff
   \   000089   78..         MOV     R0,#?V0 + 0
   \   00008B   12....       LCALL   ?PUSH_XSTACK_I_TWO
   \   00008E   7403         MOV     A,#0x3
   \   000090   12....       LCALL   ?XSTACK_DISP0_8
   \   000093   8582..       MOV     ?V0 + 0,DPL
   \   000096   8583..       MOV     ?V0 + 1,DPH
   \   000099   78..         MOV     R0,#?V0 + 0
   \   00009B   12....       LCALL   ?PUSH_XSTACK_I_TWO
   \   00009E   75..06       MOV     ?V0 + 0,#0x6
   \   0000A1   75..00       MOV     ?V0 + 1,#0x0
   \   0000A4   78..         MOV     R0,#?V0 + 0
   \   0000A6   12....       LCALL   ?PUSH_XSTACK_I_TWO
   \   0000A9   75..00       MOV     ?V0 + 0,#0x0
   \   0000AC   75..FF       MOV     ?V0 + 1,#-0x1
   \   0000AF   78..         MOV     R0,#?V0 + 0
   \   0000B1   12....       LCALL   ?PUSH_XSTACK_I_TWO
   \   0000B4   7900         MOV     R1,#0x0
   \   0000B6   7C..         MOV     R4,#zclHeartbeatDesc & 0xff
   \   0000B8   7D..         MOV     R5,#(zclHeartbeatDesc >> 8) & 0xff
   \   0000BA   7A..         MOV     R2,#zclIASZoneMotionIR_Coord_nwkAddr & 0xff
   \   0000BC   7B..         MOV     R3,#(zclIASZoneMotionIR_Coord_nwkAddr >> 8) & 0xff
   \   0000BE   12....       LCALL   ??AF_DataRequest?relay
   \   0000C1   7409         MOV     A,#0x9
   \   0000C3   12....       LCALL   ?DEALLOC_XSTACK8
   \   0000C6   E9           MOV     A,R1
   \   0000C7   FE           MOV     R6,A
    129            }
    130            
    131            osal_start_timerEx(ZCL_TASK_ID, 
    132                               ZCL_DEVICE_HEARTBEAT_EVENT,
    133                               ZCL_HEARTBEAT_PERIOD);
   \                     ??zclSendHeartbeat_0:
   \   0000C8                ; Setup parameters for call to function osal_rand
   \   0000C8   12....       LCALL   ?Subroutine1 & 0xFFFF
    134            return stat;
   \                     ??CrossCallReturnLabel_0:
   \   0000CB   EE           MOV     A,R6
   \   0000CC   F9           MOV     R1,A
   \   0000CD   7406         MOV     A,#0x6
   \   0000CF   02....       LJMP    ?Subroutine0 & 0xFFFF
    135            
    136          }

   \                                 In  segment BANKED_CODE, align 1, keep-with-next
   \                     ?Subroutine1:
   \   000000   12....       LCALL   ??osal_rand?relay
   \   000003                ; Setup parameters for call to function osal_start_timerEx
   \   000003                ; Setup parameters for call to function osal_start_timerEx
   \   000003   EA           MOV     A,R2
   \   000004   75F01E       MOV     B,#0x1e
   \   000007   A4           MUL     AB
   \   000008   2450         ADD     A,#0x50
   \   00000A   FC           MOV     R4,A
   \   00000B   E5F0         MOV     A,B
   \   00000D   34C3         ADDC    A,#-0x3d
   \   00000F   FD           MOV     R5,A
   \   000010   7A00         MOV     R2,#0x0
   \   000012   7B02         MOV     R3,#0x2
   \   000014   12....       LCALL   ??Subroutine7_0 & 0xFFFF
   \                     ??CrossCallReturnLabel_10:
   \   000017   22           RET
    137          

   \                                 In  segment BANKED_CODE, align 1, keep-with-next
    138          void zclSendDeviceInfo(void)
   \                     zclSendDeviceInfo:
    139          {
   \   000000   74F6         MOV     A,#-0xa
   \   000002   12....       LCALL   ?BANKED_ENTER_XDATA
   \   000005                ; Saved register size: 10
   \   000005                ; Auto size: 0
    140            switch (gDeviceInfoSendStatus)
   \   000005   90....       MOV     DPTR,#gDeviceInfoSendStatus
   \   000008   E0           MOVX    A,@DPTR
   \   000009   F5..         MOV     ?V0 + 0,A
   \   00000B   A3           INC     DPTR
   \   00000C   E0           MOVX    A,@DPTR
   \   00000D   F5..         MOV     ?V0 + 1,A
   \   00000F   78..         MOV     R0,#?V0 + 0
   \   000011   12....       LCALL   ?US_SWITCH_DENSE
   \                     `?<Jumptable for zclSendDeviceInfo>_0`:
   \   000014   0000         DW        0
   \   000016   01           DB        1
   \   000017   ....         DW        ??zclSendDeviceInfo_0
   \   000019   ....         DW        ??zclSendDeviceInfo_1
   \   00001B   ....         DW        ??zclSendDeviceInfo_2
    141            {
    142            case 0:
    143              zclActiveEPRsp();
   \                     ??zclSendDeviceInfo_1:
   \   00001D                ; Setup parameters for call to function zclActiveEPRsp
   \   00001D   12....       LCALL   ??zclActiveEPRsp?relay
    144              break;
   \   000020   8026         SJMP    ??zclSendDeviceInfo_3
    145            case 1:
    146              zclSimpleDescRsp(ONOFFLIGHT0_ENDPOINT);
   \                     ??zclSendDeviceInfo_2:
   \   000022                ; Setup parameters for call to function zclSimpleDescRsp
   \   000022   7A10         MOV     R2,#0x10
   \   000024   7B00         MOV     R3,#0x0
   \   000026   12....       LCALL   ??zclSimpleDescRsp?relay
    147              ledcontorl = 1;
   \   000029   90....       MOV     DPTR,#ledcontorl
   \   00002C   7401         MOV     A,#0x1
   \   00002E   F0           MOVX    @DPTR,A
    148              LED_RED_OFF();
   \   00002F   C285         CLR     0x80.5
    149              break;
   \   000031   8015         SJMP    ??zclSendDeviceInfo_3
    150            default:
    151              {
    152                gDeviceInfoSendStatus = 0;
   \                     ??zclSendDeviceInfo_0:
   \   000033   90....       MOV     DPTR,#gDeviceInfoSendStatus
   \   000036   E4           CLR     A
   \   000037   F0           MOVX    @DPTR,A
   \   000038   A3           INC     DPTR
   \   000039   F0           MOVX    @DPTR,A
    153                
    154                osal_start_timerEx(ZCL_TASK_ID, 
    155                                   ZCL_DEVICE_HEARTBEAT_EVENT,
    156                                   ZCL_HEARTBEAT_PERIOD);
   \   00003A                ; Setup parameters for call to function osal_rand
   \   00003A   12....       LCALL   ?Subroutine1 & 0xFFFF
    157                
    158                g_u8HeartBeatCount = 1;
   \                     ??CrossCallReturnLabel_1:
   \   00003D   90....       MOV     DPTR,#g_u8HeartBeatCount
   \   000040   7401         MOV     A,#0x1
   \   000042   F0           MOVX    @DPTR,A
    159                g_u8sendDeviceInfoFlag =0;//信息发送结束
   \   000043   90....       MOV     DPTR,#g_u8sendDeviceInfoFlag
   \   000046   E4           CLR     A
   \   000047   F0           MOVX    @DPTR,A
    160              }
    161              break;
    162            }
    163          }
   \                     ??zclSendDeviceInfo_3:
   \   000048   02....       LJMP    ??Subroutine6_0 & 0xFFFF
   \   00004B                REQUIRE _A_P0
    164          

   \                                 In  segment BANKED_CODE, align 1, keep-with-next
    165          void zclFactoryReset(uint8 DataCleanFlag)
   \                     zclFactoryReset:
    166          {
   \   000000   74F7         MOV     A,#-0x9
   \   000002   12....       LCALL   ?BANKED_ENTER_XDATA
   \   000005                ; Saved register size: 9
   \   000005                ; Auto size: 0
   \   000005   E9           MOV     A,R1
   \   000006   FE           MOV     R6,A
    167            static uint8 hasDoReset = 0;
    168            if (hasDoReset)
   \   000007   90....       MOV     DPTR,#??hasDoReset
   \   00000A   E0           MOVX    A,@DPTR
   \   00000B   7010         JNZ     ??zclFactoryReset_0
    169              return;
    170            
    171            hasDoReset = 1;
   \   00000D   7401         MOV     A,#0x1
   \   00000F   F0           MOVX    @DPTR,A
    172            if(DataCleanFlag)
   \   000010   EE           MOV     A,R6
   \   000011   6007         JZ      ??zclFactoryReset_1
    173            {
    174              zgWriteStartupOptions(ZG_STARTUP_SET, ZCD_STARTOPT_DEFAULT_NETWORK_STATE);
   \   000013                ; Setup parameters for call to function zgWriteStartupOptions
   \   000013   7A02         MOV     R2,#0x2
   \   000015   79FF         MOV     R1,#-0x1
   \   000017   12....       LCALL   ??zgWriteStartupOptions?relay
    175            }
    176            SystemResetSoft();
   \                     ??zclFactoryReset_1:
   \   00001A                ; Setup parameters for call to function Onboard_soft_reset
   \   00001A   12....       LCALL   Onboard_soft_reset & 0xFFFF
    177          }
   \                     ??zclFactoryReset_0:
   \   00001D   7F01         MOV     R7,#0x1
   \   00001F   02....       LJMP    ?BANKED_LEAVE_XDATA

   \                                 In  segment XDATA_Z, align 1, keep-with-next
   \                     ??hasDoReset:
   \   000000                DS 1
   \   000001                REQUIRE __INIT_XDATA_Z

   \                                 In  segment XDATA_ID, align 1, keep-with-next
   \                     `?<Initializer for softeVision>`:
   \   000000   01           DB 1
   \   000001   09           DB 9
   \   000002   00           DB 0

   \                                 In  segment XDATA_ID, align 1, keep-with-next
   \                     `?<Initializer for zclHeartbeatDesc>`:
   \   000000   EF           DB 239
   \   000001   ....         DW zclOnOffLight_TaskID
   \   000003   ....         DW zclOnOffLight0_SimpleDesc
   \   000005   00           DB 0

   \                                 In  segment BANK_RELAYS, align 1
   \                     ??zclDeviceInfoInit?relay:
   \   000000   12....       LCALL   ?BDISPATCH
   \   000003   ......       DC24    zclDeviceInfoInit

   \                                 In  segment BANK_RELAYS, align 1
   \                     ??zclActiveEPRsp?relay:
   \   000000   12....       LCALL   ?BDISPATCH
   \   000003   ......       DC24    zclActiveEPRsp

   \                                 In  segment BANK_RELAYS, align 1
   \                     ??zclSimpleDescRsp?relay:
   \   000000   12....       LCALL   ?BDISPATCH
   \   000003   ......       DC24    zclSimpleDescRsp

   \                                 In  segment BANK_RELAYS, align 1
   \                     ??zclSendHeartbeat?relay:
   \   000000   12....       LCALL   ?BDISPATCH
   \   000003   ......       DC24    zclSendHeartbeat

   \                                 In  segment BANK_RELAYS, align 1
   \                     ??zclSendDeviceInfo?relay:
   \   000000   12....       LCALL   ?BDISPATCH
   \   000003   ......       DC24    zclSendDeviceInfo

   \                                 In  segment BANK_RELAYS, align 1
   \                     ??zclFactoryReset?relay:
   \   000000   12....       LCALL   ?BDISPATCH
   \   000003   ......       DC24    zclFactoryReset

   \                                 In  segment XDATA_ROM_C, align 1
   \                     `?<Constant {0, 0, 0, 0, 0, 0}>`:
   \   000000   00           DB 0
   \   000001   00           DB 0
   \   000002   00           DB 0
   \   000003   00           DB 0
   \   000004   00           DB 0
   \   000005   00           DB 0

   Maximum stack usage in bytes:

     Function                      ISTACK PSTACK XSTACK
     --------                      ------ ------ ------
     zclActiveEPRsp                    0      0    100
       -> afNumEndPoints               0      0    166
       -> afEndPoints                  0      0    166
       -> NLME_GetShortAddr            0      0    174
       -> ZDP_EPRsp                    0      0    180
       -> osal_rand                    0      0    166
       -> osal_start_timerEx           0      0    166
       -> osal_start_timerEx           0      0    166
     zclDeviceInfoInit                 2      0      0
     zclFactoryReset                   0      0      9
       -> zgWriteStartupOptions        0      0     18
       -> Onboard_soft_reset           0      0     18
     zclSendDeviceInfo                 0      0     10
       -> zclActiveEPRsp               0      0     20
       -> zclSimpleDescRsp             0      0     20
       -> osal_rand                    0      0     20
       -> osal_start_timerEx           0      0     20
     zclSendHeartbeat                  2      0     25
       -> AF_DataRequest               0      0     50
       -> osal_rand                    0      0     32
       -> osal_start_timerEx           0      0     32
     zclSimpleDescRsp                  1      0     24
       -> NLME_GetShortAddr            0      0     28
       -> osal_msg_allocate            0      0     28
       -> ZDO_ProcessSimpleDescReq     0      0     28
       -> osal_msg_deallocate          0      0     28
       -> osal_rand                    0      0     28
       -> osal_start_timerEx           0      0     28
       -> osal_start_timerEx           0      0     28


   Segment part sizes:

     Function/Label                      Bytes
     --------------                      -----
     _A_P0                                  1
     zclIASZoneMotionIR_Coord_nwkAddr
                                           12
     gDeviceInfoSendStatus                  2
     softeVision                            3
     hardVision                             2
     g_u8HeartBeatCount                     1
     zclDeviceInfoInit                     37
     zclActiveEPRsp                       147
     ?Subroutine0                           3
     ??Subroutine6_0                        5
     ?Subroutine5                           4
     ??Subroutine7_0                        9
     ?Subroutine3                          17
     ?Subroutine2                          17
     zclSimpleDescRsp                     157
     ?Subroutine4                          14
     zclHeartbeatDesc                       6
     zclHeartbeatCounter                    1
     zclSendHeartbeat                     210
     ?Subroutine1                          24
     zclSendDeviceInfo                     75
     zclFactoryReset                       34
     hasDoReset                             1
     ?<Initializer for softeVision>         3
     ?<Initializer for zclHeartbeatDesc>    6
     ??zclDeviceInfoInit?relay              6
     ??zclActiveEPRsp?relay                 6
     ??zclSimpleDescRsp?relay               6
     ??zclSendHeartbeat?relay               6
     ??zclSendDeviceInfo?relay              6
     ??zclFactoryReset?relay                6
     ?<Constant {0, 0, 0, 0, 0, 0}>         6

 
 753 bytes in segment BANKED_CODE
  36 bytes in segment BANK_RELAYS
   1 byte  in segment SFR_AN
   9 bytes in segment XDATA_I
   9 bytes in segment XDATA_ID
   6 bytes in segment XDATA_ROM_C
  19 bytes in segment XDATA_Z
 
 798 bytes of CODE  memory
   6 bytes of CONST memory
   0 bytes of DATA  memory (+ 1 byte shared)
  28 bytes of XDATA memory

Errors: none
Warnings: none
