###############################################################################
#                                                                             #
# IAR C/C++ Compiler V8.10.1.10194/W32 for 8051         26/Oct/2016  15:52:30 #
# Copyright 2004-2011 IAR Systems AB.                                         #
#                                                                             #
#    Core               =  plain                                              #
#    Code model         =  banked                                             #
#    Data model         =  large                                              #
#    Calling convention =  xdata reentrant                                    #
#    Constant location  =  data_rom                                           #
#    Dptr setup         =  1,16                                               #
#    Source file        =  D:\work space\Smart Product\SmartLightSwitch\four  #
#                          key\v1.00.0\ZStack-CC2530-2.5.1a\ZStack-CC2530-2.5 #
#                          .1a\Projects\zstack\HomeAutomation\SmartSwitchLigh #
#                          t\Source\zcl_light_control.c                       #
#    Command line       =  -f "D:\work space\Smart Product\SmartLightSwitch\f #
#                          our key\v1.00.0\ZStack-CC2530-2.5.1a\ZStack-CC2530 #
#                          -2.5.1a\Projects\zstack\HomeAutomation\SmartSwitch #
#                          Light\CC2530DB\..\Tools\CC2530DB\f8wRouter.cfg"    #
#                          (-DCPU32MHZ -DROOT=__near_func                     #
#                          -DMAC_CFG_APP_PENDING_QUEUE=TRUE                   #
#                          -DMAC_CFG_TX_DATA_MAX=5 -DMAC_CFG_TX_MAX=8         #
#                          -DMAC_CFG_RX_MAX=5 -DRTR_NWK -DNV_RESTORE          #
#                          -DNV_INIT -DHAL_KEY=FALSE -DHAL_LED=FALSE          #
#                          -DHAL_LCD=FALSE -DHAL_ADC=FALSE                    #
#                          -DTC_LINKKEY_JOIN) -f "D:\work space\Smart         #
#                          Product\SmartLightSwitch\four                      #
#                          key\v1.00.0\ZStack-CC2530-2.5.1a\ZStack-CC2530-2.5 #
#                          .1a\Projects\zstack\HomeAutomation\SmartSwitchLigh #
#                          t\CC2530DB\..\Tools\CC2530DB\f8wConfig.cfg"        #
#                          (-DZIGBEEPRO -DSECURE=1 -DZG_SECURE_DYNAMIC=0      #
#                          -DREFLECTOR -DDEFAULT_CHANLIST=0x00000800          #
#                          -DZDAPP_CONFIG_PAN_ID=0xFFFF                       #
#                          -DNWK_START_DELAY=100 -DEXTENDED_JOINING_RANDOM_MA #
#                          SK=0x007F -DBEACON_REQUEST_DELAY=1000              #
#                          -DBEACON_REQ_DELAY_MASK=0x00FF                     #
#                          -DLINK_STATUS_JITTER_MASK=0x007F                   #
#                          -DROUTE_EXPIRY_TIME=30 -DAPSC_ACK_WAIT_DURATION_PO #
#                          LLED=3000 -DNWK_INDIRECT_MSG_TIMEOUT=7             #
#                          -DMAX_RREQ_ENTRIES=8 -DAPSC_MAX_FRAME_RETRIES=3    #
#                          -DNWK_MAX_DATA_RETRIES=2                           #
#                          -DMAX_POLL_FAILURE_RETRIES=2 -DMAX_BCAST=9         #
#                          -DAPS_MAX_GROUPS=16 -DMAX_RTG_ENTRIES=40           #
#                          -DNWK_MAX_BINDING_ENTRIES=4                        #
#                          -DMAX_BINDING_CLUSTER_IDS=4                        #
#                          -DDEFAULT_KEY={0x58,0x69,0x6E,0x67,0x48,0x75,0x6F, #
#                          0x59,0x75,0x61,0x6E,0x53,0x6D,0x61,0x72,0x74}      #
#                          -DMAC_MAX_FRAME_SIZE=116                           #
#                          -DZDNWKMGR_MIN_TRANSMISSIONS=20 "-DCONST=const     #
#                          __code" -DGENERIC=__generic                        #
#                          -DRFD_RCVC_ALWAYS_ON=TRUE -DPOLL_RATE=0            #
#                          -DQUEUED_POLL_RATE=0 -DRESPONSE_POLL_RATE=0        #
#                          -DREJOIN_POLL_RATE=440) -f "D:\work space\Smart    #
#                          Product\SmartLightSwitch\four                      #
#                          key\v1.00.0\ZStack-CC2530-2.5.1a\ZStack-CC2530-2.5 #
#                          .1a\Projects\zstack\HomeAutomation\SmartSwitchLigh #
#                          t\CC2530DB\..\Tools\CC2530DB\f8wZCL.cfg"           #
#                          (-DZCL_READ -DZCL_WRITE -DZCL_REPORT -DZCL_BASIC   #
#                          -DZCL_IDENTIFY -DZCL_ON_OFF -DZCL_KEY_ESTABLISH    #
#                          -DZCL_KEY_ESTABLISHMENT_KEY_GENERATE_TIMEOUT=4     #
#                          -DZCL_KEY_ESTABLISHMENT_MAC_GENERATE_TIMEOUT=10    #
#                          -DZCL_KEY_ESTABLISHMENT_EKEY_GENERATE_TIMEOUT=10   #
#                          -DZCL_LOAD_CONTROL -DZCL_SIMPLE_METERING           #
#                          -DZCL_PRICING -DZCL_MESSAGE -DZCL_TUNNELING        #
#                          -DZCL_TOU) -DZCL_DEVICE_MGMT "D:\work space\Smart  #
#                          Product\SmartLightSwitch\four                      #
#                          key\v1.00.0\ZStack-CC2530-2.5.1a\ZStack-CC2530-2.5 #
#                          .1a\Projects\zstack\HomeAutomation\SmartSwitchLigh #
#                          t\Source\zcl_light_control.c" -lC "D:\work         #
#                          space\Smart Product\SmartLightSwitch\four          #
#                          key\v1.00.0\ZStack-CC2530-2.5.1a\ZStack-CC2530-2.5 #
#                          .1a\Projects\zstack\HomeAutomation\SmartSwitchLigh #
#                          t\CC2530DB\RouterDeviceEB\List\" -lA "D:\work      #
#                          space\Smart Product\SmartLightSwitch\four          #
#                          key\v1.00.0\ZStack-CC2530-2.5.1a\ZStack-CC2530-2.5 #
#                          .1a\Projects\zstack\HomeAutomation\SmartSwitchLigh #
#                          t\CC2530DB\RouterDeviceEB\List\" --diag_suppress   #
#                          Pe001,Pa010 -o "D:\work space\Smart                #
#                          Product\SmartLightSwitch\four                      #
#                          key\v1.00.0\ZStack-CC2530-2.5.1a\ZStack-CC2530-2.5 #
#                          .1a\Projects\zstack\HomeAutomation\SmartSwitchLigh #
#                          t\CC2530DB\RouterDeviceEB\Obj\" -e --debug         #
#                          --core=plain --dptr=16,1 --data_model=large        #
#                          --code_model=banked --calling_convention=xdata_ree #
#                          ntrant --place_constants=data_rom                  #
#                          --nr_virtual_regs 16 -I "D:\work space\Smart       #
#                          Product\SmartLightSwitch\four                      #
#                          key\v1.00.0\ZStack-CC2530-2.5.1a\ZStack-CC2530-2.5 #
#                          .1a\Projects\zstack\HomeAutomation\SmartSwitchLigh #
#                          t\CC2530DB\" -I "D:\work space\Smart               #
#                          Product\SmartLightSwitch\four                      #
#                          key\v1.00.0\ZStack-CC2530-2.5.1a\ZStack-CC2530-2.5 #
#                          .1a\Projects\zstack\HomeAutomation\SmartSwitchLigh #
#                          t\CC2530DB\..\Source\" -I "D:\work space\Smart     #
#                          Product\SmartLightSwitch\four                      #
#                          key\v1.00.0\ZStack-CC2530-2.5.1a\ZStack-CC2530-2.5 #
#                          .1a\Projects\zstack\HomeAutomation\SmartSwitchLigh #
#                          t\CC2530DB\..\..\Source\" -I "D:\work space\Smart  #
#                          Product\SmartLightSwitch\four                      #
#                          key\v1.00.0\ZStack-CC2530-2.5.1a\ZStack-CC2530-2.5 #
#                          .1a\Projects\zstack\HomeAutomation\SmartSwitchLigh #
#                          t\CC2530DB\..\..\..\ZMain\TI2530DB\" -I "D:\work   #
#                          space\Smart Product\SmartLightSwitch\four          #
#                          key\v1.00.0\ZStack-CC2530-2.5.1a\ZStack-CC2530-2.5 #
#                          .1a\Projects\zstack\HomeAutomation\SmartSwitchLigh #
#                          t\CC2530DB\..\..\..\..\..\Components\hal\include\" #
#                           -I "D:\work space\Smart                           #
#                          Product\SmartLightSwitch\four                      #
#                          key\v1.00.0\ZStack-CC2530-2.5.1a\ZStack-CC2530-2.5 #
#                          .1a\Projects\zstack\HomeAutomation\SmartSwitchLigh #
#                          t\CC2530DB\..\..\..\..\..\Components\hal\target\CC #
#                          2530EB\" -I "D:\work space\Smart                   #
#                          Product\SmartLightSwitch\four                      #
#                          key\v1.00.0\ZStack-CC2530-2.5.1a\ZStack-CC2530-2.5 #
#                          .1a\Projects\zstack\HomeAutomation\SmartSwitchLigh #
#                          t\CC2530DB\..\..\..\..\..\Components\mac\include\" #
#                           -I "D:\work space\Smart                           #
#                          Product\SmartLightSwitch\four                      #
#                          key\v1.00.0\ZStack-CC2530-2.5.1a\ZStack-CC2530-2.5 #
#                          .1a\Projects\zstack\HomeAutomation\SmartSwitchLigh #
#                          t\CC2530DB\..\..\..\..\..\Components\mac\high_leve #
#                          l\" -I "D:\work space\Smart                        #
#                          Product\SmartLightSwitch\four                      #
#                          key\v1.00.0\ZStack-CC2530-2.5.1a\ZStack-CC2530-2.5 #
#                          .1a\Projects\zstack\HomeAutomation\SmartSwitchLigh #
#                          t\CC2530DB\..\..\..\..\..\Components\mac\low_level #
#                          \srf04\" -I "D:\work space\Smart                   #
#                          Product\SmartLightSwitch\four                      #
#                          key\v1.00.0\ZStack-CC2530-2.5.1a\ZStack-CC2530-2.5 #
#                          .1a\Projects\zstack\HomeAutomation\SmartSwitchLigh #
#                          t\CC2530DB\..\..\..\..\..\Components\mac\low_level #
#                          \srf04\single_chip\" -I "D:\work space\Smart       #
#                          Product\SmartLightSwitch\four                      #
#                          key\v1.00.0\ZStack-CC2530-2.5.1a\ZStack-CC2530-2.5 #
#                          .1a\Projects\zstack\HomeAutomation\SmartSwitchLigh #
#                          t\CC2530DB\..\..\..\..\..\Components\mt\" -I       #
#                          "D:\work space\Smart Product\SmartLightSwitch\four #
#                           key\v1.00.0\ZStack-CC2530-2.5.1a\ZStack-CC2530-2. #
#                          5.1a\Projects\zstack\HomeAutomation\SmartSwitchLig #
#                          ht\CC2530DB\..\..\..\..\..\Components\osal\include #
#                          \" -I "D:\work space\Smart                         #
#                          Product\SmartLightSwitch\four                      #
#                          key\v1.00.0\ZStack-CC2530-2.5.1a\ZStack-CC2530-2.5 #
#                          .1a\Projects\zstack\HomeAutomation\SmartSwitchLigh #
#                          t\CC2530DB\..\..\..\..\..\Components\services\sadd #
#                          r\" -I "D:\work space\Smart                        #
#                          Product\SmartLightSwitch\four                      #
#                          key\v1.00.0\ZStack-CC2530-2.5.1a\ZStack-CC2530-2.5 #
#                          .1a\Projects\zstack\HomeAutomation\SmartSwitchLigh #
#                          t\CC2530DB\..\..\..\..\..\Components\services\sdat #
#                          a\" -I "D:\work space\Smart                        #
#                          Product\SmartLightSwitch\four                      #
#                          key\v1.00.0\ZStack-CC2530-2.5.1a\ZStack-CC2530-2.5 #
#                          .1a\Projects\zstack\HomeAutomation\SmartSwitchLigh #
#                          t\CC2530DB\..\..\..\..\..\Components\stack\af\"    #
#                          -I "D:\work space\Smart Product\SmartLightSwitch\f #
#                          our key\v1.00.0\ZStack-CC2530-2.5.1a\ZStack-CC2530 #
#                          -2.5.1a\Projects\zstack\HomeAutomation\SmartSwitch #
#                          Light\CC2530DB\..\..\..\..\..\Components\stack\nwk #
#                          \" -I "D:\work space\Smart                         #
#                          Product\SmartLightSwitch\four                      #
#                          key\v1.00.0\ZStack-CC2530-2.5.1a\ZStack-CC2530-2.5 #
#                          .1a\Projects\zstack\HomeAutomation\SmartSwitchLigh #
#                          t\CC2530DB\..\..\..\..\..\Components\stack\sapi\"  #
#                          -I "D:\work space\Smart Product\SmartLightSwitch\f #
#                          our key\v1.00.0\ZStack-CC2530-2.5.1a\ZStack-CC2530 #
#                          -2.5.1a\Projects\zstack\HomeAutomation\SmartSwitch #
#                          Light\CC2530DB\..\..\..\..\..\Components\stack\sec #
#                          \" -I "D:\work space\Smart                         #
#                          Product\SmartLightSwitch\four                      #
#                          key\v1.00.0\ZStack-CC2530-2.5.1a\ZStack-CC2530-2.5 #
#                          .1a\Projects\zstack\HomeAutomation\SmartSwitchLigh #
#                          t\CC2530DB\..\..\..\..\..\Components\stack\sys\"   #
#                          -I "D:\work space\Smart Product\SmartLightSwitch\f #
#                          our key\v1.00.0\ZStack-CC2530-2.5.1a\ZStack-CC2530 #
#                          -2.5.1a\Projects\zstack\HomeAutomation\SmartSwitch #
#                          Light\CC2530DB\..\..\..\..\..\Components\stack\zcl #
#                          \" -I "D:\work space\Smart                         #
#                          Product\SmartLightSwitch\four                      #
#                          key\v1.00.0\ZStack-CC2530-2.5.1a\ZStack-CC2530-2.5 #
#                          .1a\Projects\zstack\HomeAutomation\SmartSwitchLigh #
#                          t\CC2530DB\..\..\..\..\..\Components\stack\zdo\"   #
#                          -I "D:\work space\Smart Product\SmartLightSwitch\f #
#                          our key\v1.00.0\ZStack-CC2530-2.5.1a\ZStack-CC2530 #
#                          -2.5.1a\Projects\zstack\HomeAutomation\SmartSwitch #
#                          Light\CC2530DB\..\..\..\..\..\Components\zmac\"    #
#                          -I "D:\work space\Smart Product\SmartLightSwitch\f #
#                          our key\v1.00.0\ZStack-CC2530-2.5.1a\ZStack-CC2530 #
#                          -2.5.1a\Projects\zstack\HomeAutomation\SmartSwitch #
#                          Light\CC2530DB\..\..\..\..\..\Components\zmac\f8w\ #
#                          " -Oh --require_prototypes                         #
#    List file          =  D:\work space\Smart Product\SmartLightSwitch\four  #
#                          key\v1.00.0\ZStack-CC2530-2.5.1a\ZStack-CC2530-2.5 #
#                          .1a\Projects\zstack\HomeAutomation\SmartSwitchLigh #
#                          t\CC2530DB\RouterDeviceEB\List\zcl_light_control.l #
#                          st                                                 #
#    Object file        =  D:\work space\Smart Product\SmartLightSwitch\four  #
#                          key\v1.00.0\ZStack-CC2530-2.5.1a\ZStack-CC2530-2.5 #
#                          .1a\Projects\zstack\HomeAutomation\SmartSwitchLigh #
#                          t\CC2530DB\RouterDeviceEB\Obj\zcl_light_control.r5 #
#                          1                                                  #
#                                                                             #
#                                                                             #
###############################################################################

D:\work space\Smart Product\SmartLightSwitch\four key\v1.00.0\ZStack-CC2530-2.5.1a\ZStack-CC2530-2.5.1a\Projects\zstack\HomeAutomation\SmartSwitchLight\Source\zcl_light_control.c
      1          #include "zcl_light_control.h"

   \                                 In  segment SFR_AN, at 0x80
   \   union <unnamed> volatile __sfr _A_P0
   \                     _A_P0:
   \   000000                DS 1

   \                                 In  segment SFR_AN, at 0x89
   \   unsigned char volatile __sfr P0IFG
   \                     P0IFG:
   \   000000                DS 1

   \                                 In  segment SFR_AN, at 0x8b
   \   unsigned char volatile __sfr P2IFG
   \                     P2IFG:
   \   000000                DS 1

   \                                 In  segment SFR_AN, at 0x8c
   \   unsigned char volatile __sfr PICTL
   \                     PICTL:
   \   000000                DS 1

   \                                 In  segment SFR_AN, at 0x8f
   \   unsigned char volatile __sfr P0INP
   \                     P0INP:
   \   000000                DS 1

   \                                 In  segment SFR_AN, at 0x90
   \   union <unnamed> volatile __sfr _A_P1
   \                     _A_P1:
   \   000000                DS 1

   \                                 In  segment SFR_AN, at 0x9a
   \   unsigned char volatile __sfr IEN2
   \                     IEN2:
   \   000000                DS 1

   \                                 In  segment SFR_AN, at 0xa8
   \   union <unnamed> volatile __sfr _A_IEN0
   \                     _A_IEN0:
   \   000000                DS 1

   \                                 In  segment SFR_AN, at 0xab
   \   unsigned char volatile __sfr P0IEN
   \                     P0IEN:
   \   000000                DS 1

   \                                 In  segment SFR_AN, at 0xac
   \   unsigned char volatile __sfr P2IEN
   \                     P2IEN:
   \   000000                DS 1

   \                                 In  segment SFR_AN, at 0xb8
   \   union <unnamed> volatile __sfr _A_IEN1
   \                     _A_IEN1:
   \   000000                DS 1

   \                                 In  segment SFR_AN, at 0xc0
   \   union <unnamed> volatile __sfr _A_IRCON
   \                     _A_IRCON:
   \   000000                DS 1

   \                                 In  segment SFR_AN, at 0xe8
   \   union <unnamed> volatile __sfr _A_IRCON2
   \                     _A_IRCON2:
   \   000000                DS 1

   \                                 In  segment SFR_AN, at 0xf3
   \   unsigned char volatile __sfr P0SEL
   \                     P0SEL:
   \   000000                DS 1

   \                                 In  segment SFR_AN, at 0xf4
   \   unsigned char volatile __sfr P1SEL
   \                     P1SEL:
   \   000000                DS 1

   \                                 In  segment SFR_AN, at 0xf5
   \   unsigned char volatile __sfr P2SEL
   \                     P2SEL:
   \   000000                DS 1

   \                                 In  segment SFR_AN, at 0xf7
   \   unsigned char volatile __sfr P2INP
   \                     P2INP:
   \   000000                DS 1

   \                                 In  segment SFR_AN, at 0xfd
   \   unsigned char volatile __sfr P0DIR
   \                     P0DIR:
   \   000000                DS 1

   \                                 In  segment SFR_AN, at 0xfe
   \   unsigned char volatile __sfr P1DIR
   \                     P1DIR:
   \   000000                DS 1

   \                                 In  segment SFR_AN, at 0xff
   \   unsigned char volatile __sfr P2DIR
   \                     P2DIR:
   \   000000                DS 1
      2          #include "zcl_onofflight.h"
      3          #include "zcl.h"
      4          #include "zcl_device_info.h"
      5          //#include <ioCC2530.h>
      6          
      7          extern byte zclOnOffLight_TaskID;

   \                                 In  segment XDATA_Z, align 1, keep-with-next
      8          static afAddrType_t zcl_Coord_nwkAddr;
   \                     zcl_Coord_nwkAddr:
   \   000000                DS 12
   \   00000C                REQUIRE __INIT_XDATA_Z

   \                                 In  segment XDATA_Z, align 1, keep-with-next
      9          static uint8 zcl_SeqNum = 0;
   \                     zcl_SeqNum:
   \   000000                DS 1
   \   000001                REQUIRE __INIT_XDATA_Z

   \                                 In  segment XDATA_Z, align 1, keep-with-next
     10          static uint8 zcl_interruptNo = 0;
   \                     zcl_interruptNo:
   \   000000                DS 1
   \   000001                REQUIRE __INIT_XDATA_Z
     11          void zclFactoryResetInit(void);
     12          void zclFactoryResetEvent(void);

   \                                 In  segment XDATA_Z, align 1, keep-with-next
     13          static uint8 zcl_factoryReset = 0;
   \                     zcl_factoryReset:
   \   000000                DS 1
   \   000001                REQUIRE __INIT_XDATA_Z
     14          extern uint8 g_u8restFlag;
     15          
     16          /*
     17          input   LED     LIGHT
     18          P1_3 -> P0_7 -> P0_0
     19          
     20          p1_2 -> P1_0 -> P0_1
     21          */

   \                                 In  segment BANKED_CODE, align 1, keep-with-next
     22          void zclLightControlInit(void)      //LED初始化
   \                     zclLightControlInit:
     23          {
   \   000000   C082         PUSH    DPL
   \   000002   C083         PUSH    DPH
   \   000004                ; Saved register size: 2
   \   000004                ; Auto size: 0
     24            zclFactoryResetInit();
   \   000004                ; Setup parameters for call to function zclFactoryResetInit
   \   000004   12....       LCALL   ??zclFactoryResetInit?relay
     25          
     26            P1SEL &= ~BV(7); //LED-RED
   \   000007   53F47F       ANL     0xf4,#0x7f
     27            P1DIR |= BV(7);
   \   00000A   43FE80       ORL     0xfe,#0x80
     28            
     29            ///init P1.4  P1.5 P1.6and P0.3 for relay control///////////
     30            
     31            P1SEL &= ~BV(4);      //功能：普通I/O口 
   \   00000D   53F4EF       ANL     0xf4,#0xef
     32            P1DIR |= BV(4);       //方向：输出
   \   000010   43FE10       ORL     0xfe,#0x10
     33            
     34            P0SEL &= ~BV(3);
   \   000013   53F3F7       ANL     0xf3,#0xf7
     35            P0DIR |= BV(3); 
   \   000016   43FD08       ORL     0xfd,#0x8
     36            
     37            P1SEL &= ~BV(5);
   \   000019   53F4DF       ANL     0xf4,#0xdf
     38            P1DIR |= BV(5);
   \   00001C   43FE20       ORL     0xfe,#0x20
     39            
     40            P1SEL &= ~BV(6);
   \   00001F   53F4BF       ANL     0xf4,#0xbf
     41            P1DIR |= BV(6);
   \   000022   43FE40       ORL     0xfe,#0x40
     42            
     43            //end init for control
     44            LIGHT_TURN_OFF_LIGHT0();
   \   000025   C294         CLR     0x90.4
     45            LIGHT_TURN_OFF_LIGHT1();
   \   000027   C295         CLR     0x90.5
     46            LIGHT_TURN_OFF_LIGHT2();
   \   000029   C283         CLR     0x80.3
     47            LIGHT_TURN_OFF_LIGHT3(); 
   \   00002B   C296         CLR     0x90.6
     48            
     49            LED_RED_ON();
   \   00002D   D297         SETB    0x90.7
     50            
     51            //设备初始化完成，启动定时器
     52            osal_start_timerEx(zclOnOffLight_TaskID, 
     53                               ZCL_DEVICE_INIT_DONE_EVENT,                    
     54                               500);
   \   00002F                ; Setup parameters for call to function osal_start_timerEx
   \   00002F   7CF4         MOV     R4,#-0xc
   \   000031   7D01         MOV     R5,#0x1
   \   000033   7A08         MOV     R2,#0x8
   \   000035   12....       LCALL   ?Subroutine3 & 0xFFFF
     55            zcl_Coord_nwkAddr.addrMode = afAddr16Bit;       //协调器信息
   \                     ??CrossCallReturnLabel_6:
   \   000038   90....       MOV     DPTR,#zcl_Coord_nwkAddr + 8
   \   00003B   7402         MOV     A,#0x2
   \   00003D   F0           MOVX    @DPTR,A
     56            zcl_Coord_nwkAddr.addr.shortAddr = 0x0000;
   \   00003E   90....       MOV     DPTR,#zcl_Coord_nwkAddr
   \   000041   E4           CLR     A
   \   000042   F0           MOVX    @DPTR,A
   \   000043   A3           INC     DPTR
   \   000044   F0           MOVX    @DPTR,A
     57            zcl_Coord_nwkAddr.endPoint = 0xF0;
   \   000045   90....       MOV     DPTR,#zcl_Coord_nwkAddr + 9
   \   000048   74F0         MOV     A,#-0x10
   \   00004A   F0           MOVX    @DPTR,A
     58          }
   \   00004B                REQUIRE ?Subroutine0
   \   00004B                REQUIRE P1SEL
   \   00004B                REQUIRE P1DIR
   \   00004B                REQUIRE P0SEL
   \   00004B                REQUIRE P0DIR
   \   00004B                REQUIRE _A_P1
   \   00004B                REQUIRE _A_P0
   \   00004B                ; // Fall through to label ?Subroutine0

   \                                 In  segment BANKED_CODE, align 1, keep-with-next
   \                     ?Subroutine0:
   \   000000   D083         POP     DPH
   \   000002   D082         POP     DPL
   \   000004   02....       LJMP    ?BRET

   \                                 In  segment BANKED_CODE, align 1, keep-with-next
   \                     ?Subroutine3:
   \   000000   7B00         MOV     R3,#0x0
   \   000002   90....       MOV     DPTR,#zclOnOffLight_TaskID
   \   000005   E0           MOVX    A,@DPTR
   \   000006   F9           MOV     R1,A
   \   000007   12....       LCALL   ??osal_start_timerEx?relay
   \   00000A   22           RET
     59          /*
     60          input   LED     LIGHT
     61          P1_3 -> P0_7 -> P0_0
     62          
     63          p1_2 -> P1_0 -> P0_1
     64          */

   \                                 In  segment BANKED_CODE, align 1, keep-with-next
     65          void zclLightControlTouchPanelEnable(void)
   \                     zclLightControlTouchPanelEnable:
     66          {
   \   000000                ; Saved register size: 0
   \   000000                ; Auto size: 0
     67            //KEY_1
     68            P0SEL &= ~BV(4);          //普通I/O口
   \   000000   53F3EF       ANL     0xf3,#0xef
     69            P0DIR &= ~BV(4);          //输入
   \   000003   53FDEF       ANL     0xfd,#0xef
     70            P0INP &= ~BV(4);          
   \   000006   538FEF       ANL     0x8f,#0xef
     71            P0IEN |= BV(4);           //使能中断
   \   000009   43AB10       ORL     0xab,#0x10
     72            
     73            //KEY_2
     74            P0SEL &= ~BV(5);
   \   00000C   53F3DF       ANL     0xf3,#0xdf
     75            P0DIR &= ~BV(5);
   \   00000F   53FDDF       ANL     0xfd,#0xdf
     76            P0INP &= ~BV(5);
   \   000012   538FDF       ANL     0x8f,#0xdf
     77            P0IEN |= BV(5);  
   \   000015   43AB20       ORL     0xab,#0x20
     78            
     79            //KEY_3
     80            P0SEL &= ~BV(6);
   \   000018   53F3BF       ANL     0xf3,#0xbf
     81            P0DIR &= ~BV(6);
   \   00001B   53FDBF       ANL     0xfd,#0xbf
     82            P0INP &= ~BV(6);
   \   00001E   538FBF       ANL     0x8f,#0xbf
     83            P0IEN |= BV(6);  
   \   000021   43AB40       ORL     0xab,#0x40
     84            
     85            //KEY_4
     86            P0SEL &= ~BV(7);
   \   000024   53F37F       ANL     0xf3,#0x7f
     87            P0DIR &= ~BV(7);
   \   000027   53FD7F       ANL     0xfd,#0x7f
     88            P0INP &= ~BV(7);
   \   00002A   538F7F       ANL     0x8f,#0x7f
     89            P0IEN |= BV(7);  
   \   00002D   43AB80       ORL     0xab,#0x80
     90            
     91            PICTL |= (0x1 << 0);
   \   000030   438C01       ORL     0x8c,#0x1
     92            IEN1 |= (0x1 << 5);
   \   000033   D2BD         SETB    0xb8.5
     93            
     94            P0IFG = 0;
   \   000035   758900       MOV     0x89,#0x0
     95            P0IF = 0;
   \   000038   C2C5         CLR     0xc0.5
     96            
     97            LIGHT_TURN_OFF_LIGHT0();
   \   00003A   C294         CLR     0x90.4
     98            LIGHT_TURN_OFF_LIGHT1();
   \   00003C   C295         CLR     0x90.5
     99            LIGHT_TURN_OFF_LIGHT2();
   \   00003E   C283         CLR     0x80.3
    100            LIGHT_TURN_OFF_LIGHT3(); 
   \   000040   C296         CLR     0x90.6
    101          }
   \   000042   02....       LJMP    ?BRET
   \   000045                REQUIRE P0SEL
   \   000045                REQUIRE P0DIR
   \   000045                REQUIRE P0INP
   \   000045                REQUIRE P0IEN
   \   000045                REQUIRE PICTL
   \   000045                REQUIRE _A_IEN1
   \   000045                REQUIRE P0IFG
   \   000045                REQUIRE _A_IRCON
   \   000045                REQUIRE _A_P1
   \   000045                REQUIRE _A_P0
    102          

   \                                 In  segment BANKED_CODE, align 1, keep-with-next
    103          void zclLightReportEvent(uint16 endpoint, uint8 *zclOnOffLight_OnOff)
   \                     zclLightReportEvent:
    104          {
   \   000000   74F2         MOV     A,#-0xe
   \   000002   12....       LCALL   ?BANKED_ENTER_XDATA
   \   000005                ; Saved register size: 14
   \   000005                ; Auto size: 0
   \   000005   8A..         MOV     ?V0 + 0,R2
   \   000007   EC           MOV     A,R4
   \   000008   FE           MOV     R6,A
   \   000009   ED           MOV     A,R5
   \   00000A   FF           MOV     R7,A
    105            zclReportCmd_t *pReportCmd;
    106            
    107            pReportCmd = osal_mem_alloc( sizeof(zclReportCmd_t) + sizeof(zclReport_t) );
   \   00000B                ; Setup parameters for call to function osal_mem_alloc
   \   00000B   7A06         MOV     R2,#0x6
   \   00000D   7B00         MOV     R3,#0x0
   \   00000F   12....       LCALL   ??osal_mem_alloc?relay
   \   000012   8A..         MOV     ?V0 + 2,R2
   \   000014   8B..         MOV     ?V0 + 3,R3
    108            if ( pReportCmd != NULL )
   \   000016   EA           MOV     A,R2
   \   000017   45..         ORL     A,?V0 + 3
   \   000019   6055         JZ      ??zclLightReportEvent_0
    109            {
    110              pReportCmd->numAttr = 1;
   \   00001B   8A82         MOV     DPL,R2
   \   00001D   8B83         MOV     DPH,R3
   \   00001F   7401         MOV     A,#0x1
   \   000021   F0           MOVX    @DPTR,A
    111              pReportCmd->attrList[0].attrID = ATTRID_ON_OFF;
   \   000022   A3           INC     DPTR
   \   000023   E4           CLR     A
   \   000024   F0           MOVX    @DPTR,A
   \   000025   A3           INC     DPTR
   \   000026   12....       LCALL   ?Subroutine4 & 0xFFFF
    112              pReportCmd->attrList[0].dataType = ZCL_DATATYPE_UINT8;
   \                     ??CrossCallReturnLabel_9:
   \   000029   7420         MOV     A,#0x20
   \   00002B   12....       LCALL   ?Subroutine4 & 0xFFFF
    113              pReportCmd->attrList[0].attrData = (void *)(zclOnOffLight_OnOff);
   \                     ??CrossCallReturnLabel_10:
   \   00002E   A3           INC     DPTR
   \   00002F   EE           MOV     A,R6
   \   000030   F0           MOVX    @DPTR,A
   \   000031   A3           INC     DPTR
   \   000032   EF           MOV     A,R7
   \   000033   F0           MOVX    @DPTR,A
    114          
    115              zcl_SendReportCmd( endpoint, 
    116                                &zcl_Coord_nwkAddr,
    117                                 ZCL_CLUSTER_ID_GEN_ON_OFF,
    118                                 pReportCmd, ZCL_FRAME_SERVER_CLIENT_DIR, TRUE, 
    119                                 zcl_SeqNum++ );
   \   000034   90....       MOV     DPTR,#zcl_SeqNum
   \   000037   E0           MOVX    A,@DPTR
   \   000038   F8           MOV     R0,A
   \   000039   7401         MOV     A,#0x1
   \   00003B   28           ADD     A,R0
   \   00003C   F0           MOVX    @DPTR,A
   \   00003D                ; Setup parameters for call to function zcl_SendReportCmd
   \   00003D   E8           MOV     A,R0
   \   00003E   F5..         MOV     ?V0 + 4,A
   \   000040   78..         MOV     R0,#?V0 + 4
   \   000042   12....       LCALL   ?PUSH_XSTACK_I_ONE
   \   000045   75..01       MOV     ?V0 + 4,#0x1
   \   000048   78..         MOV     R0,#?V0 + 4
   \   00004A   12....       LCALL   ?PUSH_XSTACK_I_ONE
   \   00004D   78..         MOV     R0,#?V0 + 4
   \   00004F   12....       LCALL   ?PUSH_XSTACK_I_ONE
   \   000052   78..         MOV     R0,#?V0 + 2
   \   000054   12....       LCALL   ?PUSH_XSTACK_I_TWO
   \   000057   7C06         MOV     R4,#0x6
   \   000059   7D00         MOV     R5,#0x0
   \   00005B   7A..         MOV     R2,#zcl_Coord_nwkAddr & 0xff
   \   00005D   7B..         MOV     R3,#(zcl_Coord_nwkAddr >> 8) & 0xff
   \   00005F   A9..         MOV     R1,?V0 + 0
   \   000061   12....       LCALL   ??zcl_SendReportCmd?relay
   \   000064   7405         MOV     A,#0x5
   \   000066   12....       LCALL   ?DEALLOC_XSTACK8
    120                 
    121              osal_mem_free( pReportCmd );
   \   000069                ; Setup parameters for call to function osal_mem_free
   \   000069   AA..         MOV     R2,?V0 + 2
   \   00006B   AB..         MOV     R3,?V0 + 3
   \   00006D   12....       LCALL   ??osal_mem_free?relay
    122            }
    123          }
   \                     ??zclLightReportEvent_0:
   \   000070   7F06         MOV     R7,#0x6
   \   000072   02....       LJMP    ?BANKED_LEAVE_XDATA

   \                                 In  segment BANKED_CODE, align 1, keep-with-next
   \                     ?Subroutine4:
   \   000000   F0           MOVX    @DPTR,A
   \   000001   8A82         MOV     DPL,R2
   \   000003   8B83         MOV     DPH,R3
   \   000005   A3           INC     DPTR
   \   000006   A3           INC     DPTR
   \   000007   A3           INC     DPTR
   \   000008   22           RET
    124          

   \                                 In  segment BANKED_CODE, align 1, keep-with-next
    125          void zclTouchPanelEvent(void)      //按下开窗帘开，按下关窗帘关，按下暂停停止开/关动作
   \                     zclTouchPanelEvent:
    126          {
   \   000000   C082         PUSH    DPL
   \   000002   C083         PUSH    DPH
   \   000004                ; Saved register size: 2
   \   000004                ; Auto size: 0
    127            int done = 0;
   \   000004   7800         MOV     R0,#0x0
    128            //LED1
    129            if( zcl_interruptNo & 1 ) {
   \   000006   90....       MOV     DPTR,#zcl_interruptNo
   \   000009   E0           MOVX    A,@DPTR
   \   00000A   A2E0         MOV     C,0xE0 /* A   */.0
   \   00000C   5020         JNC     ??CrossCallReturnLabel_2
    130             if (P0_4 == 0) {
   \   00000E   A284         MOV     C,0x80.4
   \   000010   401C         JC      ??CrossCallReturnLabel_2
    131                 if (zclOnOffLight0_OnOff == LIGHT_ON) {
   \   000012   90....       MOV     DPTR,#zclOnOffLight0_OnOff
   \   000015   E0           MOVX    A,@DPTR
   \   000016   6401         XRL     A,#0x1
   \   000018   7006         JNZ     ??zclTouchPanelEvent_0
    132                  zclOnOffLight0_OnOff = LIGHT_OFF;
   \   00001A   E4           CLR     A
   \   00001B   F0           MOVX    @DPTR,A
    133                  LIGHT_TURN_OFF_LIGHT0();
   \   00001C   C294         CLR     0x90.4
   \   00001E   8005         SJMP    ??zclTouchPanelEvent_1
    134                 } else {
    135                   zclOnOffLight0_OnOff = LIGHT_ON;
   \                     ??zclTouchPanelEvent_0:
   \   000020   7401         MOV     A,#0x1
   \   000022   F0           MOVX    @DPTR,A
    136                   LIGHT_TURN_ON_LIGHT0();
   \   000023   D294         SETB    0x90.4
    137                 }
    138                 //if(zclDevice_NwkState == DEV_ROUTER)
    139                   zclLightReportEvent(ONOFFLIGHT0_ENDPOINT, &zclOnOffLight0_OnOff); 
   \                     ??zclTouchPanelEvent_1:
   \   000025                ; Setup parameters for call to function zclLightReportEvent
   \   000025   7C..         MOV     R4,#zclOnOffLight0_OnOff & 0xff
   \   000027   7D..         MOV     R5,#(zclOnOffLight0_OnOff >> 8) & 0xff
   \   000029   7A10         MOV     R2,#0x10
   \   00002B   12....       LCALL   ?Subroutine2 & 0xFFFF
    140                 done = 1;
    141             }
    142            }
    143            //LED2
    144            if( zcl_interruptNo & 0x20 ) {
   \                     ??CrossCallReturnLabel_2:
   \   00002E   90....       MOV     DPTR,#zcl_interruptNo
   \   000031   E0           MOVX    A,@DPTR
   \   000032   A2E5         MOV     C,0xE0 /* A   */.5
   \   000034   5020         JNC     ??CrossCallReturnLabel_3
    145              if (P0_5 == 0) {
   \   000036   A285         MOV     C,0x80.5
   \   000038   401C         JC      ??CrossCallReturnLabel_3
    146                if (zclOnOffLight1_OnOff == LIGHT_ON) {
   \   00003A   90....       MOV     DPTR,#zclOnOffLight1_OnOff
   \   00003D   E0           MOVX    A,@DPTR
   \   00003E   6401         XRL     A,#0x1
   \   000040   7006         JNZ     ??zclTouchPanelEvent_2
    147                  zclOnOffLight1_OnOff = LIGHT_OFF;
   \   000042   E4           CLR     A
   \   000043   F0           MOVX    @DPTR,A
    148                  LIGHT_TURN_OFF_LIGHT1();
   \   000044   C295         CLR     0x90.5
   \   000046   8005         SJMP    ??zclTouchPanelEvent_3
    149                } else {
    150                  zclOnOffLight1_OnOff = LIGHT_ON;
   \                     ??zclTouchPanelEvent_2:
   \   000048   7401         MOV     A,#0x1
   \   00004A   F0           MOVX    @DPTR,A
    151                  LIGHT_TURN_ON_LIGHT1();
   \   00004B   D295         SETB    0x90.5
    152                }  
    153                //if(zclDevice_NwkState == DEV_ROUTER)
    154                  zclLightReportEvent(ONOFFLIGHT1_ENDPOINT, &zclOnOffLight1_OnOff);
   \                     ??zclTouchPanelEvent_3:
   \   00004D                ; Setup parameters for call to function zclLightReportEvent
   \   00004D   7C..         MOV     R4,#zclOnOffLight1_OnOff & 0xff
   \   00004F   7D..         MOV     R5,#(zclOnOffLight1_OnOff >> 8) & 0xff
   \   000051   7A11         MOV     R2,#0x11
   \   000053   12....       LCALL   ?Subroutine2 & 0xFFFF
    155                
    156                done = 1;
    157              }
    158            }  
    159          
    160            
    161            //LED3
    162           if( zcl_interruptNo & 0x40 ) {
   \                     ??CrossCallReturnLabel_3:
   \   000056   90....       MOV     DPTR,#zcl_interruptNo
   \   000059   E0           MOVX    A,@DPTR
   \   00005A   A2E6         MOV     C,0xE0 /* A   */.6
   \   00005C   5020         JNC     ??CrossCallReturnLabel_4
    163              if (P0_6 == 0) {
   \   00005E   A286         MOV     C,0x80.6
   \   000060   401C         JC      ??CrossCallReturnLabel_4
    164              if (zclOnOffLight3_OnOff == LIGHT_ON) {
   \   000062   90....       MOV     DPTR,#zclOnOffLight3_OnOff
   \   000065   E0           MOVX    A,@DPTR
   \   000066   6401         XRL     A,#0x1
   \   000068   7006         JNZ     ??zclTouchPanelEvent_4
    165                zclOnOffLight3_OnOff = LIGHT_OFF;
   \   00006A   E4           CLR     A
   \   00006B   F0           MOVX    @DPTR,A
    166                 LIGHT_TURN_OFF_LIGHT3();
   \   00006C   C296         CLR     0x90.6
   \   00006E   8005         SJMP    ??zclTouchPanelEvent_5
    167              } else {
    168                zclOnOffLight3_OnOff = LIGHT_ON;
   \                     ??zclTouchPanelEvent_4:
   \   000070   7401         MOV     A,#0x1
   \   000072   F0           MOVX    @DPTR,A
    169                LIGHT_TURN_ON_LIGHT3();
   \   000073   D296         SETB    0x90.6
    170              }
    171              //if(zclDevice_NwkState == DEV_ROUTER)
    172                zclLightReportEvent(ONOFFLIGHT3_ENDPOINT, &zclOnOffLight3_OnOff);
   \                     ??zclTouchPanelEvent_5:
   \   000075                ; Setup parameters for call to function zclLightReportEvent
   \   000075   7C..         MOV     R4,#zclOnOffLight3_OnOff & 0xff
   \   000077   7D..         MOV     R5,#(zclOnOffLight3_OnOff >> 8) & 0xff
   \   000079   7A13         MOV     R2,#0x13
   \   00007B   12....       LCALL   ?Subroutine2 & 0xFFFF
    173              done = 1;
    174              }
    175           }    
    176           // LED4
    177            if( zcl_interruptNo & 0x80 ) {
   \                     ??CrossCallReturnLabel_4:
   \   00007E   90....       MOV     DPTR,#zcl_interruptNo
   \   000081   E0           MOVX    A,@DPTR
   \   000082   A2E7         MOV     C,0xE0 /* A   */.7
   \   000084   5020         JNC     ??CrossCallReturnLabel_5
    178               if (P0_7 == 0) {
   \   000086   A287         MOV     C,0x80.7
   \   000088   401C         JC      ??CrossCallReturnLabel_5
    179                 if (zclOnOffLight2_OnOff == LIGHT_ON) {
   \   00008A   90....       MOV     DPTR,#zclOnOffLight2_OnOff
   \   00008D   E0           MOVX    A,@DPTR
   \   00008E   6401         XRL     A,#0x1
   \   000090   7006         JNZ     ??zclTouchPanelEvent_6
    180                  zclOnOffLight2_OnOff = LIGHT_OFF;
   \   000092   E4           CLR     A
   \   000093   F0           MOVX    @DPTR,A
    181                   LIGHT_TURN_OFF_LIGHT2();
   \   000094   C283         CLR     0x80.3
   \   000096   8005         SJMP    ??zclTouchPanelEvent_7
    182                } else {
    183                  zclOnOffLight2_OnOff = LIGHT_ON;
   \                     ??zclTouchPanelEvent_6:
   \   000098   7401         MOV     A,#0x1
   \   00009A   F0           MOVX    @DPTR,A
    184                  LIGHT_TURN_ON_LIGHT2();
   \   00009B   D283         SETB    0x80.3
    185                }  
    186                //if(zclDevice_NwkState == DEV_ROUTER)
    187                  zclLightReportEvent(ONOFFLIGHT2_ENDPOINT, &zclOnOffLight2_OnOff);
   \                     ??zclTouchPanelEvent_7:
   \   00009D                ; Setup parameters for call to function zclLightReportEvent
   \   00009D   7C..         MOV     R4,#zclOnOffLight2_OnOff & 0xff
   \   00009F   7D..         MOV     R5,#(zclOnOffLight2_OnOff >> 8) & 0xff
   \   0000A1   7A12         MOV     R2,#0x12
   \   0000A3   12....       LCALL   ?Subroutine2 & 0xFFFF
    188                 done = 1;
    189               }
    190            }  
    191            
    192            zcl_interruptNo = 0;
   \                     ??CrossCallReturnLabel_5:
   \   0000A6   90....       MOV     DPTR,#zcl_interruptNo
   \   0000A9   E4           CLR     A
   \   0000AA   F0           MOVX    @DPTR,A
    193            if(done) 
   \   0000AB   E8           MOV     A,R0
   \   0000AC   A2E0         MOV     C,0xE0 /* A   */.0
   \   0000AE   5009         JNC     ??CrossCallReturnLabel_7
    194            {
    195              osal_start_timerEx(zclOnOffLight_TaskID, 
    196                                 ZCL_DEVICE_RESTORE_INTERRUPT_EVENT,
    197                                80);
   \   0000B0                ; Setup parameters for call to function osal_start_timerEx
   \   0000B0   7C50         MOV     R4,#0x50
   \   0000B2   7D00         MOV     R5,#0x0
   \   0000B4   7A20         MOV     R2,#0x20
   \   0000B6   12....       LCALL   ?Subroutine3 & 0xFFFF
    198           } 
    199          }
   \                     ??CrossCallReturnLabel_7:
   \   0000B9   02....       LJMP    ?Subroutine0 & 0xFFFF
   \   0000BC                REQUIRE _A_P0
   \   0000BC                REQUIRE _A_P1

   \                                 In  segment BANKED_CODE, align 1, keep-with-next
   \                     ?Subroutine2:
   \   000000   7B00         MOV     R3,#0x0
   \   000002   12....       LCALL   ??zclLightReportEvent?relay
   \   000005   7801         MOV     R0,#0x1
   \   000007   22           RET
    200          

   \                                 In  segment BANKED_CODE, align 1, keep-with-next
    201          void zclRestoreInterruptEvent(void)
   \                     zclRestoreInterruptEvent:
    202          {
   \   000000                ; Saved register size: 0
   \   000000                ; Auto size: 0
    203            //if(P0_4 = 0 || P0_4 = 1)    //单独在按下或者没按下的时候，存在延时触摸不灵敏
    204            //{
    205            //  P0IFG = 0;
    206            //  P0IF = 0; 
    207            //  P0IEN |= BV(4);
    208            //}
    209            
    210            P0IFG =0;         //每次中断之后都要重新允许中断
   \   000000   12....       LCALL   ?Subroutine1 & 0xFFFF
    211            P0IF = 0;
    212            P0IEN |= BV(4);
    213            //P0DIR &= ~BV(4);
    214            P0IEN |= BV(5);
    215            //P0DIR &= ~BV(5);
    216            P0IEN |= BV(6);
    217            //P0DIR &= ~BV(6);
    218            P0IEN |= BV(7);
    219            //P0DIR &= ~BV(7);
    220          }
   \                     ??CrossCallReturnLabel_0:
   \   000003   02....       LJMP    ?BRET
   \   000006                REQUIRE P0IFG
   \   000006                REQUIRE _A_IRCON
   \   000006                REQUIRE P0IEN

   \                                 In  segment BANKED_CODE, align 1, keep-with-next
   \                     ?Subroutine1:
   \   000000   758900       MOV     0x89,#0x0
   \   000003   C2C5         CLR     0xc0.5
   \   000005   43AB10       ORL     0xab,#0x10
   \   000008   43AB20       ORL     0xab,#0x20
   \   00000B   43AB40       ORL     0xab,#0x40
   \   00000E   43AB80       ORL     0xab,#0x80
   \   000011   22           RET
    221          

   \                                 In  segment BANKED_CODE, align 1, keep-with-next
    222          void zclFactoryResetInit(void)
   \                     zclFactoryResetInit:
    223          {
   \   000000                ; Saved register size: 0
   \   000000                ; Auto size: 0
    224            P2SEL &= ~BV(0);
   \   000000   53F5FE       ANL     0xf5,#0xfe
    225            P2DIR &= ~BV(0);
   \   000003   53FFFE       ANL     0xff,#0xfe
    226            P2INP &= ~BV(7);
   \   000006   53F77F       ANL     0xf7,#0x7f
    227            P2INP &= ~BV(0);
   \   000009   53F7FE       ANL     0xf7,#0xfe
    228            P2IEN |= BV(0);
   \   00000C   43AC01       ORL     0xac,#0x1
    229            
    230            PICTL |= (0x1 << 3);
   \   00000F   438C08       ORL     0x8c,#0x8
    231            IEN2 |= (0x1 << 1);
   \   000012   439A02       ORL     0x9a,#0x2
    232            P2IFG = 0;
   \   000015   758B00       MOV     0x8b,#0x0
    233            P2IF = 0;
   \   000018   C2E8         CLR     0xe8.0
    234          }
   \   00001A   02....       LJMP    ?BRET
   \   00001D                REQUIRE P2SEL
   \   00001D                REQUIRE P2DIR
   \   00001D                REQUIRE P2INP
   \   00001D                REQUIRE P2IEN
   \   00001D                REQUIRE PICTL
   \   00001D                REQUIRE IEN2
   \   00001D                REQUIRE P2IFG
   \   00001D                REQUIRE _A_IRCON2
    235          

   \                                 In  segment BANKED_CODE, align 1, keep-with-next
    236          void zclFactoryResetEvent(void)
   \                     zclFactoryResetEvent:
    237          {
   \   000000   C082         PUSH    DPL
   \   000002   C083         PUSH    DPH
   \   000004                ; Saved register size: 2
   \   000004                ; Auto size: 0
    238              if (zcl_factoryReset > ZCL_FACTORY_RESET_TIMECOUNT) 
   \   000004   90....       MOV     DPTR,#zcl_factoryReset
   \   000007   E0           MOVX    A,@DPTR
   \   000008   C3           CLR     C
   \   000009   940B         SUBB    A,#0xb
   \   00000B   400B         JC      ??zclFactoryResetEvent_0
    239               {
    240                 
    241                   osal_start_timerEx(zclOnOffLight_TaskID, 
    242                                      ZCL_DEVICE_SOFT_RESTART_EVENT,
    243                                      ZCL_FACTORY_RESET_HINT);
   \   00000D                ; Setup parameters for call to function osal_start_timerEx
   \   00000D   7CC8         MOV     R4,#-0x38
   \   00000F   7D00         MOV     R5,#0x0
   \   000011   7A40         MOV     R2,#0x40
   \   000013   12....       LCALL   ?Subroutine3 & 0xFFFF
    244               }
   \                     ??CrossCallReturnLabel_8:
   \   000016   800C         SJMP    ??CrossCallReturnLabel_1
    245               
    246            else 
    247            {
    248              g_u8restFlag = 0;
   \                     ??zclFactoryResetEvent_0:
   \   000018   90....       MOV     DPTR,#g_u8restFlag
   \   00001B   E4           CLR     A
   \   00001C   F0           MOVX    @DPTR,A
    249              zcl_factoryReset = 0;
   \   00001D   90....       MOV     DPTR,#zcl_factoryReset
   \   000020   F0           MOVX    @DPTR,A
    250              P0IFG = 0;
   \   000021   12....       LCALL   ?Subroutine1 & 0xFFFF
    251              P0IF = 0;
    252              P0IEN |= BV(4);
    253              P0IEN |= BV(5);
    254              P0IEN |= BV(6);
    255              P0IEN |= BV(7);
    256              
    257            }
    258          }  
   \                     ??CrossCallReturnLabel_1:
   \   000024   02....       LJMP    ?Subroutine0 & 0xFFFF
   \   000027                REQUIRE P0IFG
   \   000027                REQUIRE _A_IRCON
   \   000027                REQUIRE P0IEN
    259          //中断,所有外部中断入口

   \                                 In  segment NEAR_CODE, align 1, keep-with-next
    260          HAL_ISR_FUNCTION(zclLightControlPort0Isr, P0INT_VECTOR)
   \                     zclLightControlPort0Isr:
    261          {
   \   000000   C0E0         PUSH    A
   \   000002   74F2         MOV     A,#-0xe
   \   000004   12....       LCALL   ?INTERRUPT_ENTER_XSP
   \   000007                ; Saved register size: 15
   \   000007                ; Auto size: 0
    262            HAL_ENTER_ISR();
   \   000007   A2AF         MOV     C,0xa8.7
   \   000009   E4           CLR     A
   \   00000A   33           RLC     A
   \   00000B   FE           MOV     R6,A
   \   00000C   D2AF         SETB    0xa8.7
    263            
    264            zcl_interruptNo = 0;
   \   00000E   90....       MOV     DPTR,#zcl_interruptNo
   \   000011   E4           CLR     A
   \   000012   F0           MOVX    @DPTR,A
    265            if (P0IFG & 0x10) {     //判断相应管脚的中断标志位
   \   000013   E589         MOV     A,0x89
   \   000015   A2E4         MOV     C,0xE0 /* A   */.4
   \   000017   5006         JNC     ??zclLightControlPort0Isr_0
    266              zcl_interruptNo |= 1;
   \   000019   7401         MOV     A,#0x1
   \   00001B   F0           MOVX    @DPTR,A
    267              P0IEN &= ~BV(4);
   \   00001C   53ABEF       ANL     0xab,#0xef
    268            }
    269            if (P0IFG & 0x20) {
   \                     ??zclLightControlPort0Isr_0:
   \   00001F   E589         MOV     A,0x89
   \   000021   A2E5         MOV     C,0xE0 /* A   */.5
   \   000023   5007         JNC     ??zclLightControlPort0Isr_1
    270              P0IEN &= ~BV(5);
   \   000025   53ABDF       ANL     0xab,#0xdf
    271              zcl_interruptNo |= BV(5);
   \   000028   E0           MOVX    A,@DPTR
   \   000029   D2E5         SETB    0xE0 /* A   */.5
   \   00002B   F0           MOVX    @DPTR,A
    272            }
    273            if (P0IFG & 0x40) {
   \                     ??zclLightControlPort0Isr_1:
   \   00002C   E589         MOV     A,0x89
   \   00002E   A2E6         MOV     C,0xE0 /* A   */.6
   \   000030   5007         JNC     ??zclLightControlPort0Isr_2
    274              P0IEN &= ~BV(6);
   \   000032   53ABBF       ANL     0xab,#0xbf
    275              zcl_interruptNo |= BV(6);
   \   000035   E0           MOVX    A,@DPTR
   \   000036   D2E6         SETB    0xE0 /* A   */.6
   \   000038   F0           MOVX    @DPTR,A
    276            }
    277            if (P0IFG & 0x80) {
   \                     ??zclLightControlPort0Isr_2:
   \   000039   E589         MOV     A,0x89
   \   00003B   A2E7         MOV     C,0xE0 /* A   */.7
   \   00003D   5007         JNC     ??zclLightControlPort0Isr_3
    278              P0IEN &= ~BV(7);
   \   00003F   53AB7F       ANL     0xab,#0x7f
    279              zcl_interruptNo |= BV(7);
   \   000042   E0           MOVX    A,@DPTR
   \   000043   D2E7         SETB    0xE0 /* A   */.7
   \   000045   F0           MOVX    @DPTR,A
    280            }
    281            
    282            if( zcl_interruptNo ) {
   \                     ??zclLightControlPort0Isr_3:
   \   000046   E0           MOVX    A,@DPTR
   \   000047   6016         JZ      ??zclLightControlPort0Isr_4
    283              zcl_factoryReset ++;        //按键中断统计
   \   000049   90....       MOV     DPTR,#zcl_factoryReset
   \   00004C   E0           MOVX    A,@DPTR
   \   00004D   04           INC     A
   \   00004E   F0           MOVX    @DPTR,A
    284              osal_start_timerEx(zclOnOffLight_TaskID, 
    285                                 ZCL_DEVICE_TOUCHPANEL_EVENT,
    286                                 20);
   \   00004F                ; Setup parameters for call to function osal_start_timerEx
   \   00004F   7C14         MOV     R4,#0x14
   \   000051   7D00         MOV     R5,#0x0
   \   000053   7A10         MOV     R2,#0x10
   \   000055   7B00         MOV     R3,#0x0
   \   000057   90....       MOV     DPTR,#zclOnOffLight_TaskID
   \   00005A   E0           MOVX    A,@DPTR
   \   00005B   F9           MOV     R1,A
   \   00005C   12....       LCALL   ??osal_start_timerEx?relay
    287            }
    288            
    289            P0IFG = 0;
   \                     ??zclLightControlPort0Isr_4:
   \   00005F   758900       MOV     0x89,#0x0
    290            P0IF = 0;
   \   000062   C2C5         CLR     0xc0.5
    291            CLEAR_SLEEP_MODE();
    292            HAL_EXIT_ISR();
   \   000064   EE           MOV     A,R6
   \   000065   A2E0         MOV     C,0xE0 /* A   */.0
   \   000067   92AF         MOV     0xa8.7,C
    293          }
   \   000069   7F01         MOV     R7,#0x1
   \   00006B   02....       LJMP    ?INTERRUPT_LEAVE_XSP
   \   00006E                REQUIRE _A_IEN0
   \   00006E                REQUIRE P0IFG
   \   00006E                REQUIRE P0IEN
   \   00006E                REQUIRE _A_IRCON

   \                                 In  segment INTVEC, offset 0x6b, root
   \                     `??zclLightControlPort0Isr??INTVEC 107`:
   \   00006B   02....       LJMP       (zclLightControlPort0Isr)

   \                                 In  segment BANK_RELAYS, align 1
   \                     ??zclLightControlInit?relay:
   \   000000   12....       LCALL   ?BDISPATCH
   \   000003   ......       DC24    zclLightControlInit

   \                                 In  segment BANK_RELAYS, align 1
   \                     ??zclLightControlTouchPanelEnable?relay:
   \   000000   12....       LCALL   ?BDISPATCH
   \   000003   ......       DC24    zclLightControlTouchPanelEnable

   \                                 In  segment BANK_RELAYS, align 1
   \                     ??zclLightReportEvent?relay:
   \   000000   12....       LCALL   ?BDISPATCH
   \   000003   ......       DC24    zclLightReportEvent

   \                                 In  segment BANK_RELAYS, align 1
   \                     ??zclTouchPanelEvent?relay:
   \   000000   12....       LCALL   ?BDISPATCH
   \   000003   ......       DC24    zclTouchPanelEvent

   \                                 In  segment BANK_RELAYS, align 1
   \                     ??zclRestoreInterruptEvent?relay:
   \   000000   12....       LCALL   ?BDISPATCH
   \   000003   ......       DC24    zclRestoreInterruptEvent

   \                                 In  segment BANK_RELAYS, align 1
   \                     ??zclFactoryResetInit?relay:
   \   000000   12....       LCALL   ?BDISPATCH
   \   000003   ......       DC24    zclFactoryResetInit

   \                                 In  segment BANK_RELAYS, align 1
   \                     ??zclFactoryResetEvent?relay:
   \   000000   12....       LCALL   ?BDISPATCH
   \   000003   ......       DC24    zclFactoryResetEvent
    294          

   Maximum stack usage in bytes:

     Function                       ISTACK PSTACK XSTACK
     --------                       ------ ------ ------
     zclFactoryResetEvent               2      0      0
       -> osal_start_timerEx            4      0      0
     zclFactoryResetInit                0      0      0
     zclLightControlInit                2      0      0
       -> zclFactoryResetInit           4      0      0
       -> osal_start_timerEx            4      0      0
     zclLightControlPort0Isr           15      0      0
       -> osal_start_timerEx           30      0      0
     zclLightControlTouchPanelEnable
                                        0      0      0
     zclLightReportEvent                0      0     19
       -> osal_mem_alloc                0      0     28
       -> zcl_SendReportCmd             0      0     38
       -> osal_mem_free                 0      0     28
     zclRestoreInterruptEvent           0      0      0
     zclTouchPanelEvent                 2      0      0
       -> zclLightReportEvent           4      0      0
       -> zclLightReportEvent           4      0      0
       -> zclLightReportEvent           4      0      0
       -> zclLightReportEvent           4      0      0
       -> osal_start_timerEx            4      0      0


   Segment part sizes:

     Function/Label                          Bytes
     --------------                          -----
     _A_P0                                      1
     P0IFG                                      1
     P2IFG                                      1
     PICTL                                      1
     P0INP                                      1
     _A_P1                                      1
     IEN2                                       1
     _A_IEN0                                    1
     P0IEN                                      1
     P2IEN                                      1
     _A_IEN1                                    1
     _A_IRCON                                   1
     _A_IRCON2                                  1
     P0SEL                                      1
     P1SEL                                      1
     P2SEL                                      1
     P2INP                                      1
     P0DIR                                      1
     P1DIR                                      1
     P2DIR                                      1
     zcl_Coord_nwkAddr                         12
     zcl_SeqNum                                 1
     zcl_interruptNo                            1
     zcl_factoryReset                           1
     zclLightControlInit                       75
     ?Subroutine0                               7
     ?Subroutine3                              11
     zclLightControlTouchPanelEnable
                                               69
     zclLightReportEvent                      117
     ?Subroutine4                               9
     zclTouchPanelEvent                       188
     ?Subroutine2                               8
     zclRestoreInterruptEvent                   6
     ?Subroutine1                              18
     zclFactoryResetInit                       29
     zclFactoryResetEvent                      39
     zclLightControlPort0Isr                  110
     ??zclLightControlPort0Isr??INTVEC 107      3
     ??zclLightControlInit?relay                6
     ??zclLightControlTouchPanelEnable?relay    6
     ??zclLightReportEvent?relay                6
     ??zclTouchPanelEvent?relay                 6
     ??zclRestoreInterruptEvent?relay           6
     ??zclFactoryResetInit?relay                6
     ??zclFactoryResetEvent?relay               6

 
 576 bytes in segment BANKED_CODE
  42 bytes in segment BANK_RELAYS
   3 bytes in segment INTVEC
 110 bytes in segment NEAR_CODE
  20 bytes in segment SFR_AN
  15 bytes in segment XDATA_Z
 
 728 bytes of CODE  memory (+  3 bytes shared)
   0 bytes of DATA  memory (+ 20 bytes shared)
  15 bytes of XDATA memory

Errors: none
Warnings: none
